

Microchip MPLAB XC8 Assembler V2.31 build 20201012212115 
                                                                                               Thu Feb 18 18:19:58 2021

Microchip MPLAB XC8 C Compiler v2.31 (Free license) build 20201012212115 Og1 
     1                           	processor	16F887
     2                           	pagewidth 120
     3                           	opt	flic
     4                           	psect	strings,global,class=STRING,delta=2,noexec
     5                           	psect	stringtext,global,reloc=256,class=STRCODE,delta=2,noexec
     6                           	psect	cinit,global,class=CODE,merge=1,delta=2
     7                           	psect	bssCOMMON,global,class=COMMON,space=1,delta=1,noexec
     8                           	psect	bssBANK0,global,class=BANK0,space=1,delta=1,noexec
     9                           	psect	cstackCOMMON,global,class=COMMON,space=1,delta=1,noexec
    10                           	psect	cstackBANK0,global,class=BANK0,space=1,delta=1,noexec
    11                           	psect	maintext,global,class=CODE,split=1,delta=2
    12                           	psect	text1,local,class=CODE,merge=1,delta=2
    13                           	psect	text2,local,class=CODE,merge=1,delta=2
    14                           	psect	text3,local,class=CODE,merge=1,delta=2
    15                           	psect	text4,local,class=CODE,merge=1,delta=2
    16                           	psect	text5,local,class=CODE,merge=1,delta=2
    17                           	psect	text6,local,class=CODE,merge=1,delta=2
    18                           	psect	text7,local,class=CODE,merge=1,delta=2
    19                           	psect	text8,local,class=CODE,merge=1,delta=2
    20                           	psect	text9,local,class=CODE,merge=1,delta=2
    21                           	psect	text10,local,class=CODE,merge=1,delta=2
    22                           	psect	text11,local,class=CODE,merge=1,delta=2
    23                           	psect	text12,local,class=CODE,merge=1,delta=2
    24                           	psect	text13,local,class=CODE,merge=1,delta=2
    25                           	psect	text14,local,class=CODE,merge=1,delta=2
    26                           	psect	intentry,global,class=CODE,delta=2
    27                           	psect	text15,local,class=CODE,merge=1,delta=2
    28                           	psect	config,global,abs,ovrld,class=CONFIG,space=4,delta=2,noexec
    29                           	psect	text13_split_1,local,class=CODE,merge=1,delta=2
    30                           	dabs	1,0x7E,2
    31  0000                     
    32                           ; Version 2.31
    33                           ; Generated 13/10/2020 GMT
    34                           ; 
    35                           ; Copyright © 2020, Microchip Technology Inc. and its subsidiaries ("Microchip")
    36                           ; All rights reserved.
    37                           ; 
    38                           ; This software is developed by Microchip Technology Inc. and its subsidiaries ("Microch
      +                          ip").
    39                           ; 
    40                           ; Redistribution and use in source and binary forms, with or without modification, are
    41                           ; permitted provided that the following conditions are met:
    42                           ; 
    43                           ;     1. Redistributions of source code must retain the above copyright notice, this lis
      +                          t of
    44                           ;        conditions and the following disclaimer.
    45                           ; 
    46                           ;     2. Redistributions in binary form must reproduce the above copyright notice, this 
      +                          list
    47                           ;        of conditions and the following disclaimer in the documentation and/or other
    48                           ;        materials provided with the distribution. Publication is not required when
    49                           ;        this file is used in an embedded application.
    50                           ; 
    51                           ;     3. Microchip's name may not be used to endorse or promote products derived from th
      +                          is
    52                           ;        software without specific prior written permission.
    53                           ; 
    54                           ; THIS SOFTWARE IS PROVIDED BY MICROCHIP "AS IS" AND ANY EXPRESS OR IMPLIED WARRANTIES,
    55                           ; INCLUDING, BUT NOT LIMITED TO, THE IMPLIED WARRANTIES OF MERCHANTABILITY AND FITNESS F
      +                          OR
    56                           ; PURPOSE ARE DISCLAIMED.  IN NO EVENT SHALL MICROCHIP BE LIABLE FOR ANY DIRECT, INDIREC
      +                          T,
    57                           ; INCIDENTAL, SPECIAL, EXEMPLARY, OR CONSEQUENTIAL DAMAGES (INCLUDING BUT NOT LIMITED TO
    58                           ; PROCUREMENT OF SUBSTITUTE GOODS OR SERVICES; LOSS OF USE, DATA OR PROFITS; OR BUSINESS
    59                           ; INTERRUPTION) HOWSOEVER CAUSED AND ON ANY THEORY OF LIABILITY, WHETHER IN CONTRACT, ST
      +                          RICT
    60                           ; LIABILITY, OR TORT (INCLUDING NEGLIGENCE OR OTHERWISE) ARISING IN ANY WAY OUT OF THE U
      +                          SE OF
    61                           ; THIS SOFTWARE, EVEN IF ADVISED OF THE POSSIBILITY OF SUCH DAMAGE.
    62                           ; 
    63                           ; 
    64                           ; Code-generator required, PIC16F887 Definitions
    65                           ; 
    66                           ; SFR Addresses
    67  0000                     	;# 
    68  0001                     	;# 
    69  0002                     	;# 
    70  0003                     	;# 
    71  0004                     	;# 
    72  0005                     	;# 
    73  0006                     	;# 
    74  0007                     	;# 
    75  0008                     	;# 
    76  0009                     	;# 
    77  000A                     	;# 
    78  000B                     	;# 
    79  000C                     	;# 
    80  000D                     	;# 
    81  000E                     	;# 
    82  000E                     	;# 
    83  000F                     	;# 
    84  0010                     	;# 
    85  0011                     	;# 
    86  0012                     	;# 
    87  0013                     	;# 
    88  0014                     	;# 
    89  0015                     	;# 
    90  0015                     	;# 
    91  0016                     	;# 
    92  0017                     	;# 
    93  0018                     	;# 
    94  0019                     	;# 
    95  001A                     	;# 
    96  001B                     	;# 
    97  001B                     	;# 
    98  001C                     	;# 
    99  001D                     	;# 
   100  001E                     	;# 
   101  001F                     	;# 
   102  0081                     	;# 
   103  0085                     	;# 
   104  0086                     	;# 
   105  0087                     	;# 
   106  0088                     	;# 
   107  0089                     	;# 
   108  008C                     	;# 
   109  008D                     	;# 
   110  008E                     	;# 
   111  008F                     	;# 
   112  0090                     	;# 
   113  0091                     	;# 
   114  0092                     	;# 
   115  0093                     	;# 
   116  0093                     	;# 
   117  0093                     	;# 
   118  0094                     	;# 
   119  0095                     	;# 
   120  0096                     	;# 
   121  0097                     	;# 
   122  0098                     	;# 
   123  0099                     	;# 
   124  009A                     	;# 
   125  009B                     	;# 
   126  009C                     	;# 
   127  009D                     	;# 
   128  009E                     	;# 
   129  009F                     	;# 
   130  0105                     	;# 
   131  0107                     	;# 
   132  0108                     	;# 
   133  0109                     	;# 
   134  010C                     	;# 
   135  010C                     	;# 
   136  010D                     	;# 
   137  010E                     	;# 
   138  010F                     	;# 
   139  0185                     	;# 
   140  0187                     	;# 
   141  0188                     	;# 
   142  0189                     	;# 
   143  018C                     	;# 
   144  018D                     	;# 
   145  0000                     	;# 
   146  0001                     	;# 
   147  0002                     	;# 
   148  0003                     	;# 
   149  0004                     	;# 
   150  0005                     	;# 
   151  0006                     	;# 
   152  0007                     	;# 
   153  0008                     	;# 
   154  0009                     	;# 
   155  000A                     	;# 
   156  000B                     	;# 
   157  000C                     	;# 
   158  000D                     	;# 
   159  000E                     	;# 
   160  000E                     	;# 
   161  000F                     	;# 
   162  0010                     	;# 
   163  0011                     	;# 
   164  0012                     	;# 
   165  0013                     	;# 
   166  0014                     	;# 
   167  0015                     	;# 
   168  0015                     	;# 
   169  0016                     	;# 
   170  0017                     	;# 
   171  0018                     	;# 
   172  0019                     	;# 
   173  001A                     	;# 
   174  001B                     	;# 
   175  001B                     	;# 
   176  001C                     	;# 
   177  001D                     	;# 
   178  001E                     	;# 
   179  001F                     	;# 
   180  0081                     	;# 
   181  0085                     	;# 
   182  0086                     	;# 
   183  0087                     	;# 
   184  0088                     	;# 
   185  0089                     	;# 
   186  008C                     	;# 
   187  008D                     	;# 
   188  008E                     	;# 
   189  008F                     	;# 
   190  0090                     	;# 
   191  0091                     	;# 
   192  0092                     	;# 
   193  0093                     	;# 
   194  0093                     	;# 
   195  0093                     	;# 
   196  0094                     	;# 
   197  0095                     	;# 
   198  0096                     	;# 
   199  0097                     	;# 
   200  0098                     	;# 
   201  0099                     	;# 
   202  009A                     	;# 
   203  009B                     	;# 
   204  009C                     	;# 
   205  009D                     	;# 
   206  009E                     	;# 
   207  009F                     	;# 
   208  0105                     	;# 
   209  0107                     	;# 
   210  0108                     	;# 
   211  0109                     	;# 
   212  010C                     	;# 
   213  010C                     	;# 
   214  010D                     	;# 
   215  010E                     	;# 
   216  010F                     	;# 
   217  0185                     	;# 
   218  0187                     	;# 
   219  0188                     	;# 
   220  0189                     	;# 
   221  018C                     	;# 
   222  018D                     	;# 
   223  0000                     	;# 
   224  0001                     	;# 
   225  0002                     	;# 
   226  0003                     	;# 
   227  0004                     	;# 
   228  0005                     	;# 
   229  0006                     	;# 
   230  0007                     	;# 
   231  0008                     	;# 
   232  0009                     	;# 
   233  000A                     	;# 
   234  000B                     	;# 
   235  000C                     	;# 
   236  000D                     	;# 
   237  000E                     	;# 
   238  000E                     	;# 
   239  000F                     	;# 
   240  0010                     	;# 
   241  0011                     	;# 
   242  0012                     	;# 
   243  0013                     	;# 
   244  0014                     	;# 
   245  0015                     	;# 
   246  0015                     	;# 
   247  0016                     	;# 
   248  0017                     	;# 
   249  0018                     	;# 
   250  0019                     	;# 
   251  001A                     	;# 
   252  001B                     	;# 
   253  001B                     	;# 
   254  001C                     	;# 
   255  001D                     	;# 
   256  001E                     	;# 
   257  001F                     	;# 
   258  0081                     	;# 
   259  0085                     	;# 
   260  0086                     	;# 
   261  0087                     	;# 
   262  0088                     	;# 
   263  0089                     	;# 
   264  008C                     	;# 
   265  008D                     	;# 
   266  008E                     	;# 
   267  008F                     	;# 
   268  0090                     	;# 
   269  0091                     	;# 
   270  0092                     	;# 
   271  0093                     	;# 
   272  0093                     	;# 
   273  0093                     	;# 
   274  0094                     	;# 
   275  0095                     	;# 
   276  0096                     	;# 
   277  0097                     	;# 
   278  0098                     	;# 
   279  0099                     	;# 
   280  009A                     	;# 
   281  009B                     	;# 
   282  009C                     	;# 
   283  009D                     	;# 
   284  009E                     	;# 
   285  009F                     	;# 
   286  0105                     	;# 
   287  0107                     	;# 
   288  0108                     	;# 
   289  0109                     	;# 
   290  010C                     	;# 
   291  010C                     	;# 
   292  010D                     	;# 
   293  010E                     	;# 
   294  010F                     	;# 
   295  0185                     	;# 
   296  0187                     	;# 
   297  0188                     	;# 
   298  0189                     	;# 
   299  018C                     	;# 
   300  018D                     	;# 
   301  0000                     	;# 
   302  0001                     	;# 
   303  0002                     	;# 
   304  0003                     	;# 
   305  0004                     	;# 
   306  0005                     	;# 
   307  0006                     	;# 
   308  0007                     	;# 
   309  0008                     	;# 
   310  0009                     	;# 
   311  000A                     	;# 
   312  000B                     	;# 
   313  000C                     	;# 
   314  000D                     	;# 
   315  000E                     	;# 
   316  000E                     	;# 
   317  000F                     	;# 
   318  0010                     	;# 
   319  0011                     	;# 
   320  0012                     	;# 
   321  0013                     	;# 
   322  0014                     	;# 
   323  0015                     	;# 
   324  0015                     	;# 
   325  0016                     	;# 
   326  0017                     	;# 
   327  0018                     	;# 
   328  0019                     	;# 
   329  001A                     	;# 
   330  001B                     	;# 
   331  001B                     	;# 
   332  001C                     	;# 
   333  001D                     	;# 
   334  001E                     	;# 
   335  001F                     	;# 
   336  0081                     	;# 
   337  0085                     	;# 
   338  0086                     	;# 
   339  0087                     	;# 
   340  0088                     	;# 
   341  0089                     	;# 
   342  008C                     	;# 
   343  008D                     	;# 
   344  008E                     	;# 
   345  008F                     	;# 
   346  0090                     	;# 
   347  0091                     	;# 
   348  0092                     	;# 
   349  0093                     	;# 
   350  0093                     	;# 
   351  0093                     	;# 
   352  0094                     	;# 
   353  0095                     	;# 
   354  0096                     	;# 
   355  0097                     	;# 
   356  0098                     	;# 
   357  0099                     	;# 
   358  009A                     	;# 
   359  009B                     	;# 
   360  009C                     	;# 
   361  009D                     	;# 
   362  009E                     	;# 
   363  009F                     	;# 
   364  0105                     	;# 
   365  0107                     	;# 
   366  0108                     	;# 
   367  0109                     	;# 
   368  010C                     	;# 
   369  010C                     	;# 
   370  010D                     	;# 
   371  010E                     	;# 
   372  010F                     	;# 
   373  0185                     	;# 
   374  0187                     	;# 
   375  0188                     	;# 
   376  0189                     	;# 
   377  018C                     	;# 
   378  018D                     	;# 
   379  0000                     	;# 
   380  0001                     	;# 
   381  0002                     	;# 
   382  0003                     	;# 
   383  0004                     	;# 
   384  0005                     	;# 
   385  0006                     	;# 
   386  0007                     	;# 
   387  0008                     	;# 
   388  0009                     	;# 
   389  000A                     	;# 
   390  000B                     	;# 
   391  000C                     	;# 
   392  000D                     	;# 
   393  000E                     	;# 
   394  000E                     	;# 
   395  000F                     	;# 
   396  0010                     	;# 
   397  0011                     	;# 
   398  0012                     	;# 
   399  0013                     	;# 
   400  0014                     	;# 
   401  0015                     	;# 
   402  0015                     	;# 
   403  0016                     	;# 
   404  0017                     	;# 
   405  0018                     	;# 
   406  0019                     	;# 
   407  001A                     	;# 
   408  001B                     	;# 
   409  001B                     	;# 
   410  001C                     	;# 
   411  001D                     	;# 
   412  001E                     	;# 
   413  001F                     	;# 
   414  0081                     	;# 
   415  0085                     	;# 
   416  0086                     	;# 
   417  0087                     	;# 
   418  0088                     	;# 
   419  0089                     	;# 
   420  008C                     	;# 
   421  008D                     	;# 
   422  008E                     	;# 
   423  008F                     	;# 
   424  0090                     	;# 
   425  0091                     	;# 
   426  0092                     	;# 
   427  0093                     	;# 
   428  0093                     	;# 
   429  0093                     	;# 
   430  0094                     	;# 
   431  0095                     	;# 
   432  0096                     	;# 
   433  0097                     	;# 
   434  0098                     	;# 
   435  0099                     	;# 
   436  009A                     	;# 
   437  009B                     	;# 
   438  009C                     	;# 
   439  009D                     	;# 
   440  009E                     	;# 
   441  009F                     	;# 
   442  0105                     	;# 
   443  0107                     	;# 
   444  0108                     	;# 
   445  0109                     	;# 
   446  010C                     	;# 
   447  010C                     	;# 
   448  010D                     	;# 
   449  010E                     	;# 
   450  010F                     	;# 
   451  0185                     	;# 
   452  0187                     	;# 
   453  0188                     	;# 
   454  0189                     	;# 
   455  018C                     	;# 
   456  018D                     	;# 
   457  0007                     _PORTCbits	set	7
   458  0009                     _PORTEbits	set	9
   459  0018                     _RCSTAbits	set	24
   460  0009                     _PORTE	set	9
   461  0008                     _PORTD	set	8
   462  0007                     _PORTC	set	7
   463  0006                     _PORTB	set	6
   464  0005                     _PORTA	set	5
   465  0019                     _TXREG	set	25
   466  000C                     _PIR1bits	set	12
   467  000B                     _INTCONbits	set	11
   468  0013                     _SSPBUF	set	19
   469  0014                     _SSPCON	set	20
   470  0014                     _SSPCONbits	set	20
   471  009A                     _SPBRGH	set	154
   472  0098                     _TXSTAbits	set	152
   473  0099                     _SPBRG	set	153
   474  0089                     _TRISE	set	137
   475  0087                     _TRISCbits	set	135
   476  0087                     _TRISC	set	135
   477  0086                     _TRISB	set	134
   478  0088                     _TRISD	set	136
   479  0085                     _TRISA	set	133
   480  008C                     _PIE1bits	set	140
   481  0094                     _SSPSTATbits	set	148
   482  0094                     _SSPSTAT	set	148
   483  0187                     _BAUDCTLbits	set	391
   484  0189                     _ANSELH	set	393
   485  0188                     _ANSEL	set	392
   486                           
   487                           	psect	strings
   488  0C02                     __pstrings:
   489  0C02                     stringtab:
   490  0C02                     __stringtab:
   491                           
   492                           ;	String table - string pointers are 2 bytes each
   493  0C02  1BFF               	btfsc	btemp+1,7
   494  0C03  2C0C               	ljmp	stringcode
   495  0C04  1383               	bcf	3,7
   496  0C05  187F               	btfsc	btemp+1,0
   497  0C06  1783               	bsf	3,7
   498  0C07  0800               	movf	0,w
   499  0C08  0A84               	incf	4,f
   500  0C09  1903               	skipnz
   501  0C0A  0AFF               	incf	btemp+1,f
   502  0C0B  0008               	return
   503  0C0C                     stringcode:
   504  0C0C  087F               	movf	btemp+1,w
   505  0C0D  397F               	andlw	127
   506  0C0E  008A               	movwf	10
   507  0C0F  0804               	movf	4,w
   508  0C10  0A84               	incf	4,f
   509  0C11  1903               	skipnz
   510  0C12  0AFF               	incf	btemp+1,f
   511  0C13  0082               	movwf	2
   512  0C14                     __stringbase:
   513  0C14                     __end_of__stringtab:
   514                           
   515                           	psect	stringtext
   516  0800                     __pstringtext:
   517  0800                     STR_3:
   518  0800  3454               	retlw	84	;'T'
   519  0801  3445               	retlw	69	;'E'
   520  0802  344D               	retlw	77	;'M'
   521  0803  3450               	retlw	80	;'P'
   522  0804  3400               	retlw	0
   523  0805                     STR_2:
   524  0805  3443               	retlw	67	;'C'
   525  0806  344F               	retlw	79	;'O'
   526  0807  344E               	retlw	78	;'N'
   527  0808  3454               	retlw	84	;'T'
   528  0809  3400               	retlw	0
   529  080A                     STR_4:
   530  080A  3430               	retlw	48	;'0'
   531  080B  3430               	retlw	48	;'0'
   532  080C  3430               	retlw	48	;'0'
   533  080D  3400               	retlw	0
   534  080E                     STR_104:
   535  080E  3431               	retlw	49	;'1'
   536  080F  3430               	retlw	48	;'0'
   537  0810  3430               	retlw	48	;'0'
   538  0811  3400               	retlw	0
   539  0812                     STR_14:
   540  0812  3430               	retlw	48	;'0'
   541  0813  3431               	retlw	49	;'1'
   542  0814  3430               	retlw	48	;'0'
   543  0815  3400               	retlw	0
   544  0816                     STR_114:
   545  0816  3431               	retlw	49	;'1'
   546  0817  3431               	retlw	49	;'1'
   547  0818  3430               	retlw	48	;'0'
   548  0819  3400               	retlw	0
   549  081A                     STR_214:
   550  081A  3432               	retlw	50	;'2'
   551  081B  3431               	retlw	49	;'1'
   552  081C  3430               	retlw	48	;'0'
   553  081D  3400               	retlw	0
   554  081E                     STR_24:
   555  081E  3430               	retlw	48	;'0'
   556  081F  3432               	retlw	50	;'2'
   557  0820  3430               	retlw	48	;'0'
   558  0821  3400               	retlw	0
   559  0822                     STR_124:
   560  0822  3431               	retlw	49	;'1'
   561  0823  3432               	retlw	50	;'2'
   562  0824  3430               	retlw	48	;'0'
   563  0825  3400               	retlw	0
   564  0826                     STR_224:
   565  0826  3432               	retlw	50	;'2'
   566  0827  3432               	retlw	50	;'2'
   567  0828  3430               	retlw	48	;'0'
   568  0829  3400               	retlw	0
   569  082A                     STR_34:
   570  082A  3430               	retlw	48	;'0'
   571  082B  3433               	retlw	51	;'3'
   572  082C  3430               	retlw	48	;'0'
   573  082D  3400               	retlw	0
   574  082E                     STR_134:
   575  082E  3431               	retlw	49	;'1'
   576  082F  3433               	retlw	51	;'3'
   577  0830  3430               	retlw	48	;'0'
   578  0831  3400               	retlw	0
   579  0832                     STR_234:
   580  0832  3432               	retlw	50	;'2'
   581  0833  3433               	retlw	51	;'3'
   582  0834  3430               	retlw	48	;'0'
   583  0835  3400               	retlw	0
   584  0836                     STR_44:
   585  0836  3430               	retlw	48	;'0'
   586  0837  3434               	retlw	52	;'4'
   587  0838  3430               	retlw	48	;'0'
   588  0839  3400               	retlw	0
   589  083A                     STR_144:
   590  083A  3431               	retlw	49	;'1'
   591  083B  3434               	retlw	52	;'4'
   592  083C  3430               	retlw	48	;'0'
   593  083D  3400               	retlw	0
   594  083E                     STR_244:
   595  083E  3432               	retlw	50	;'2'
   596  083F  3434               	retlw	52	;'4'
   597  0840  3430               	retlw	48	;'0'
   598  0841  3400               	retlw	0
   599  0842                     STR_54:
   600  0842  3430               	retlw	48	;'0'
   601  0843  3435               	retlw	53	;'5'
   602  0844  3430               	retlw	48	;'0'
   603  0845  3400               	retlw	0
   604  0846                     STR_154:
   605  0846  3431               	retlw	49	;'1'
   606  0847  3435               	retlw	53	;'5'
   607  0848  3430               	retlw	48	;'0'
   608  0849  3400               	retlw	0
   609  084A                     STR_254:
   610  084A  3432               	retlw	50	;'2'
   611  084B  3435               	retlw	53	;'5'
   612  084C  3430               	retlw	48	;'0'
   613  084D  3400               	retlw	0
   614  084E                     STR_64:
   615  084E  3430               	retlw	48	;'0'
   616  084F  3436               	retlw	54	;'6'
   617  0850  3430               	retlw	48	;'0'
   618  0851  3400               	retlw	0
   619  0852                     STR_164:
   620  0852  3431               	retlw	49	;'1'
   621  0853  3436               	retlw	54	;'6'
   622  0854  3430               	retlw	48	;'0'
   623  0855  3400               	retlw	0
   624  0856                     STR_74:
   625  0856  3430               	retlw	48	;'0'
   626  0857  3437               	retlw	55	;'7'
   627  0858  3430               	retlw	48	;'0'
   628  0859  3400               	retlw	0
   629  085A                     STR_174:
   630  085A  3431               	retlw	49	;'1'
   631  085B  3437               	retlw	55	;'7'
   632  085C  3430               	retlw	48	;'0'
   633  085D  3400               	retlw	0
   634  085E                     STR_84:
   635  085E  3430               	retlw	48	;'0'
   636  085F  3438               	retlw	56	;'8'
   637  0860  3430               	retlw	48	;'0'
   638  0861  3400               	retlw	0
   639  0862                     STR_184:
   640  0862  3431               	retlw	49	;'1'
   641  0863  3438               	retlw	56	;'8'
   642  0864  3430               	retlw	48	;'0'
   643  0865  3400               	retlw	0
   644  0866                     STR_94:
   645  0866  3430               	retlw	48	;'0'
   646  0867  3439               	retlw	57	;'9'
   647  0868  3430               	retlw	48	;'0'
   648  0869  3400               	retlw	0
   649  086A                     STR_194:
   650  086A  3431               	retlw	49	;'1'
   651  086B  3439               	retlw	57	;'9'
   652  086C  3430               	retlw	48	;'0'
   653  086D  3400               	retlw	0
   654  086E                     STR_5:
   655  086E  3430               	retlw	48	;'0'
   656  086F  3430               	retlw	48	;'0'
   657  0870  3431               	retlw	49	;'1'
   658  0871  3400               	retlw	0
   659  0872                     STR_105:
   660  0872  3431               	retlw	49	;'1'
   661  0873  3430               	retlw	48	;'0'
   662  0874  3431               	retlw	49	;'1'
   663  0875  3400               	retlw	0
   664  0876                     STR_205:
   665  0876  3432               	retlw	50	;'2'
   666  0877  3430               	retlw	48	;'0'
   667  0878  3431               	retlw	49	;'1'
   668  0879  3400               	retlw	0
   669  087A                     STR_15:
   670  087A  3430               	retlw	48	;'0'
   671  087B  3431               	retlw	49	;'1'
   672  087C  3431               	retlw	49	;'1'
   673  087D  3400               	retlw	0
   674  087E                     STR_115:
   675  087E  3431               	retlw	49	;'1'
   676  087F  3431               	retlw	49	;'1'
   677  0880  3431               	retlw	49	;'1'
   678  0881  3400               	retlw	0
   679  0882                     STR_215:
   680  0882  3432               	retlw	50	;'2'
   681  0883  3431               	retlw	49	;'1'
   682  0884  3431               	retlw	49	;'1'
   683  0885  3400               	retlw	0
   684  0886                     STR_25:
   685  0886  3430               	retlw	48	;'0'
   686  0887  3432               	retlw	50	;'2'
   687  0888  3431               	retlw	49	;'1'
   688  0889  3400               	retlw	0
   689  088A                     STR_125:
   690  088A  3431               	retlw	49	;'1'
   691  088B  3432               	retlw	50	;'2'
   692  088C  3431               	retlw	49	;'1'
   693  088D  3400               	retlw	0
   694  088E                     STR_225:
   695  088E  3432               	retlw	50	;'2'
   696  088F  3432               	retlw	50	;'2'
   697  0890  3431               	retlw	49	;'1'
   698  0891  3400               	retlw	0
   699  0892                     STR_35:
   700  0892  3430               	retlw	48	;'0'
   701  0893  3433               	retlw	51	;'3'
   702  0894  3431               	retlw	49	;'1'
   703  0895  3400               	retlw	0
   704  0896                     STR_135:
   705  0896  3431               	retlw	49	;'1'
   706  0897  3433               	retlw	51	;'3'
   707  0898  3431               	retlw	49	;'1'
   708  0899  3400               	retlw	0
   709  089A                     STR_235:
   710  089A  3432               	retlw	50	;'2'
   711  089B  3433               	retlw	51	;'3'
   712  089C  3431               	retlw	49	;'1'
   713  089D  3400               	retlw	0
   714  089E                     STR_45:
   715  089E  3430               	retlw	48	;'0'
   716  089F  3434               	retlw	52	;'4'
   717  08A0  3431               	retlw	49	;'1'
   718  08A1  3400               	retlw	0
   719  08A2                     STR_145:
   720  08A2  3431               	retlw	49	;'1'
   721  08A3  3434               	retlw	52	;'4'
   722  08A4  3431               	retlw	49	;'1'
   723  08A5  3400               	retlw	0
   724  08A6                     STR_245:
   725  08A6  3432               	retlw	50	;'2'
   726  08A7  3434               	retlw	52	;'4'
   727  08A8  3431               	retlw	49	;'1'
   728  08A9  3400               	retlw	0
   729  08AA                     STR_55:
   730  08AA  3430               	retlw	48	;'0'
   731  08AB  3435               	retlw	53	;'5'
   732  08AC  3431               	retlw	49	;'1'
   733  08AD  3400               	retlw	0
   734  08AE                     STR_155:
   735  08AE  3431               	retlw	49	;'1'
   736  08AF  3435               	retlw	53	;'5'
   737  08B0  3431               	retlw	49	;'1'
   738  08B1  3400               	retlw	0
   739  08B2                     STR_255:
   740  08B2  3432               	retlw	50	;'2'
   741  08B3  3435               	retlw	53	;'5'
   742  08B4  3431               	retlw	49	;'1'
   743  08B5  3400               	retlw	0
   744  08B6                     STR_65:
   745  08B6  3430               	retlw	48	;'0'
   746  08B7  3436               	retlw	54	;'6'
   747  08B8  3431               	retlw	49	;'1'
   748  08B9  3400               	retlw	0
   749  08BA                     STR_165:
   750  08BA  3431               	retlw	49	;'1'
   751  08BB  3436               	retlw	54	;'6'
   752  08BC  3431               	retlw	49	;'1'
   753  08BD  3400               	retlw	0
   754  08BE                     STR_75:
   755  08BE  3430               	retlw	48	;'0'
   756  08BF  3437               	retlw	55	;'7'
   757  08C0  3431               	retlw	49	;'1'
   758  08C1  3400               	retlw	0
   759  08C2                     STR_175:
   760  08C2  3431               	retlw	49	;'1'
   761  08C3  3437               	retlw	55	;'7'
   762  08C4  3431               	retlw	49	;'1'
   763  08C5  3400               	retlw	0
   764  08C6                     STR_85:
   765  08C6  3430               	retlw	48	;'0'
   766  08C7  3438               	retlw	56	;'8'
   767  08C8  3431               	retlw	49	;'1'
   768  08C9  3400               	retlw	0
   769  08CA                     STR_185:
   770  08CA  3431               	retlw	49	;'1'
   771  08CB  3438               	retlw	56	;'8'
   772  08CC  3431               	retlw	49	;'1'
   773  08CD  3400               	retlw	0
   774  08CE                     STR_95:
   775  08CE  3430               	retlw	48	;'0'
   776  08CF  3439               	retlw	57	;'9'
   777  08D0  3431               	retlw	49	;'1'
   778  08D1  3400               	retlw	0
   779  08D2                     STR_195:
   780  08D2  3431               	retlw	49	;'1'
   781  08D3  3439               	retlw	57	;'9'
   782  08D4  3431               	retlw	49	;'1'
   783  08D5  3400               	retlw	0
   784  08D6                     STR_6:
   785  08D6  3430               	retlw	48	;'0'
   786  08D7  3430               	retlw	48	;'0'
   787  08D8  3432               	retlw	50	;'2'
   788  08D9  3400               	retlw	0
   789  08DA                     STR_106:
   790  08DA  3431               	retlw	49	;'1'
   791  08DB  3430               	retlw	48	;'0'
   792  08DC  3432               	retlw	50	;'2'
   793  08DD  3400               	retlw	0
   794  08DE                     STR_206:
   795  08DE  3432               	retlw	50	;'2'
   796  08DF  3430               	retlw	48	;'0'
   797  08E0  3432               	retlw	50	;'2'
   798  08E1  3400               	retlw	0
   799  08E2                     STR_16:
   800  08E2  3430               	retlw	48	;'0'
   801  08E3  3431               	retlw	49	;'1'
   802  08E4  3432               	retlw	50	;'2'
   803  08E5  3400               	retlw	0
   804  08E6                     STR_116:
   805  08E6  3431               	retlw	49	;'1'
   806  08E7  3431               	retlw	49	;'1'
   807  08E8  3432               	retlw	50	;'2'
   808  08E9  3400               	retlw	0
   809  08EA                     STR_216:
   810  08EA  3432               	retlw	50	;'2'
   811  08EB  3431               	retlw	49	;'1'
   812  08EC  3432               	retlw	50	;'2'
   813  08ED  3400               	retlw	0
   814  08EE                     STR_26:
   815  08EE  3430               	retlw	48	;'0'
   816  08EF  3432               	retlw	50	;'2'
   817  08F0  3432               	retlw	50	;'2'
   818  08F1  3400               	retlw	0
   819  08F2                     STR_126:
   820  08F2  3431               	retlw	49	;'1'
   821  08F3  3432               	retlw	50	;'2'
   822  08F4  3432               	retlw	50	;'2'
   823  08F5  3400               	retlw	0
   824  08F6                     STR_226:
   825  08F6  3432               	retlw	50	;'2'
   826  08F7  3432               	retlw	50	;'2'
   827  08F8  3432               	retlw	50	;'2'
   828  08F9  3400               	retlw	0
   829  08FA                     STR_36:
   830  08FA  3430               	retlw	48	;'0'
   831  08FB  3433               	retlw	51	;'3'
   832  08FC  3432               	retlw	50	;'2'
   833  08FD  3400               	retlw	0
   834  08FE                     STR_136:
   835  08FE  3431               	retlw	49	;'1'
   836  08FF  3433               	retlw	51	;'3'
   837  0900  3432               	retlw	50	;'2'
   838  0901  3400               	retlw	0
   839  0902                     STR_236:
   840  0902  3432               	retlw	50	;'2'
   841  0903  3433               	retlw	51	;'3'
   842  0904  3432               	retlw	50	;'2'
   843  0905  3400               	retlw	0
   844  0906                     STR_46:
   845  0906  3430               	retlw	48	;'0'
   846  0907  3434               	retlw	52	;'4'
   847  0908  3432               	retlw	50	;'2'
   848  0909  3400               	retlw	0
   849  090A                     STR_146:
   850  090A  3431               	retlw	49	;'1'
   851  090B  3434               	retlw	52	;'4'
   852  090C  3432               	retlw	50	;'2'
   853  090D  3400               	retlw	0
   854  090E                     STR_246:
   855  090E  3432               	retlw	50	;'2'
   856  090F  3434               	retlw	52	;'4'
   857  0910  3432               	retlw	50	;'2'
   858  0911  3400               	retlw	0
   859  0912                     STR_56:
   860  0912  3430               	retlw	48	;'0'
   861  0913  3435               	retlw	53	;'5'
   862  0914  3432               	retlw	50	;'2'
   863  0915  3400               	retlw	0
   864  0916                     STR_256:
   865  0916  3432               	retlw	50	;'2'
   866  0917  3435               	retlw	53	;'5'
   867  0918  3432               	retlw	50	;'2'
   868  0919  3400               	retlw	0
   869  091A                     STR_66:
   870  091A  3430               	retlw	48	;'0'
   871  091B  3436               	retlw	54	;'6'
   872  091C  3432               	retlw	50	;'2'
   873  091D  3400               	retlw	0
   874  091E                     STR_166:
   875  091E  3431               	retlw	49	;'1'
   876  091F  3436               	retlw	54	;'6'
   877  0920  3432               	retlw	50	;'2'
   878  0921  3400               	retlw	0
   879  0922                     STR_76:
   880  0922  3430               	retlw	48	;'0'
   881  0923  3437               	retlw	55	;'7'
   882  0924  3432               	retlw	50	;'2'
   883  0925  3400               	retlw	0
   884  0926                     STR_176:
   885  0926  3431               	retlw	49	;'1'
   886  0927  3437               	retlw	55	;'7'
   887  0928  3432               	retlw	50	;'2'
   888  0929  3400               	retlw	0
   889  092A                     STR_86:
   890  092A  3430               	retlw	48	;'0'
   891  092B  3438               	retlw	56	;'8'
   892  092C  3432               	retlw	50	;'2'
   893  092D  3400               	retlw	0
   894  092E                     STR_186:
   895  092E  3431               	retlw	49	;'1'
   896  092F  3438               	retlw	56	;'8'
   897  0930  3432               	retlw	50	;'2'
   898  0931  3400               	retlw	0
   899  0932                     STR_96:
   900  0932  3430               	retlw	48	;'0'
   901  0933  3439               	retlw	57	;'9'
   902  0934  3432               	retlw	50	;'2'
   903  0935  3400               	retlw	0
   904  0936                     STR_196:
   905  0936  3431               	retlw	49	;'1'
   906  0937  3439               	retlw	57	;'9'
   907  0938  3432               	retlw	50	;'2'
   908  0939  3400               	retlw	0
   909  093A                     STR_7:
   910  093A  3430               	retlw	48	;'0'
   911  093B  3430               	retlw	48	;'0'
   912  093C  3433               	retlw	51	;'3'
   913  093D  3400               	retlw	0
   914  093E                     STR_107:
   915  093E  3431               	retlw	49	;'1'
   916  093F  3430               	retlw	48	;'0'
   917  0940  3433               	retlw	51	;'3'
   918  0941  3400               	retlw	0
   919  0942                     STR_207:
   920  0942  3432               	retlw	50	;'2'
   921  0943  3430               	retlw	48	;'0'
   922  0944  3433               	retlw	51	;'3'
   923  0945  3400               	retlw	0
   924  0946                     STR_17:
   925  0946  3430               	retlw	48	;'0'
   926  0947  3431               	retlw	49	;'1'
   927  0948  3433               	retlw	51	;'3'
   928  0949  3400               	retlw	0
   929  094A                     STR_117:
   930  094A  3431               	retlw	49	;'1'
   931  094B  3431               	retlw	49	;'1'
   932  094C  3433               	retlw	51	;'3'
   933  094D  3400               	retlw	0
   934  094E                     STR_217:
   935  094E  3432               	retlw	50	;'2'
   936  094F  3431               	retlw	49	;'1'
   937  0950  3433               	retlw	51	;'3'
   938  0951  3400               	retlw	0
   939  0952                     STR_27:
   940  0952  3430               	retlw	48	;'0'
   941  0953  3432               	retlw	50	;'2'
   942  0954  3433               	retlw	51	;'3'
   943  0955  3400               	retlw	0
   944  0956                     STR_127:
   945  0956  3431               	retlw	49	;'1'
   946  0957  3432               	retlw	50	;'2'
   947  0958  3433               	retlw	51	;'3'
   948  0959  3400               	retlw	0
   949  095A                     STR_227:
   950  095A  3432               	retlw	50	;'2'
   951  095B  3432               	retlw	50	;'2'
   952  095C  3433               	retlw	51	;'3'
   953  095D  3400               	retlw	0
   954  095E                     STR_37:
   955  095E  3430               	retlw	48	;'0'
   956  095F  3433               	retlw	51	;'3'
   957  0960  3433               	retlw	51	;'3'
   958  0961  3400               	retlw	0
   959  0962                     STR_137:
   960  0962  3431               	retlw	49	;'1'
   961  0963  3433               	retlw	51	;'3'
   962  0964  3433               	retlw	51	;'3'
   963  0965  3400               	retlw	0
   964  0966                     STR_237:
   965  0966  3432               	retlw	50	;'2'
   966  0967  3433               	retlw	51	;'3'
   967  0968  3433               	retlw	51	;'3'
   968  0969  3400               	retlw	0
   969  096A                     STR_47:
   970  096A  3430               	retlw	48	;'0'
   971  096B  3434               	retlw	52	;'4'
   972  096C  3433               	retlw	51	;'3'
   973  096D  3400               	retlw	0
   974  096E                     STR_147:
   975  096E  3431               	retlw	49	;'1'
   976  096F  3434               	retlw	52	;'4'
   977  0970  3433               	retlw	51	;'3'
   978  0971  3400               	retlw	0
   979  0972                     STR_247:
   980  0972  3432               	retlw	50	;'2'
   981  0973  3434               	retlw	52	;'4'
   982  0974  3433               	retlw	51	;'3'
   983  0975  3400               	retlw	0
   984  0976                     STR_57:
   985  0976  3430               	retlw	48	;'0'
   986  0977  3435               	retlw	53	;'5'
   987  0978  3433               	retlw	51	;'3'
   988  0979  3400               	retlw	0
   989  097A                     STR_257:
   990  097A  3432               	retlw	50	;'2'
   991  097B  3435               	retlw	53	;'5'
   992  097C  3433               	retlw	51	;'3'
   993  097D  3400               	retlw	0
   994  097E                     STR_67:
   995  097E  3430               	retlw	48	;'0'
   996  097F  3436               	retlw	54	;'6'
   997  0980  3433               	retlw	51	;'3'
   998  0981  3400               	retlw	0
   999  0982                     STR_167:
  1000  0982  3431               	retlw	49	;'1'
  1001  0983  3436               	retlw	54	;'6'
  1002  0984  3433               	retlw	51	;'3'
  1003  0985  3400               	retlw	0
  1004  0986                     STR_77:
  1005  0986  3430               	retlw	48	;'0'
  1006  0987  3437               	retlw	55	;'7'
  1007  0988  3433               	retlw	51	;'3'
  1008  0989  3400               	retlw	0
  1009  098A                     STR_177:
  1010  098A  3431               	retlw	49	;'1'
  1011  098B  3437               	retlw	55	;'7'
  1012  098C  3433               	retlw	51	;'3'
  1013  098D  3400               	retlw	0
  1014  098E                     STR_87:
  1015  098E  3430               	retlw	48	;'0'
  1016  098F  3438               	retlw	56	;'8'
  1017  0990  3433               	retlw	51	;'3'
  1018  0991  3400               	retlw	0
  1019  0992                     STR_187:
  1020  0992  3431               	retlw	49	;'1'
  1021  0993  3438               	retlw	56	;'8'
  1022  0994  3433               	retlw	51	;'3'
  1023  0995  3400               	retlw	0
  1024  0996                     STR_97:
  1025  0996  3430               	retlw	48	;'0'
  1026  0997  3439               	retlw	57	;'9'
  1027  0998  3433               	retlw	51	;'3'
  1028  0999  3400               	retlw	0
  1029  099A                     STR_197:
  1030  099A  3431               	retlw	49	;'1'
  1031  099B  3439               	retlw	57	;'9'
  1032  099C  3433               	retlw	51	;'3'
  1033  099D  3400               	retlw	0
  1034  099E                     STR_8:
  1035  099E  3430               	retlw	48	;'0'
  1036  099F  3430               	retlw	48	;'0'
  1037  09A0  3434               	retlw	52	;'4'
  1038  09A1  3400               	retlw	0
  1039  09A2                     STR_108:
  1040  09A2  3431               	retlw	49	;'1'
  1041  09A3  3430               	retlw	48	;'0'
  1042  09A4  3434               	retlw	52	;'4'
  1043  09A5  3400               	retlw	0
  1044  09A6                     STR_208:
  1045  09A6  3432               	retlw	50	;'2'
  1046  09A7  3430               	retlw	48	;'0'
  1047  09A8  3434               	retlw	52	;'4'
  1048  09A9  3400               	retlw	0
  1049  09AA                     STR_18:
  1050  09AA  3430               	retlw	48	;'0'
  1051  09AB  3431               	retlw	49	;'1'
  1052  09AC  3434               	retlw	52	;'4'
  1053  09AD  3400               	retlw	0
  1054  09AE                     STR_118:
  1055  09AE  3431               	retlw	49	;'1'
  1056  09AF  3431               	retlw	49	;'1'
  1057  09B0  3434               	retlw	52	;'4'
  1058  09B1  3400               	retlw	0
  1059  09B2                     STR_218:
  1060  09B2  3432               	retlw	50	;'2'
  1061  09B3  3431               	retlw	49	;'1'
  1062  09B4  3434               	retlw	52	;'4'
  1063  09B5  3400               	retlw	0
  1064  09B6                     STR_28:
  1065  09B6  3430               	retlw	48	;'0'
  1066  09B7  3432               	retlw	50	;'2'
  1067  09B8  3434               	retlw	52	;'4'
  1068  09B9  3400               	retlw	0
  1069  09BA                     STR_128:
  1070  09BA  3431               	retlw	49	;'1'
  1071  09BB  3432               	retlw	50	;'2'
  1072  09BC  3434               	retlw	52	;'4'
  1073  09BD  3400               	retlw	0
  1074  09BE                     STR_228:
  1075  09BE  3432               	retlw	50	;'2'
  1076  09BF  3432               	retlw	50	;'2'
  1077  09C0  3434               	retlw	52	;'4'
  1078  09C1  3400               	retlw	0
  1079  09C2                     STR_38:
  1080  09C2  3430               	retlw	48	;'0'
  1081  09C3  3433               	retlw	51	;'3'
  1082  09C4  3434               	retlw	52	;'4'
  1083  09C5  3400               	retlw	0
  1084  09C6                     STR_138:
  1085  09C6  3431               	retlw	49	;'1'
  1086  09C7  3433               	retlw	51	;'3'
  1087  09C8  3434               	retlw	52	;'4'
  1088  09C9  3400               	retlw	0
  1089  09CA                     STR_238:
  1090  09CA  3432               	retlw	50	;'2'
  1091  09CB  3433               	retlw	51	;'3'
  1092  09CC  3434               	retlw	52	;'4'
  1093  09CD  3400               	retlw	0
  1094  09CE                     STR_48:
  1095  09CE  3430               	retlw	48	;'0'
  1096  09CF  3434               	retlw	52	;'4'
  1097  09D0  3434               	retlw	52	;'4'
  1098  09D1  3400               	retlw	0
  1099  09D2                     STR_148:
  1100  09D2  3431               	retlw	49	;'1'
  1101  09D3  3434               	retlw	52	;'4'
  1102  09D4  3434               	retlw	52	;'4'
  1103  09D5  3400               	retlw	0
  1104  09D6                     STR_248:
  1105  09D6  3432               	retlw	50	;'2'
  1106  09D7  3434               	retlw	52	;'4'
  1107  09D8  3434               	retlw	52	;'4'
  1108  09D9  3400               	retlw	0
  1109  09DA                     STR_58:
  1110  09DA  3430               	retlw	48	;'0'
  1111  09DB  3435               	retlw	53	;'5'
  1112  09DC  3434               	retlw	52	;'4'
  1113  09DD  3400               	retlw	0
  1114  09DE                     STR_158:
  1115  09DE  3431               	retlw	49	;'1'
  1116  09DF  3435               	retlw	53	;'5'
  1117  09E0  3434               	retlw	52	;'4'
  1118  09E1  3400               	retlw	0
  1119  09E2                     STR_258:
  1120  09E2  3432               	retlw	50	;'2'
  1121  09E3  3435               	retlw	53	;'5'
  1122  09E4  3434               	retlw	52	;'4'
  1123  09E5  3400               	retlw	0
  1124  09E6                     STR_68:
  1125  09E6  3430               	retlw	48	;'0'
  1126  09E7  3436               	retlw	54	;'6'
  1127  09E8  3434               	retlw	52	;'4'
  1128  09E9  3400               	retlw	0
  1129  09EA                     STR_168:
  1130  09EA  3431               	retlw	49	;'1'
  1131  09EB  3436               	retlw	54	;'6'
  1132  09EC  3434               	retlw	52	;'4'
  1133  09ED  3400               	retlw	0
  1134  09EE                     STR_78:
  1135  09EE  3430               	retlw	48	;'0'
  1136  09EF  3437               	retlw	55	;'7'
  1137  09F0  3434               	retlw	52	;'4'
  1138  09F1  3400               	retlw	0
  1139  09F2                     STR_178:
  1140  09F2  3431               	retlw	49	;'1'
  1141  09F3  3437               	retlw	55	;'7'
  1142  09F4  3434               	retlw	52	;'4'
  1143  09F5  3400               	retlw	0
  1144  09F6                     STR_88:
  1145  09F6  3430               	retlw	48	;'0'
  1146  09F7  3438               	retlw	56	;'8'
  1147  09F8  3434               	retlw	52	;'4'
  1148  09F9  3400               	retlw	0
  1149  09FA                     STR_188:
  1150  09FA  3431               	retlw	49	;'1'
  1151  09FB  3438               	retlw	56	;'8'
  1152  09FC  3434               	retlw	52	;'4'
  1153  09FD  3400               	retlw	0
  1154  09FE                     STR_98:
  1155  09FE  3430               	retlw	48	;'0'
  1156  09FF  3439               	retlw	57	;'9'
  1157  0A00  3434               	retlw	52	;'4'
  1158  0A01  3400               	retlw	0
  1159  0A02                     STR_198:
  1160  0A02  3431               	retlw	49	;'1'
  1161  0A03  3439               	retlw	57	;'9'
  1162  0A04  3434               	retlw	52	;'4'
  1163  0A05  3400               	retlw	0
  1164  0A06                     STR_9:
  1165  0A06  3430               	retlw	48	;'0'
  1166  0A07  3430               	retlw	48	;'0'
  1167  0A08  3435               	retlw	53	;'5'
  1168  0A09  3400               	retlw	0
  1169  0A0A                     STR_109:
  1170  0A0A  3431               	retlw	49	;'1'
  1171  0A0B  3430               	retlw	48	;'0'
  1172  0A0C  3435               	retlw	53	;'5'
  1173  0A0D  3400               	retlw	0
  1174  0A0E                     STR_209:
  1175  0A0E  3432               	retlw	50	;'2'
  1176  0A0F  3430               	retlw	48	;'0'
  1177  0A10  3435               	retlw	53	;'5'
  1178  0A11  3400               	retlw	0
  1179  0A12                     STR_19:
  1180  0A12  3430               	retlw	48	;'0'
  1181  0A13  3431               	retlw	49	;'1'
  1182  0A14  3435               	retlw	53	;'5'
  1183  0A15  3400               	retlw	0
  1184  0A16                     STR_119:
  1185  0A16  3431               	retlw	49	;'1'
  1186  0A17  3431               	retlw	49	;'1'
  1187  0A18  3435               	retlw	53	;'5'
  1188  0A19  3400               	retlw	0
  1189  0A1A                     STR_219:
  1190  0A1A  3432               	retlw	50	;'2'
  1191  0A1B  3431               	retlw	49	;'1'
  1192  0A1C  3435               	retlw	53	;'5'
  1193  0A1D  3400               	retlw	0
  1194  0A1E                     STR_29:
  1195  0A1E  3430               	retlw	48	;'0'
  1196  0A1F  3432               	retlw	50	;'2'
  1197  0A20  3435               	retlw	53	;'5'
  1198  0A21  3400               	retlw	0
  1199  0A22                     STR_129:
  1200  0A22  3431               	retlw	49	;'1'
  1201  0A23  3432               	retlw	50	;'2'
  1202  0A24  3435               	retlw	53	;'5'
  1203  0A25  3400               	retlw	0
  1204  0A26                     STR_229:
  1205  0A26  3432               	retlw	50	;'2'
  1206  0A27  3432               	retlw	50	;'2'
  1207  0A28  3435               	retlw	53	;'5'
  1208  0A29  3400               	retlw	0
  1209  0A2A                     STR_39:
  1210  0A2A  3430               	retlw	48	;'0'
  1211  0A2B  3433               	retlw	51	;'3'
  1212  0A2C  3435               	retlw	53	;'5'
  1213  0A2D  3400               	retlw	0
  1214  0A2E                     STR_139:
  1215  0A2E  3431               	retlw	49	;'1'
  1216  0A2F  3433               	retlw	51	;'3'
  1217  0A30  3435               	retlw	53	;'5'
  1218  0A31  3400               	retlw	0
  1219  0A32                     STR_239:
  1220  0A32  3432               	retlw	50	;'2'
  1221  0A33  3433               	retlw	51	;'3'
  1222  0A34  3435               	retlw	53	;'5'
  1223  0A35  3400               	retlw	0
  1224  0A36                     STR_49:
  1225  0A36  3430               	retlw	48	;'0'
  1226  0A37  3434               	retlw	52	;'4'
  1227  0A38  3435               	retlw	53	;'5'
  1228  0A39  3400               	retlw	0
  1229  0A3A                     STR_149:
  1230  0A3A  3431               	retlw	49	;'1'
  1231  0A3B  3434               	retlw	52	;'4'
  1232  0A3C  3435               	retlw	53	;'5'
  1233  0A3D  3400               	retlw	0
  1234  0A3E                     STR_249:
  1235  0A3E  3432               	retlw	50	;'2'
  1236  0A3F  3434               	retlw	52	;'4'
  1237  0A40  3435               	retlw	53	;'5'
  1238  0A41  3400               	retlw	0
  1239  0A42                     STR_59:
  1240  0A42  3430               	retlw	48	;'0'
  1241  0A43  3435               	retlw	53	;'5'
  1242  0A44  3435               	retlw	53	;'5'
  1243  0A45  3400               	retlw	0
  1244  0A46                     STR_159:
  1245  0A46  3431               	retlw	49	;'1'
  1246  0A47  3435               	retlw	53	;'5'
  1247  0A48  3435               	retlw	53	;'5'
  1248  0A49  3400               	retlw	0
  1249  0A4A                     STR_259:
  1250  0A4A  3432               	retlw	50	;'2'
  1251  0A4B  3435               	retlw	53	;'5'
  1252  0A4C  3435               	retlw	53	;'5'
  1253  0A4D  3400               	retlw	0
  1254  0A4E                     STR_69:
  1255  0A4E  3430               	retlw	48	;'0'
  1256  0A4F  3436               	retlw	54	;'6'
  1257  0A50  3435               	retlw	53	;'5'
  1258  0A51  3400               	retlw	0
  1259  0A52                     STR_169:
  1260  0A52  3431               	retlw	49	;'1'
  1261  0A53  3436               	retlw	54	;'6'
  1262  0A54  3435               	retlw	53	;'5'
  1263  0A55  3400               	retlw	0
  1264  0A56                     STR_79:
  1265  0A56  3430               	retlw	48	;'0'
  1266  0A57  3437               	retlw	55	;'7'
  1267  0A58  3435               	retlw	53	;'5'
  1268  0A59  3400               	retlw	0
  1269  0A5A                     STR_179:
  1270  0A5A  3431               	retlw	49	;'1'
  1271  0A5B  3437               	retlw	55	;'7'
  1272  0A5C  3435               	retlw	53	;'5'
  1273  0A5D  3400               	retlw	0
  1274  0A5E                     STR_89:
  1275  0A5E  3430               	retlw	48	;'0'
  1276  0A5F  3438               	retlw	56	;'8'
  1277  0A60  3435               	retlw	53	;'5'
  1278  0A61  3400               	retlw	0
  1279  0A62                     STR_189:
  1280  0A62  3431               	retlw	49	;'1'
  1281  0A63  3438               	retlw	56	;'8'
  1282  0A64  3435               	retlw	53	;'5'
  1283  0A65  3400               	retlw	0
  1284  0A66                     STR_99:
  1285  0A66  3430               	retlw	48	;'0'
  1286  0A67  3439               	retlw	57	;'9'
  1287  0A68  3435               	retlw	53	;'5'
  1288  0A69  3400               	retlw	0
  1289  0A6A                     STR_199:
  1290  0A6A  3431               	retlw	49	;'1'
  1291  0A6B  3439               	retlw	57	;'9'
  1292  0A6C  3435               	retlw	53	;'5'
  1293  0A6D  3400               	retlw	0
  1294  0A6E                     STR_10:
  1295  0A6E  3430               	retlw	48	;'0'
  1296  0A6F  3430               	retlw	48	;'0'
  1297  0A70  3436               	retlw	54	;'6'
  1298  0A71  3400               	retlw	0
  1299  0A72                     STR_110:
  1300  0A72  3431               	retlw	49	;'1'
  1301  0A73  3430               	retlw	48	;'0'
  1302  0A74  3436               	retlw	54	;'6'
  1303  0A75  3400               	retlw	0
  1304  0A76                     STR_210:
  1305  0A76  3432               	retlw	50	;'2'
  1306  0A77  3430               	retlw	48	;'0'
  1307  0A78  3436               	retlw	54	;'6'
  1308  0A79  3400               	retlw	0
  1309  0A7A                     STR_20:
  1310  0A7A  3430               	retlw	48	;'0'
  1311  0A7B  3431               	retlw	49	;'1'
  1312  0A7C  3436               	retlw	54	;'6'
  1313  0A7D  3400               	retlw	0
  1314  0A7E                     STR_120:
  1315  0A7E  3431               	retlw	49	;'1'
  1316  0A7F  3431               	retlw	49	;'1'
  1317  0A80  3436               	retlw	54	;'6'
  1318  0A81  3400               	retlw	0
  1319  0A82                     STR_220:
  1320  0A82  3432               	retlw	50	;'2'
  1321  0A83  3431               	retlw	49	;'1'
  1322  0A84  3436               	retlw	54	;'6'
  1323  0A85  3400               	retlw	0
  1324  0A86                     STR_30:
  1325  0A86  3430               	retlw	48	;'0'
  1326  0A87  3432               	retlw	50	;'2'
  1327  0A88  3436               	retlw	54	;'6'
  1328  0A89  3400               	retlw	0
  1329  0A8A                     STR_130:
  1330  0A8A  3431               	retlw	49	;'1'
  1331  0A8B  3432               	retlw	50	;'2'
  1332  0A8C  3436               	retlw	54	;'6'
  1333  0A8D  3400               	retlw	0
  1334  0A8E                     STR_230:
  1335  0A8E  3432               	retlw	50	;'2'
  1336  0A8F  3432               	retlw	50	;'2'
  1337  0A90  3436               	retlw	54	;'6'
  1338  0A91  3400               	retlw	0
  1339  0A92                     STR_40:
  1340  0A92  3430               	retlw	48	;'0'
  1341  0A93  3433               	retlw	51	;'3'
  1342  0A94  3436               	retlw	54	;'6'
  1343  0A95  3400               	retlw	0
  1344  0A96                     STR_140:
  1345  0A96  3431               	retlw	49	;'1'
  1346  0A97  3433               	retlw	51	;'3'
  1347  0A98  3436               	retlw	54	;'6'
  1348  0A99  3400               	retlw	0
  1349  0A9A                     STR_240:
  1350  0A9A  3432               	retlw	50	;'2'
  1351  0A9B  3433               	retlw	51	;'3'
  1352  0A9C  3436               	retlw	54	;'6'
  1353  0A9D  3400               	retlw	0
  1354  0A9E                     STR_50:
  1355  0A9E  3430               	retlw	48	;'0'
  1356  0A9F  3434               	retlw	52	;'4'
  1357  0AA0  3436               	retlw	54	;'6'
  1358  0AA1  3400               	retlw	0
  1359  0AA2                     STR_150:
  1360  0AA2  3431               	retlw	49	;'1'
  1361  0AA3  3434               	retlw	52	;'4'
  1362  0AA4  3436               	retlw	54	;'6'
  1363  0AA5  3400               	retlw	0
  1364  0AA6                     STR_250:
  1365  0AA6  3432               	retlw	50	;'2'
  1366  0AA7  3434               	retlw	52	;'4'
  1367  0AA8  3436               	retlw	54	;'6'
  1368  0AA9  3400               	retlw	0
  1369  0AAA                     STR_60:
  1370  0AAA  3430               	retlw	48	;'0'
  1371  0AAB  3435               	retlw	53	;'5'
  1372  0AAC  3436               	retlw	54	;'6'
  1373  0AAD  3400               	retlw	0
  1374  0AAE                     STR_160:
  1375  0AAE  3431               	retlw	49	;'1'
  1376  0AAF  3435               	retlw	53	;'5'
  1377  0AB0  3436               	retlw	54	;'6'
  1378  0AB1  3400               	retlw	0
  1379  0AB2                     STR_70:
  1380  0AB2  3430               	retlw	48	;'0'
  1381  0AB3  3436               	retlw	54	;'6'
  1382  0AB4  3436               	retlw	54	;'6'
  1383  0AB5  3400               	retlw	0
  1384  0AB6                     STR_170:
  1385  0AB6  3431               	retlw	49	;'1'
  1386  0AB7  3436               	retlw	54	;'6'
  1387  0AB8  3436               	retlw	54	;'6'
  1388  0AB9  3400               	retlw	0
  1389  0ABA                     STR_80:
  1390  0ABA  3430               	retlw	48	;'0'
  1391  0ABB  3437               	retlw	55	;'7'
  1392  0ABC  3436               	retlw	54	;'6'
  1393  0ABD  3400               	retlw	0
  1394  0ABE                     STR_180:
  1395  0ABE  3431               	retlw	49	;'1'
  1396  0ABF  3437               	retlw	55	;'7'
  1397  0AC0  3436               	retlw	54	;'6'
  1398  0AC1  3400               	retlw	0
  1399  0AC2                     STR_90:
  1400  0AC2  3430               	retlw	48	;'0'
  1401  0AC3  3438               	retlw	56	;'8'
  1402  0AC4  3436               	retlw	54	;'6'
  1403  0AC5  3400               	retlw	0
  1404  0AC6                     STR_190:
  1405  0AC6  3431               	retlw	49	;'1'
  1406  0AC7  3438               	retlw	56	;'8'
  1407  0AC8  3436               	retlw	54	;'6'
  1408  0AC9  3400               	retlw	0
  1409  0ACA                     STR_100:
  1410  0ACA  3430               	retlw	48	;'0'
  1411  0ACB  3439               	retlw	57	;'9'
  1412  0ACC  3436               	retlw	54	;'6'
  1413  0ACD  3400               	retlw	0
  1414  0ACE                     STR_200:
  1415  0ACE  3431               	retlw	49	;'1'
  1416  0ACF  3439               	retlw	57	;'9'
  1417  0AD0  3436               	retlw	54	;'6'
  1418  0AD1  3400               	retlw	0
  1419  0AD2                     STR_11:
  1420  0AD2  3430               	retlw	48	;'0'
  1421  0AD3  3430               	retlw	48	;'0'
  1422  0AD4  3437               	retlw	55	;'7'
  1423  0AD5  3400               	retlw	0
  1424  0AD6                     STR_111:
  1425  0AD6  3431               	retlw	49	;'1'
  1426  0AD7  3430               	retlw	48	;'0'
  1427  0AD8  3437               	retlw	55	;'7'
  1428  0AD9  3400               	retlw	0
  1429  0ADA                     STR_211:
  1430  0ADA  3432               	retlw	50	;'2'
  1431  0ADB  3430               	retlw	48	;'0'
  1432  0ADC  3437               	retlw	55	;'7'
  1433  0ADD  3400               	retlw	0
  1434  0ADE                     STR_21:
  1435  0ADE  3430               	retlw	48	;'0'
  1436  0ADF  3431               	retlw	49	;'1'
  1437  0AE0  3437               	retlw	55	;'7'
  1438  0AE1  3400               	retlw	0
  1439  0AE2                     STR_121:
  1440  0AE2  3431               	retlw	49	;'1'
  1441  0AE3  3431               	retlw	49	;'1'
  1442  0AE4  3437               	retlw	55	;'7'
  1443  0AE5  3400               	retlw	0
  1444  0AE6                     STR_221:
  1445  0AE6  3432               	retlw	50	;'2'
  1446  0AE7  3431               	retlw	49	;'1'
  1447  0AE8  3437               	retlw	55	;'7'
  1448  0AE9  3400               	retlw	0
  1449  0AEA                     STR_31:
  1450  0AEA  3430               	retlw	48	;'0'
  1451  0AEB  3432               	retlw	50	;'2'
  1452  0AEC  3437               	retlw	55	;'7'
  1453  0AED  3400               	retlw	0
  1454  0AEE                     STR_131:
  1455  0AEE  3431               	retlw	49	;'1'
  1456  0AEF  3432               	retlw	50	;'2'
  1457  0AF0  3437               	retlw	55	;'7'
  1458  0AF1  3400               	retlw	0
  1459  0AF2                     STR_231:
  1460  0AF2  3432               	retlw	50	;'2'
  1461  0AF3  3432               	retlw	50	;'2'
  1462  0AF4  3437               	retlw	55	;'7'
  1463  0AF5  3400               	retlw	0
  1464  0AF6                     STR_41:
  1465  0AF6  3430               	retlw	48	;'0'
  1466  0AF7  3433               	retlw	51	;'3'
  1467  0AF8  3437               	retlw	55	;'7'
  1468  0AF9  3400               	retlw	0
  1469  0AFA                     STR_141:
  1470  0AFA  3431               	retlw	49	;'1'
  1471  0AFB  3433               	retlw	51	;'3'
  1472  0AFC  3437               	retlw	55	;'7'
  1473  0AFD  3400               	retlw	0
  1474  0AFE                     STR_241:
  1475  0AFE  3432               	retlw	50	;'2'
  1476  0AFF  3433               	retlw	51	;'3'
  1477  0B00  3437               	retlw	55	;'7'
  1478  0B01  3400               	retlw	0
  1479  0B02                     STR_51:
  1480  0B02  3430               	retlw	48	;'0'
  1481  0B03  3434               	retlw	52	;'4'
  1482  0B04  3437               	retlw	55	;'7'
  1483  0B05  3400               	retlw	0
  1484  0B06                     STR_151:
  1485  0B06  3431               	retlw	49	;'1'
  1486  0B07  3434               	retlw	52	;'4'
  1487  0B08  3437               	retlw	55	;'7'
  1488  0B09  3400               	retlw	0
  1489  0B0A                     STR_251:
  1490  0B0A  3432               	retlw	50	;'2'
  1491  0B0B  3434               	retlw	52	;'4'
  1492  0B0C  3437               	retlw	55	;'7'
  1493  0B0D  3400               	retlw	0
  1494  0B0E                     STR_61:
  1495  0B0E  3430               	retlw	48	;'0'
  1496  0B0F  3435               	retlw	53	;'5'
  1497  0B10  3437               	retlw	55	;'7'
  1498  0B11  3400               	retlw	0
  1499  0B12                     STR_161:
  1500  0B12  3431               	retlw	49	;'1'
  1501  0B13  3435               	retlw	53	;'5'
  1502  0B14  3437               	retlw	55	;'7'
  1503  0B15  3400               	retlw	0
  1504  0B16                     STR_71:
  1505  0B16  3430               	retlw	48	;'0'
  1506  0B17  3436               	retlw	54	;'6'
  1507  0B18  3437               	retlw	55	;'7'
  1508  0B19  3400               	retlw	0
  1509  0B1A                     STR_171:
  1510  0B1A  3431               	retlw	49	;'1'
  1511  0B1B  3436               	retlw	54	;'6'
  1512  0B1C  3437               	retlw	55	;'7'
  1513  0B1D  3400               	retlw	0
  1514  0B1E                     STR_81:
  1515  0B1E  3430               	retlw	48	;'0'
  1516  0B1F  3437               	retlw	55	;'7'
  1517  0B20  3437               	retlw	55	;'7'
  1518  0B21  3400               	retlw	0
  1519  0B22                     STR_181:
  1520  0B22  3431               	retlw	49	;'1'
  1521  0B23  3437               	retlw	55	;'7'
  1522  0B24  3437               	retlw	55	;'7'
  1523  0B25  3400               	retlw	0
  1524  0B26                     STR_91:
  1525  0B26  3430               	retlw	48	;'0'
  1526  0B27  3438               	retlw	56	;'8'
  1527  0B28  3437               	retlw	55	;'7'
  1528  0B29  3400               	retlw	0
  1529  0B2A                     STR_191:
  1530  0B2A  3431               	retlw	49	;'1'
  1531  0B2B  3438               	retlw	56	;'8'
  1532  0B2C  3437               	retlw	55	;'7'
  1533  0B2D  3400               	retlw	0
  1534  0B2E                     STR_101:
  1535  0B2E  3430               	retlw	48	;'0'
  1536  0B2F  3439               	retlw	57	;'9'
  1537  0B30  3437               	retlw	55	;'7'
  1538  0B31  3400               	retlw	0
  1539  0B32                     STR_201:
  1540  0B32  3431               	retlw	49	;'1'
  1541  0B33  3439               	retlw	57	;'9'
  1542  0B34  3437               	retlw	55	;'7'
  1543  0B35  3400               	retlw	0
  1544  0B36                     STR_12:
  1545  0B36  3430               	retlw	48	;'0'
  1546  0B37  3430               	retlw	48	;'0'
  1547  0B38  3438               	retlw	56	;'8'
  1548  0B39  3400               	retlw	0
  1549  0B3A                     STR_112:
  1550  0B3A  3431               	retlw	49	;'1'
  1551  0B3B  3430               	retlw	48	;'0'
  1552  0B3C  3438               	retlw	56	;'8'
  1553  0B3D  3400               	retlw	0
  1554  0B3E                     STR_212:
  1555  0B3E  3432               	retlw	50	;'2'
  1556  0B3F  3430               	retlw	48	;'0'
  1557  0B40  3438               	retlw	56	;'8'
  1558  0B41  3400               	retlw	0
  1559  0B42                     STR_22:
  1560  0B42  3430               	retlw	48	;'0'
  1561  0B43  3431               	retlw	49	;'1'
  1562  0B44  3438               	retlw	56	;'8'
  1563  0B45  3400               	retlw	0
  1564  0B46                     STR_122:
  1565  0B46  3431               	retlw	49	;'1'
  1566  0B47  3431               	retlw	49	;'1'
  1567  0B48  3438               	retlw	56	;'8'
  1568  0B49  3400               	retlw	0
  1569  0B4A                     STR_222:
  1570  0B4A  3432               	retlw	50	;'2'
  1571  0B4B  3431               	retlw	49	;'1'
  1572  0B4C  3438               	retlw	56	;'8'
  1573  0B4D  3400               	retlw	0
  1574  0B4E                     STR_32:
  1575  0B4E  3430               	retlw	48	;'0'
  1576  0B4F  3432               	retlw	50	;'2'
  1577  0B50  3438               	retlw	56	;'8'
  1578  0B51  3400               	retlw	0
  1579  0B52                     STR_132:
  1580  0B52  3431               	retlw	49	;'1'
  1581  0B53  3432               	retlw	50	;'2'
  1582  0B54  3438               	retlw	56	;'8'
  1583  0B55  3400               	retlw	0
  1584  0B56                     STR_232:
  1585  0B56  3432               	retlw	50	;'2'
  1586  0B57  3432               	retlw	50	;'2'
  1587  0B58  3438               	retlw	56	;'8'
  1588  0B59  3400               	retlw	0
  1589  0B5A                     STR_42:
  1590  0B5A  3430               	retlw	48	;'0'
  1591  0B5B  3433               	retlw	51	;'3'
  1592  0B5C  3438               	retlw	56	;'8'
  1593  0B5D  3400               	retlw	0
  1594  0B5E                     STR_142:
  1595  0B5E  3431               	retlw	49	;'1'
  1596  0B5F  3433               	retlw	51	;'3'
  1597  0B60  3438               	retlw	56	;'8'
  1598  0B61  3400               	retlw	0
  1599  0B62                     STR_242:
  1600  0B62  3432               	retlw	50	;'2'
  1601  0B63  3433               	retlw	51	;'3'
  1602  0B64  3438               	retlw	56	;'8'
  1603  0B65  3400               	retlw	0
  1604  0B66                     STR_52:
  1605  0B66  3430               	retlw	48	;'0'
  1606  0B67  3434               	retlw	52	;'4'
  1607  0B68  3438               	retlw	56	;'8'
  1608  0B69  3400               	retlw	0
  1609  0B6A                     STR_152:
  1610  0B6A  3431               	retlw	49	;'1'
  1611  0B6B  3434               	retlw	52	;'4'
  1612  0B6C  3438               	retlw	56	;'8'
  1613  0B6D  3400               	retlw	0
  1614  0B6E                     STR_252:
  1615  0B6E  3432               	retlw	50	;'2'
  1616  0B6F  3434               	retlw	52	;'4'
  1617  0B70  3438               	retlw	56	;'8'
  1618  0B71  3400               	retlw	0
  1619  0B72                     STR_62:
  1620  0B72  3430               	retlw	48	;'0'
  1621  0B73  3435               	retlw	53	;'5'
  1622  0B74  3438               	retlw	56	;'8'
  1623  0B75  3400               	retlw	0
  1624  0B76                     STR_162:
  1625  0B76  3431               	retlw	49	;'1'
  1626  0B77  3435               	retlw	53	;'5'
  1627  0B78  3438               	retlw	56	;'8'
  1628  0B79  3400               	retlw	0
  1629  0B7A                     STR_72:
  1630  0B7A  3430               	retlw	48	;'0'
  1631  0B7B  3436               	retlw	54	;'6'
  1632  0B7C  3438               	retlw	56	;'8'
  1633  0B7D  3400               	retlw	0
  1634  0B7E                     STR_172:
  1635  0B7E  3431               	retlw	49	;'1'
  1636  0B7F  3436               	retlw	54	;'6'
  1637  0B80  3438               	retlw	56	;'8'
  1638  0B81  3400               	retlw	0
  1639  0B82                     STR_82:
  1640  0B82  3430               	retlw	48	;'0'
  1641  0B83  3437               	retlw	55	;'7'
  1642  0B84  3438               	retlw	56	;'8'
  1643  0B85  3400               	retlw	0
  1644  0B86                     STR_182:
  1645  0B86  3431               	retlw	49	;'1'
  1646  0B87  3437               	retlw	55	;'7'
  1647  0B88  3438               	retlw	56	;'8'
  1648  0B89  3400               	retlw	0
  1649  0B8A                     STR_92:
  1650  0B8A  3430               	retlw	48	;'0'
  1651  0B8B  3438               	retlw	56	;'8'
  1652  0B8C  3438               	retlw	56	;'8'
  1653  0B8D  3400               	retlw	0
  1654  0B8E                     STR_192:
  1655  0B8E  3431               	retlw	49	;'1'
  1656  0B8F  3438               	retlw	56	;'8'
  1657  0B90  3438               	retlw	56	;'8'
  1658  0B91  3400               	retlw	0
  1659  0B92                     STR_102:
  1660  0B92  3430               	retlw	48	;'0'
  1661  0B93  3439               	retlw	57	;'9'
  1662  0B94  3438               	retlw	56	;'8'
  1663  0B95  3400               	retlw	0
  1664  0B96                     STR_202:
  1665  0B96  3431               	retlw	49	;'1'
  1666  0B97  3439               	retlw	57	;'9'
  1667  0B98  3438               	retlw	56	;'8'
  1668  0B99  3400               	retlw	0
  1669  0B9A                     STR_13:
  1670  0B9A  3430               	retlw	48	;'0'
  1671  0B9B  3430               	retlw	48	;'0'
  1672  0B9C  3439               	retlw	57	;'9'
  1673  0B9D  3400               	retlw	0
  1674  0B9E                     STR_113:
  1675  0B9E  3431               	retlw	49	;'1'
  1676  0B9F  3430               	retlw	48	;'0'
  1677  0BA0  3439               	retlw	57	;'9'
  1678  0BA1  3400               	retlw	0
  1679  0BA2                     STR_213:
  1680  0BA2  3432               	retlw	50	;'2'
  1681  0BA3  3430               	retlw	48	;'0'
  1682  0BA4  3439               	retlw	57	;'9'
  1683  0BA5  3400               	retlw	0
  1684  0BA6                     STR_23:
  1685  0BA6  3430               	retlw	48	;'0'
  1686  0BA7  3431               	retlw	49	;'1'
  1687  0BA8  3439               	retlw	57	;'9'
  1688  0BA9  3400               	retlw	0
  1689  0BAA                     STR_123:
  1690  0BAA  3431               	retlw	49	;'1'
  1691  0BAB  3431               	retlw	49	;'1'
  1692  0BAC  3439               	retlw	57	;'9'
  1693  0BAD  3400               	retlw	0
  1694  0BAE                     STR_223:
  1695  0BAE  3432               	retlw	50	;'2'
  1696  0BAF  3431               	retlw	49	;'1'
  1697  0BB0  3439               	retlw	57	;'9'
  1698  0BB1  3400               	retlw	0
  1699  0BB2                     STR_33:
  1700  0BB2  3430               	retlw	48	;'0'
  1701  0BB3  3432               	retlw	50	;'2'
  1702  0BB4  3439               	retlw	57	;'9'
  1703  0BB5  3400               	retlw	0
  1704  0BB6                     STR_133:
  1705  0BB6  3431               	retlw	49	;'1'
  1706  0BB7  3432               	retlw	50	;'2'
  1707  0BB8  3439               	retlw	57	;'9'
  1708  0BB9  3400               	retlw	0
  1709  0BBA                     STR_233:
  1710  0BBA  3432               	retlw	50	;'2'
  1711  0BBB  3432               	retlw	50	;'2'
  1712  0BBC  3439               	retlw	57	;'9'
  1713  0BBD  3400               	retlw	0
  1714  0BBE                     STR_43:
  1715  0BBE  3430               	retlw	48	;'0'
  1716  0BBF  3433               	retlw	51	;'3'
  1717  0BC0  3439               	retlw	57	;'9'
  1718  0BC1  3400               	retlw	0
  1719  0BC2                     STR_143:
  1720  0BC2  3431               	retlw	49	;'1'
  1721  0BC3  3433               	retlw	51	;'3'
  1722  0BC4  3439               	retlw	57	;'9'
  1723  0BC5  3400               	retlw	0
  1724  0BC6                     STR_243:
  1725  0BC6  3432               	retlw	50	;'2'
  1726  0BC7  3433               	retlw	51	;'3'
  1727  0BC8  3439               	retlw	57	;'9'
  1728  0BC9  3400               	retlw	0
  1729  0BCA                     STR_53:
  1730  0BCA  3430               	retlw	48	;'0'
  1731  0BCB  3434               	retlw	52	;'4'
  1732  0BCC  3439               	retlw	57	;'9'
  1733  0BCD  3400               	retlw	0
  1734  0BCE                     STR_153:
  1735  0BCE  3431               	retlw	49	;'1'
  1736  0BCF  3434               	retlw	52	;'4'
  1737  0BD0  3439               	retlw	57	;'9'
  1738  0BD1  3400               	retlw	0
  1739  0BD2                     STR_253:
  1740  0BD2  3432               	retlw	50	;'2'
  1741  0BD3  3434               	retlw	52	;'4'
  1742  0BD4  3439               	retlw	57	;'9'
  1743  0BD5  3400               	retlw	0
  1744  0BD6                     STR_63:
  1745  0BD6  3430               	retlw	48	;'0'
  1746  0BD7  3435               	retlw	53	;'5'
  1747  0BD8  3439               	retlw	57	;'9'
  1748  0BD9  3400               	retlw	0
  1749  0BDA                     STR_163:
  1750  0BDA  3431               	retlw	49	;'1'
  1751  0BDB  3435               	retlw	53	;'5'
  1752  0BDC  3439               	retlw	57	;'9'
  1753  0BDD  3400               	retlw	0
  1754  0BDE                     STR_73:
  1755  0BDE  3430               	retlw	48	;'0'
  1756  0BDF  3436               	retlw	54	;'6'
  1757  0BE0  3439               	retlw	57	;'9'
  1758  0BE1  3400               	retlw	0
  1759  0BE2                     STR_173:
  1760  0BE2  3431               	retlw	49	;'1'
  1761  0BE3  3436               	retlw	54	;'6'
  1762  0BE4  3439               	retlw	57	;'9'
  1763  0BE5  3400               	retlw	0
  1764  0BE6                     STR_83:
  1765  0BE6  3430               	retlw	48	;'0'
  1766  0BE7  3437               	retlw	55	;'7'
  1767  0BE8  3439               	retlw	57	;'9'
  1768  0BE9  3400               	retlw	0
  1769  0BEA                     STR_183:
  1770  0BEA  3431               	retlw	49	;'1'
  1771  0BEB  3437               	retlw	55	;'7'
  1772  0BEC  3439               	retlw	57	;'9'
  1773  0BED  3400               	retlw	0
  1774  0BEE                     STR_93:
  1775  0BEE  3430               	retlw	48	;'0'
  1776  0BEF  3438               	retlw	56	;'8'
  1777  0BF0  3439               	retlw	57	;'9'
  1778  0BF1  3400               	retlw	0
  1779  0BF2                     STR_193:
  1780  0BF2  3431               	retlw	49	;'1'
  1781  0BF3  3438               	retlw	56	;'8'
  1782  0BF4  3439               	retlw	57	;'9'
  1783  0BF5  3400               	retlw	0
  1784  0BF6                     STR_103:
  1785  0BF6  3430               	retlw	48	;'0'
  1786  0BF7  3439               	retlw	57	;'9'
  1787  0BF8  3439               	retlw	57	;'9'
  1788  0BF9  3400               	retlw	0
  1789  0BFA                     STR_203:
  1790  0BFA  3431               	retlw	49	;'1'
  1791  0BFB  3439               	retlw	57	;'9'
  1792  0BFC  3439               	retlw	57	;'9'
  1793  0BFD  3400               	retlw	0
  1794  0BFE                     STR_1:
  1795  0BFE  3450               	retlw	80	;'P'
  1796  0BFF  344F               	retlw	79	;'O'
  1797  0C00  3454               	retlw	84	;'T'
  1798  0C01  3400               	retlw	0
  1799  081F                     
  1800                           	psect	cinit
  1801  000F                     start_initialization:	
  1802                           ; #config settings
  1803                           
  1804  000F                     __initialization:
  1805                           
  1806                           ; Clear objects allocated to COMMON
  1807  000F  01FA               	clrf	__pbssCOMMON& (0+127)
  1808  0010  01FB               	clrf	(__pbssCOMMON+1)& (0+127)
  1809                           
  1810                           ; Clear objects allocated to BANK0
  1811  0011  1283               	bcf	3,5	;RP0=0, select bank0
  1812  0012  1303               	bcf	3,6	;RP1=0, select bank0
  1813  0013  01A0               	clrf	__pbssBANK0& (0+127)
  1814  0014  01A1               	clrf	(__pbssBANK0+1)& (0+127)
  1815  0015  01A2               	clrf	(__pbssBANK0+2)& (0+127)
  1816  0016  01A3               	clrf	(__pbssBANK0+3)& (0+127)
  1817  0017  01A4               	clrf	(__pbssBANK0+4)& (0+127)
  1818  0018  01A5               	clrf	(__pbssBANK0+5)& (0+127)
  1819  0019  01A6               	clrf	(__pbssBANK0+6)& (0+127)
  1820  001A  01A7               	clrf	(__pbssBANK0+7)& (0+127)
  1821  001B  01A8               	clrf	(__pbssBANK0+8)& (0+127)
  1822  001C  01A9               	clrf	(__pbssBANK0+9)& (0+127)
  1823  001D                     end_of_initialization:	
  1824                           ;End of C runtime variable initialization code
  1825                           
  1826  001D                     __end_of__initialization:
  1827  001D  0183               	clrf	3
  1828  001E  120A  158A  2E8B   	ljmp	_main	;jump to C main() function
  1829                           
  1830                           	psect	bssCOMMON
  1831  007A                     __pbssCOMMON:
  1832  007A                     _CONT:
  1833  007A                     	ds	1
  1834  007B                     _POTENCIOMETRO:
  1835  007B                     	ds	1
  1836                           
  1837                           	psect	bssBANK0
  1838  0020                     __pbssBANK0:
  1839  0020                     _TEMP_r:
  1840  0020                     	ds	2
  1841  0022                     _CONT_r:
  1842  0022                     	ds	2
  1843  0024                     _POT_r:
  1844  0024                     	ds	2
  1845  0026                     _TEMPERATURA:
  1846  0026                     	ds	1
  1847  0027                     _contador:
  1848  0027                     	ds	1
  1849  0028                     _temp:
  1850  0028                     	ds	1
  1851  0029                     _data:
  1852  0029                     	ds	1
  1853                           
  1854                           	psect	cstackCOMMON
  1855  0070                     __pcstackCOMMON:
  1856  0070                     ?_TRANSMITIR_INFO:
  1857  0070                     ??_TRANSMITIR_INFO:	
  1858                           ; 1 bytes @ 0x0
  1859                           
  1860  0070                     ?_SETUP:	
  1861                           ; 1 bytes @ 0x0
  1862                           
  1863  0070                     ?_LEER_S1:	
  1864                           ; 1 bytes @ 0x0
  1865                           
  1866  0070                     ?_LEER_S2:	
  1867                           ; 1 bytes @ 0x0
  1868                           
  1869  0070                     ?_LEER_S3:	
  1870                           ; 1 bytes @ 0x0
  1871                           
  1872  0070                     ?_LCD:	
  1873                           ; 1 bytes @ 0x0
  1874                           
  1875  0070                     ?_Lcd_Init:	
  1876                           ; 1 bytes @ 0x0
  1877                           
  1878  0070                     ?_READ_SPI:	
  1879                           ; 1 bytes @ 0x0
  1880                           
  1881  0070                     ?_isr:	
  1882                           ; 1 bytes @ 0x0
  1883                           
  1884  0070                     ??_isr:	
  1885                           ; 1 bytes @ 0x0
  1886                           
  1887  0070                     ?_main:	
  1888                           ; 1 bytes @ 0x0
  1889                           
  1890  0070                     ?_Lcd_Port:	
  1891                           ; 1 bytes @ 0x0
  1892                           
  1893  0070                     ?_Lcd_Cmd:	
  1894                           ; 1 bytes @ 0x0
  1895                           
  1896  0070                     ?_Lcd_Write_Char:	
  1897                           ; 1 bytes @ 0x0
  1898                           
  1899                           
  1900                           ; 1 bytes @ 0x0
  1901  0070                     	ds	2
  1902  0072                     ??_READ_SPI:
  1903  0072                     ??_Lcd_Port:	
  1904                           ; 1 bytes @ 0x2
  1905                           
  1906  0072                     ?_CONV:	
  1907                           ; 1 bytes @ 0x2
  1908                           
  1909  0072                     Lcd_Port@a:	
  1910                           ; 2 bytes @ 0x2
  1911                           
  1912                           
  1913                           ; 1 bytes @ 0x2
  1914  0072                     	ds	1
  1915  0073                     ??_CONV:
  1916  0073                     ??_Lcd_Cmd:	
  1917                           ; 1 bytes @ 0x3
  1918                           
  1919  0073                     ??_Lcd_Write_Char:	
  1920                           ; 1 bytes @ 0x3
  1921                           
  1922  0073                     READ_SPI@data:	
  1923                           ; 1 bytes @ 0x3
  1924                           
  1925                           
  1926                           ; 1 bytes @ 0x3
  1927  0073                     	ds	1
  1928  0074                     ??_LEER_S1:
  1929  0074                     ??_LEER_S2:	
  1930                           ; 1 bytes @ 0x4
  1931                           
  1932  0074                     ??_LEER_S3:	
  1933                           ; 1 bytes @ 0x4
  1934                           
  1935  0074                     Lcd_Write_Char@a:	
  1936                           ; 1 bytes @ 0x4
  1937                           
  1938                           
  1939                           ; 1 bytes @ 0x4
  1940  0074                     	ds	1
  1941  0075                     ?_Lcd_Write_String:
  1942  0075                     Lcd_Cmd@a:	
  1943                           ; 1 bytes @ 0x5
  1944                           
  1945  0075                     CONV@numero:	
  1946                           ; 1 bytes @ 0x5
  1947                           
  1948  0075                     Lcd_Write_String@a:	
  1949                           ; 1 bytes @ 0x5
  1950                           
  1951                           
  1952                           ; 2 bytes @ 0x5
  1953  0075                     	ds	1
  1954  0076                     ??_Lcd_Init:
  1955  0076                     ?_Lcd_Set_Cursor:	
  1956                           ; 1 bytes @ 0x6
  1957                           
  1958  0076                     Lcd_Set_Cursor@b:	
  1959                           ; 1 bytes @ 0x6
  1960                           
  1961                           
  1962                           ; 1 bytes @ 0x6
  1963  0076                     	ds	1
  1964  0077                     ??_Lcd_Set_Cursor:
  1965  0077                     ??_Lcd_Write_String:	
  1966                           ; 1 bytes @ 0x7
  1967                           
  1968                           
  1969                           ; 1 bytes @ 0x7
  1970  0077                     	ds	1
  1971  0078                     Lcd_Set_Cursor@a:
  1972                           
  1973                           ; 1 bytes @ 0x8
  1974  0078                     	ds	1
  1975  0079                     Lcd_Set_Cursor@temp:
  1976                           
  1977                           ; 1 bytes @ 0x9
  1978  0079                     	ds	1
  1979                           
  1980                           	psect	cstackBANK0
  1981  002A                     __pcstackBANK0:
  1982  002A                     Lcd_Write_String@i:
  1983                           
  1984                           ; 2 bytes @ 0x0
  1985  002A                     	ds	2
  1986  002C                     ??_SETUP:
  1987  002C                     ??_LCD:	
  1988                           ; 1 bytes @ 0x2
  1989                           
  1990                           
  1991                           ; 1 bytes @ 0x2
  1992  002C                     	ds	1
  1993  002D                     ??_main:
  1994                           
  1995                           ; 1 bytes @ 0x3
  1996  002D                     	ds	3
  1997                           
  1998                           	psect	maintext
  1999  0E8B                     __pmaintext:	
  2000 ;;
  2001 ;;Main: autosize = 0, tempsize = 3, incstack = 0, save=0
  2002 ;;
  2003 ;; *************** function _main *****************
  2004 ;; Defined at:
  2005 ;;		line 68 in file "Principal_Master.c"
  2006 ;; Parameters:    Size  Location     Type
  2007 ;;		None
  2008 ;; Auto vars:     Size  Location     Type
  2009 ;;		None
  2010 ;; Return value:  Size  Location     Type
  2011 ;;                  1    wreg      void 
  2012 ;; Registers used:
  2013 ;;		wreg, fsr0l, fsr0h, status,2, status,0, btemp+1, pclath, cstack
  2014 ;; Tracked objects:
  2015 ;;		On entry : B00/0
  2016 ;;		On exit  : 0/0
  2017 ;;		Unchanged: 0/0
  2018 ;; Data sizes:     COMMON   BANK0   BANK1   BANK3   BANK2
  2019 ;;      Params:         0       0       0       0       0
  2020 ;;      Locals:         0       0       0       0       0
  2021 ;;      Temps:          0       3       0       0       0
  2022 ;;      Totals:         0       3       0       0       0
  2023 ;;Total ram usage:        3 bytes
  2024 ;; Hardware stack levels required when called:    6
  2025 ;; This function calls:
  2026 ;;		_CONV
  2027 ;;		_LCD
  2028 ;;		_LEER_S1
  2029 ;;		_LEER_S2
  2030 ;;		_LEER_S3
  2031 ;;		_SETUP
  2032 ;; This function is called by:
  2033 ;;		Startup code after reset
  2034 ;; This function uses a non-reentrant model
  2035 ;;
  2036                           
  2037                           
  2038                           ;psect for function _main
  2039  0E8B                     _main:
  2040  0E8B                     l4776:	
  2041                           ;incstack = 0
  2042                           ; Regs used in _main: [wreg-fsr0h+status,2+status,0+btemp+1+pclath+cstack]
  2043                           
  2044                           
  2045                           ;Principal_Master.c: 70:  SETUP();
  2046  0E8B  120A  118A  2731  120A  158A  	fcall	_SETUP
  2047  0E90                     l4778:
  2048                           
  2049                           ;Principal_Master.c: 73:  {;Principal_Master.c: 75:     LEER_S1();
  2050  0E90  120A  158A  25A5  120A  158A  	fcall	_LEER_S1
  2051  0E95                     l4780:
  2052                           
  2053                           ;Principal_Master.c: 76:     _delay((unsigned long)((100)*(8000000/4000.0)));
  2054  0E95  3002               	movlw	2
  2055  0E96  1283               	bcf	3,5	;RP0=0, select bank0
  2056  0E97  1303               	bcf	3,6	;RP1=0, select bank0
  2057  0E98  00AF               	movwf	??_main+2
  2058  0E99  3004               	movlw	4
  2059  0E9A  00AE               	movwf	??_main+1
  2060  0E9B  30B9               	movlw	185
  2061  0E9C  00AD               	movwf	??_main
  2062  0E9D                     u207:
  2063  0E9D  0BAD               	decfsz	??_main,f
  2064  0E9E  2E9D               	goto	u207
  2065  0E9F  0BAE               	decfsz	??_main+1,f
  2066  0EA0  2E9D               	goto	u207
  2067  0EA1  0BAF               	decfsz	??_main+2,f
  2068  0EA2  2E9D               	goto	u207
  2069  0EA3  2EA4               	nop2
  2070  0EA4                     l4782:
  2071                           
  2072                           ;Principal_Master.c: 77:     POT_r = CONV(POTENCIOMETRO);
  2073  0EA4  087B               	movf	_POTENCIOMETRO,w
  2074  0EA5  120A  158A  26FB  120A  158A  	fcall	_CONV
  2075  0EAA  0872               	movf	?_CONV,w
  2076  0EAB  1283               	bcf	3,5	;RP0=0, select bank0
  2077  0EAC  1303               	bcf	3,6	;RP1=0, select bank0
  2078  0EAD  00A4               	movwf	_POT_r
  2079  0EAE  0873               	movf	?_CONV+1,w
  2080  0EAF  00A5               	movwf	_POT_r+1
  2081  0EB0                     l4784:
  2082                           
  2083                           ;Principal_Master.c: 79:     LEER_S2();
  2084  0EB0  120A  158A  25BE  120A  158A  	fcall	_LEER_S2
  2085  0EB5                     l4786:
  2086                           
  2087                           ;Principal_Master.c: 80:     _delay((unsigned long)((100)*(8000000/4000.0)));
  2088  0EB5  3002               	movlw	2
  2089  0EB6  1283               	bcf	3,5	;RP0=0, select bank0
  2090  0EB7  1303               	bcf	3,6	;RP1=0, select bank0
  2091  0EB8  00AF               	movwf	??_main+2
  2092  0EB9  3004               	movlw	4
  2093  0EBA  00AE               	movwf	??_main+1
  2094  0EBB  30B9               	movlw	185
  2095  0EBC  00AD               	movwf	??_main
  2096  0EBD                     u217:
  2097  0EBD  0BAD               	decfsz	??_main,f
  2098  0EBE  2EBD               	goto	u217
  2099  0EBF  0BAE               	decfsz	??_main+1,f
  2100  0EC0  2EBD               	goto	u217
  2101  0EC1  0BAF               	decfsz	??_main+2,f
  2102  0EC2  2EBD               	goto	u217
  2103  0EC3  2EC4               	nop2
  2104  0EC4                     l4788:
  2105                           
  2106                           ;Principal_Master.c: 81:     CONT_r = CONV(CONT);
  2107  0EC4  087A               	movf	_CONT,w
  2108  0EC5  120A  158A  26FB  120A  158A  	fcall	_CONV
  2109  0ECA  0872               	movf	?_CONV,w
  2110  0ECB  1283               	bcf	3,5	;RP0=0, select bank0
  2111  0ECC  1303               	bcf	3,6	;RP1=0, select bank0
  2112  0ECD  00A2               	movwf	_CONT_r
  2113  0ECE  0873               	movf	?_CONV+1,w
  2114  0ECF  00A3               	movwf	_CONT_r+1
  2115  0ED0                     l4790:
  2116                           
  2117                           ;Principal_Master.c: 83:      LEER_S3();
  2118  0ED0  120A  158A  260A  120A  158A  	fcall	_LEER_S3
  2119  0ED5                     l4792:
  2120                           
  2121                           ;Principal_Master.c: 84:     _delay((unsigned long)((100)*(8000000/4000.0)));
  2122  0ED5  3002               	movlw	2
  2123  0ED6  1283               	bcf	3,5	;RP0=0, select bank0
  2124  0ED7  1303               	bcf	3,6	;RP1=0, select bank0
  2125  0ED8  00AF               	movwf	??_main+2
  2126  0ED9  3004               	movlw	4
  2127  0EDA  00AE               	movwf	??_main+1
  2128  0EDB  30B9               	movlw	185
  2129  0EDC  00AD               	movwf	??_main
  2130  0EDD                     u227:
  2131  0EDD  0BAD               	decfsz	??_main,f
  2132  0EDE  2EDD               	goto	u227
  2133  0EDF  0BAE               	decfsz	??_main+1,f
  2134  0EE0  2EDD               	goto	u227
  2135  0EE1  0BAF               	decfsz	??_main+2,f
  2136  0EE2  2EDD               	goto	u227
  2137  0EE3  2EE4               	nop2
  2138  0EE4                     l4794:
  2139                           
  2140                           ;Principal_Master.c: 85:     TEMP_r = CONV(TEMPERATURA);
  2141  0EE4  1283               	bcf	3,5	;RP0=0, select bank0
  2142  0EE5  1303               	bcf	3,6	;RP1=0, select bank0
  2143  0EE6  0826               	movf	_TEMPERATURA,w
  2144  0EE7  120A  158A  26FB  120A  158A  	fcall	_CONV
  2145  0EEC  0872               	movf	?_CONV,w
  2146  0EED  1283               	bcf	3,5	;RP0=0, select bank0
  2147  0EEE  1303               	bcf	3,6	;RP1=0, select bank0
  2148  0EEF  00A0               	movwf	_TEMP_r
  2149  0EF0  0873               	movf	?_CONV+1,w
  2150  0EF1  00A1               	movwf	_TEMP_r+1
  2151  0EF2                     l4796:
  2152                           
  2153                           ;Principal_Master.c: 87:     LCD();
  2154  0EF2  120A  158A  2649  120A  158A  	fcall	_LCD
  2155  0EF7  2E90               	goto	l4778
  2156  0EF8  120A  118A  280C   	ljmp	start
  2157  0EFB                     __end_of_main:
  2158                           
  2159                           	psect	text1
  2160  0731                     __ptext1:	
  2161 ;; *************** function _SETUP *****************
  2162 ;; Defined at:
  2163 ;;		line 97 in file "Principal_Master.c"
  2164 ;; Parameters:    Size  Location     Type
  2165 ;;		None
  2166 ;; Auto vars:     Size  Location     Type
  2167 ;;		None
  2168 ;; Return value:  Size  Location     Type
  2169 ;;                  1    wreg      void 
  2170 ;; Registers used:
  2171 ;;		wreg, fsr0l, fsr0h, status,2, status,0, btemp+1, pclath, cstack
  2172 ;; Tracked objects:
  2173 ;;		On entry : 0/0
  2174 ;;		On exit  : 0/0
  2175 ;;		Unchanged: 0/0
  2176 ;; Data sizes:     COMMON   BANK0   BANK1   BANK3   BANK2
  2177 ;;      Params:         0       0       0       0       0
  2178 ;;      Locals:         0       0       0       0       0
  2179 ;;      Temps:          0       1       0       0       0
  2180 ;;      Totals:         0       1       0       0       0
  2181 ;;Total ram usage:        1 bytes
  2182 ;; Hardware stack levels used:    1
  2183 ;; Hardware stack levels required when called:    5
  2184 ;; This function calls:
  2185 ;;		_Lcd_Init
  2186 ;;		_Lcd_Set_Cursor
  2187 ;;		_Lcd_Write_String
  2188 ;; This function is called by:
  2189 ;;		_main
  2190 ;; This function uses a non-reentrant model
  2191 ;;
  2192                           
  2193                           
  2194                           ;psect for function _SETUP
  2195  0731                     _SETUP:
  2196  0731                     l4706:	
  2197                           ;incstack = 0
  2198                           ; Regs used in _SETUP: [wreg-fsr0h+status,2+status,0+btemp+1+pclath+cstack]
  2199                           
  2200                           
  2201                           ;Principal_Master.c: 99:     PORTA = 0;
  2202  0731  1283               	bcf	3,5	;RP0=0, select bank0
  2203  0732  1303               	bcf	3,6	;RP1=0, select bank0
  2204  0733  0185               	clrf	5	;volatile
  2205                           
  2206                           ;Principal_Master.c: 100:     PORTB = 0;
  2207  0734  0186               	clrf	6	;volatile
  2208                           
  2209                           ;Principal_Master.c: 101:     PORTC = 0;
  2210  0735  0187               	clrf	7	;volatile
  2211                           
  2212                           ;Principal_Master.c: 102:     PORTD = 0;
  2213  0736  0188               	clrf	8	;volatile
  2214  0737                     l4708:
  2215                           
  2216                           ;Principal_Master.c: 103:     PORTE = 0x07;
  2217  0737  3007               	movlw	7
  2218  0738  0089               	movwf	9	;volatile
  2219  0739                     l4710:
  2220                           
  2221                           ;Principal_Master.c: 105:     TRISA = 0;
  2222  0739  1683               	bsf	3,5	;RP0=1, select bank1
  2223  073A  1303               	bcf	3,6	;RP1=0, select bank1
  2224  073B  0185               	clrf	5	;volatile
  2225  073C                     l4712:
  2226                           
  2227                           ;Principal_Master.c: 106:     TRISD = 0;
  2228  073C  0188               	clrf	8	;volatile
  2229  073D                     l4714:
  2230                           
  2231                           ;Principal_Master.c: 107:     TRISB = 0;
  2232  073D  0186               	clrf	6	;volatile
  2233                           
  2234                           ;Principal_Master.c: 108:     TRISC = 0b00010000;
  2235  073E  3010               	movlw	16
  2236  073F  0087               	movwf	7	;volatile
  2237  0740                     l4716:
  2238                           
  2239                           ;Principal_Master.c: 109:     TRISCbits.TRISC6 = 0;
  2240  0740  1307               	bcf	7,6	;volatile
  2241  0741                     l4718:
  2242                           
  2243                           ;Principal_Master.c: 110:     TRISCbits.TRISC7 = 1;
  2244  0741  1787               	bsf	7,7	;volatile
  2245  0742                     l4720:
  2246                           
  2247                           ;Principal_Master.c: 111:     TRISE = 0;
  2248  0742  0189               	clrf	9	;volatile
  2249  0743                     l4722:
  2250                           
  2251                           ;Principal_Master.c: 113:     ANSEL = 0;
  2252  0743  1683               	bsf	3,5	;RP0=1, select bank3
  2253  0744  1703               	bsf	3,6	;RP1=1, select bank3
  2254  0745  0188               	clrf	8	;volatile
  2255  0746                     l4724:
  2256                           
  2257                           ;Principal_Master.c: 114:     ANSELH = 0;
  2258  0746  0189               	clrf	9	;volatile
  2259  0747                     l4726:
  2260                           
  2261                           ;Principal_Master.c: 116:     SPBRG = 25;
  2262  0747  3019               	movlw	25
  2263  0748  1683               	bsf	3,5	;RP0=1, select bank1
  2264  0749  1303               	bcf	3,6	;RP1=0, select bank1
  2265  074A  0099               	movwf	25	;volatile
  2266  074B                     l4728:
  2267                           
  2268                           ;Principal_Master.c: 117:     TXSTAbits.BRGH = 1;
  2269  074B  1518               	bsf	24,2	;volatile
  2270  074C                     l4730:
  2271                           
  2272                           ;Principal_Master.c: 118:     BAUDCTLbits.BRG16 = 0;
  2273  074C  1683               	bsf	3,5	;RP0=1, select bank3
  2274  074D  1703               	bsf	3,6	;RP1=1, select bank3
  2275  074E  1187               	bcf	7,3	;volatile
  2276                           
  2277                           ;Principal_Master.c: 119:     SPBRGH = 0;
  2278  074F  1683               	bsf	3,5	;RP0=1, select bank1
  2279  0750  1303               	bcf	3,6	;RP1=0, select bank1
  2280  0751  019A               	clrf	26	;volatile
  2281  0752                     l4732:
  2282                           
  2283                           ;Principal_Master.c: 121:     TXSTAbits.SYNC = 0;
  2284  0752  1218               	bcf	24,4	;volatile
  2285  0753                     l4734:
  2286                           
  2287                           ;Principal_Master.c: 122:     RCSTAbits.SPEN = 1;
  2288  0753  1283               	bcf	3,5	;RP0=0, select bank0
  2289  0754  1303               	bcf	3,6	;RP1=0, select bank0
  2290  0755  1798               	bsf	24,7	;volatile
  2291  0756                     l4736:
  2292                           
  2293                           ;Principal_Master.c: 123:     TXSTAbits.TX9 = 0;
  2294  0756  1683               	bsf	3,5	;RP0=1, select bank1
  2295  0757  1303               	bcf	3,6	;RP1=0, select bank1
  2296  0758  1318               	bcf	24,6	;volatile
  2297  0759                     l4738:
  2298                           
  2299                           ;Principal_Master.c: 124:     TXSTAbits.TXEN = 1;
  2300  0759  1698               	bsf	24,5	;volatile
  2301  075A                     l4740:
  2302                           
  2303                           ;Principal_Master.c: 126:     PIE1bits.RCIE = 1;
  2304  075A  168C               	bsf	12,5	;volatile
  2305  075B                     l4742:
  2306                           
  2307                           ;Principal_Master.c: 127:     RCSTAbits.RX9 = 0;
  2308  075B  1283               	bcf	3,5	;RP0=0, select bank0
  2309  075C  1303               	bcf	3,6	;RP1=0, select bank0
  2310  075D  1318               	bcf	24,6	;volatile
  2311  075E                     l4744:
  2312                           
  2313                           ;Principal_Master.c: 128:     RCSTAbits.CREN = 1;
  2314  075E  1618               	bsf	24,4	;volatile
  2315  075F                     l4746:
  2316                           
  2317                           ;Principal_Master.c: 130:     SSPCONbits.SSPEN = 0;
  2318  075F  1294               	bcf	20,5	;volatile
  2319                           
  2320                           ;Principal_Master.c: 131:     SSPSTAT = 0X00;
  2321  0760  1683               	bsf	3,5	;RP0=1, select bank1
  2322  0761  1303               	bcf	3,6	;RP1=0, select bank1
  2323  0762  0194               	clrf	20	;volatile
  2324  0763                     l4748:
  2325                           
  2326                           ;Principal_Master.c: 132:     SSPCON= 0X11;
  2327  0763  3011               	movlw	17
  2328  0764  1283               	bcf	3,5	;RP0=0, select bank0
  2329  0765  1303               	bcf	3,6	;RP1=0, select bank0
  2330  0766  0094               	movwf	20	;volatile
  2331  0767                     l4750:
  2332                           
  2333                           ;Principal_Master.c: 133:     SSPCONbits.SSPEN = 1;
  2334  0767  1694               	bsf	20,5	;volatile
  2335  0768                     l4752:
  2336                           
  2337                           ;Principal_Master.c: 135:     Lcd_Init();
  2338  0768  120A  158A  25D7  120A  118A  	fcall	_Lcd_Init
  2339  076D                     l4754:
  2340                           
  2341                           ;Principal_Master.c: 137:     Lcd_Set_Cursor(1,1);
  2342  076D  01F6               	clrf	Lcd_Set_Cursor@b
  2343  076E  0AF6               	incf	Lcd_Set_Cursor@b,f
  2344  076F  3001               	movlw	1
  2345  0770  120A  158A  2625  120A  118A  	fcall	_Lcd_Set_Cursor
  2346  0775                     l4756:
  2347                           
  2348                           ;Principal_Master.c: 138:     Lcd_Write_String("POT");
  2349  0775  30FE               	movlw	low (STR_1| (0+32768))
  2350  0776  00F5               	movwf	Lcd_Write_String@a
  2351  0777  308B               	movlw	high (STR_1| (0+32768))
  2352  0778  00F6               	movwf	Lcd_Write_String@a+1
  2353  0779  120A  118A  27A9  120A  118A  	fcall	_Lcd_Write_String
  2354  077E                     l4758:
  2355                           
  2356                           ;Principal_Master.c: 140:     Lcd_Set_Cursor(1,7);
  2357  077E  3007               	movlw	7
  2358  077F  1283               	bcf	3,5	;RP0=0, select bank0
  2359  0780  1303               	bcf	3,6	;RP1=0, select bank0
  2360  0781  00AC               	movwf	??_SETUP
  2361  0782  082C               	movf	??_SETUP,w
  2362  0783  00F6               	movwf	Lcd_Set_Cursor@b
  2363  0784  3001               	movlw	1
  2364  0785  120A  158A  2625  120A  118A  	fcall	_Lcd_Set_Cursor
  2365  078A                     l4760:
  2366                           
  2367                           ;Principal_Master.c: 141:     Lcd_Write_String("CONT");
  2368  078A  3005               	movlw	low (STR_2| (0+32768))
  2369  078B  00F5               	movwf	Lcd_Write_String@a
  2370  078C  3088               	movlw	high (STR_2| (0+32768))
  2371  078D  00F6               	movwf	Lcd_Write_String@a+1
  2372  078E  120A  118A  27A9  120A  118A  	fcall	_Lcd_Write_String
  2373  0793                     l4762:
  2374                           
  2375                           ;Principal_Master.c: 143:     Lcd_Set_Cursor(1,13);
  2376  0793  300D               	movlw	13
  2377  0794  1283               	bcf	3,5	;RP0=0, select bank0
  2378  0795  1303               	bcf	3,6	;RP1=0, select bank0
  2379  0796  00AC               	movwf	??_SETUP
  2380  0797  082C               	movf	??_SETUP,w
  2381  0798  00F6               	movwf	Lcd_Set_Cursor@b
  2382  0799  3001               	movlw	1
  2383  079A  120A  158A  2625  120A  118A  	fcall	_Lcd_Set_Cursor
  2384  079F                     l4764:
  2385                           
  2386                           ;Principal_Master.c: 144:     Lcd_Write_String("TEMP");
  2387  079F  3000               	movlw	low (STR_3| (0+32768))
  2388  07A0  00F5               	movwf	Lcd_Write_String@a
  2389  07A1  3088               	movlw	high (STR_3| (0+32768))
  2390  07A2  00F6               	movwf	Lcd_Write_String@a+1
  2391  07A3  120A  118A  27A9  120A  118A  	fcall	_Lcd_Write_String
  2392  07A8                     l149:
  2393  07A8  0008               	return
  2394  07A9                     __end_of_SETUP:
  2395                           
  2396                           	psect	text2
  2397  0DD7                     __ptext2:	
  2398 ;; *************** function _Lcd_Init *****************
  2399 ;; Defined at:
  2400 ;;		line 42 in file "LCD.c"
  2401 ;; Parameters:    Size  Location     Type
  2402 ;;		None
  2403 ;; Auto vars:     Size  Location     Type
  2404 ;;		None
  2405 ;; Return value:  Size  Location     Type
  2406 ;;                  1    wreg      void 
  2407 ;; Registers used:
  2408 ;;		wreg, status,2, status,0, pclath, cstack
  2409 ;; Tracked objects:
  2410 ;;		On entry : 0/0
  2411 ;;		On exit  : 0/0
  2412 ;;		Unchanged: 0/0
  2413 ;; Data sizes:     COMMON   BANK0   BANK1   BANK3   BANK2
  2414 ;;      Params:         0       0       0       0       0
  2415 ;;      Locals:         0       0       0       0       0
  2416 ;;      Temps:          0       0       0       0       0
  2417 ;;      Totals:         0       0       0       0       0
  2418 ;;Total ram usage:        0 bytes
  2419 ;; Hardware stack levels used:    1
  2420 ;; Hardware stack levels required when called:    4
  2421 ;; This function calls:
  2422 ;;		_Lcd_Cmd
  2423 ;; This function is called by:
  2424 ;;		_SETUP
  2425 ;; This function uses a non-reentrant model
  2426 ;;
  2427                           
  2428                           
  2429                           ;psect for function _Lcd_Init
  2430  0DD7                     _Lcd_Init:
  2431  0DD7                     l4684:	
  2432                           ;incstack = 0
  2433                           ; Regs used in _Lcd_Init: [wreg+status,2+status,0+pclath+cstack]
  2434                           
  2435                           
  2436                           ;LCD.c: 44:     Lcd_Cmd(0x38);
  2437  0DD7  3038               	movlw	56
  2438  0DD8  120A  158A  258D  120A  158A  	fcall	_Lcd_Cmd
  2439                           
  2440                           ;LCD.c: 45:     Lcd_Cmd(0x0C);
  2441  0DDD  300C               	movlw	12
  2442  0DDE  120A  158A  258D  120A  158A  	fcall	_Lcd_Cmd
  2443                           
  2444                           ;LCD.c: 46:     Lcd_Cmd(0x06);
  2445  0DE3  3006               	movlw	6
  2446  0DE4  120A  158A  258D  120A  158A  	fcall	_Lcd_Cmd
  2447                           
  2448                           ;LCD.c: 47:     Lcd_Cmd(0x80);
  2449  0DE9  3080               	movlw	128
  2450  0DEA  120A  158A  258D  120A  158A  	fcall	_Lcd_Cmd
  2451  0DEF                     l188:
  2452  0DEF  0008               	return
  2453  0DF0                     __end_of_Lcd_Init:
  2454                           
  2455                           	psect	text3
  2456  0E0A                     __ptext3:	
  2457 ;; *************** function _LEER_S3 *****************
  2458 ;; Defined at:
  2459 ;;		line 188 in file "Principal_Master.c"
  2460 ;; Parameters:    Size  Location     Type
  2461 ;;		None
  2462 ;; Auto vars:     Size  Location     Type
  2463 ;;		None
  2464 ;; Return value:  Size  Location     Type
  2465 ;;                  1    wreg      void 
  2466 ;; Registers used:
  2467 ;;		wreg, pclath, cstack
  2468 ;; Tracked objects:
  2469 ;;		On entry : 0/0
  2470 ;;		On exit  : 0/0
  2471 ;;		Unchanged: 0/0
  2472 ;; Data sizes:     COMMON   BANK0   BANK1   BANK3   BANK2
  2473 ;;      Params:         0       0       0       0       0
  2474 ;;      Locals:         0       0       0       0       0
  2475 ;;      Temps:          2       0       0       0       0
  2476 ;;      Totals:         2       0       0       0       0
  2477 ;;Total ram usage:        2 bytes
  2478 ;; Hardware stack levels used:    1
  2479 ;; Hardware stack levels required when called:    3
  2480 ;; This function calls:
  2481 ;;		_READ_SPI
  2482 ;; This function is called by:
  2483 ;;		_main
  2484 ;; This function uses a non-reentrant model
  2485 ;;
  2486                           
  2487                           
  2488                           ;psect for function _LEER_S3
  2489  0E0A                     _LEER_S3:
  2490  0E0A                     l4594:	
  2491                           ;incstack = 0
  2492                           ; Regs used in _LEER_S3: [wreg+pclath+cstack]
  2493                           
  2494                           
  2495                           ;Principal_Master.c: 190:     PORTEbits.RE2 =0;
  2496  0E0A  1283               	bcf	3,5	;RP0=0, select bank0
  2497  0E0B  1303               	bcf	3,6	;RP1=0, select bank0
  2498  0E0C  1109               	bcf	9,2	;volatile
  2499  0E0D                     l4596:
  2500                           
  2501                           ;Principal_Master.c: 192:     TEMPERATURA = READ_SPI (contador);
  2502  0E0D  3000               	movlw	0
  2503  0E0E  120A  118A  27EF  120A  158A  	fcall	_READ_SPI
  2504  0E13  00F4               	movwf	??_LEER_S3
  2505  0E14  0874               	movf	??_LEER_S3,w
  2506  0E15  1283               	bcf	3,5	;RP0=0, select bank0
  2507  0E16  1303               	bcf	3,6	;RP1=0, select bank0
  2508  0E17  00A6               	movwf	_TEMPERATURA
  2509  0E18                     l4598:
  2510                           
  2511                           ;Principal_Master.c: 193:     _delay((unsigned long)((2)*(8000000/4000.0)));
  2512  0E18  3006               	movlw	6
  2513  0E19  00F5               	movwf	??_LEER_S3+1
  2514  0E1A  3030               	movlw	48
  2515  0E1B  00F4               	movwf	??_LEER_S3
  2516  0E1C                     u237:
  2517  0E1C  0BF4               	decfsz	??_LEER_S3,f
  2518  0E1D  2E1C               	goto	u237
  2519  0E1E  0BF5               	decfsz	??_LEER_S3+1,f
  2520  0E1F  2E1C               	goto	u237
  2521  0E20  0000               	nop
  2522  0E21                     l4600:
  2523                           
  2524                           ;Principal_Master.c: 195:     PORTEbits.RE2 =1;
  2525  0E21  1283               	bcf	3,5	;RP0=0, select bank0
  2526  0E22  1303               	bcf	3,6	;RP1=0, select bank0
  2527  0E23  1509               	bsf	9,2	;volatile
  2528  0E24                     l161:
  2529  0E24  0008               	return
  2530  0E25                     __end_of_LEER_S3:
  2531                           
  2532                           	psect	text4
  2533  0DBE                     __ptext4:	
  2534 ;; *************** function _LEER_S2 *****************
  2535 ;; Defined at:
  2536 ;;		line 176 in file "Principal_Master.c"
  2537 ;; Parameters:    Size  Location     Type
  2538 ;;		None
  2539 ;; Auto vars:     Size  Location     Type
  2540 ;;		None
  2541 ;; Return value:  Size  Location     Type
  2542 ;;                  1    wreg      void 
  2543 ;; Registers used:
  2544 ;;		wreg, pclath, cstack
  2545 ;; Tracked objects:
  2546 ;;		On entry : 0/0
  2547 ;;		On exit  : 0/0
  2548 ;;		Unchanged: 0/0
  2549 ;; Data sizes:     COMMON   BANK0   BANK1   BANK3   BANK2
  2550 ;;      Params:         0       0       0       0       0
  2551 ;;      Locals:         0       0       0       0       0
  2552 ;;      Temps:          2       0       0       0       0
  2553 ;;      Totals:         2       0       0       0       0
  2554 ;;Total ram usage:        2 bytes
  2555 ;; Hardware stack levels used:    1
  2556 ;; Hardware stack levels required when called:    3
  2557 ;; This function calls:
  2558 ;;		_READ_SPI
  2559 ;; This function is called by:
  2560 ;;		_main
  2561 ;; This function uses a non-reentrant model
  2562 ;;
  2563                           
  2564                           
  2565                           ;psect for function _LEER_S2
  2566  0DBE                     _LEER_S2:
  2567  0DBE                     l4586:	
  2568                           ;incstack = 0
  2569                           ; Regs used in _LEER_S2: [wreg+pclath+cstack]
  2570                           
  2571                           
  2572                           ;Principal_Master.c: 178:     PORTEbits.RE1 =0;
  2573  0DBE  1283               	bcf	3,5	;RP0=0, select bank0
  2574  0DBF  1303               	bcf	3,6	;RP1=0, select bank0
  2575  0DC0  1089               	bcf	9,1	;volatile
  2576  0DC1                     l4588:
  2577                           
  2578                           ;Principal_Master.c: 180:     CONT = READ_SPI (contador);
  2579  0DC1  3000               	movlw	0
  2580  0DC2  120A  118A  27EF  120A  158A  	fcall	_READ_SPI
  2581  0DC7  00F4               	movwf	??_LEER_S2
  2582  0DC8  0874               	movf	??_LEER_S2,w
  2583  0DC9  00FA               	movwf	_CONT
  2584  0DCA                     l4590:
  2585                           
  2586                           ;Principal_Master.c: 181:       _delay((unsigned long)((2)*(8000000/4000.0)));
  2587  0DCA  3006               	movlw	6
  2588  0DCB  00F5               	movwf	??_LEER_S2+1
  2589  0DCC  3030               	movlw	48
  2590  0DCD  00F4               	movwf	??_LEER_S2
  2591  0DCE                     u247:
  2592  0DCE  0BF4               	decfsz	??_LEER_S2,f
  2593  0DCF  2DCE               	goto	u247
  2594  0DD0  0BF5               	decfsz	??_LEER_S2+1,f
  2595  0DD1  2DCE               	goto	u247
  2596  0DD2  0000               	nop
  2597  0DD3                     l4592:
  2598                           
  2599                           ;Principal_Master.c: 183:     PORTEbits.RE1 =1;
  2600  0DD3  1283               	bcf	3,5	;RP0=0, select bank0
  2601  0DD4  1303               	bcf	3,6	;RP1=0, select bank0
  2602  0DD5  1489               	bsf	9,1	;volatile
  2603  0DD6                     l158:
  2604  0DD6  0008               	return
  2605  0DD7                     __end_of_LEER_S2:
  2606                           
  2607                           	psect	text5
  2608  0DA5                     __ptext5:	
  2609 ;; *************** function _LEER_S1 *****************
  2610 ;; Defined at:
  2611 ;;		line 163 in file "Principal_Master.c"
  2612 ;; Parameters:    Size  Location     Type
  2613 ;;		None
  2614 ;; Auto vars:     Size  Location     Type
  2615 ;;		None
  2616 ;; Return value:  Size  Location     Type
  2617 ;;                  1    wreg      void 
  2618 ;; Registers used:
  2619 ;;		wreg, pclath, cstack
  2620 ;; Tracked objects:
  2621 ;;		On entry : 0/0
  2622 ;;		On exit  : 0/0
  2623 ;;		Unchanged: 0/0
  2624 ;; Data sizes:     COMMON   BANK0   BANK1   BANK3   BANK2
  2625 ;;      Params:         0       0       0       0       0
  2626 ;;      Locals:         0       0       0       0       0
  2627 ;;      Temps:          2       0       0       0       0
  2628 ;;      Totals:         2       0       0       0       0
  2629 ;;Total ram usage:        2 bytes
  2630 ;; Hardware stack levels used:    1
  2631 ;; Hardware stack levels required when called:    3
  2632 ;; This function calls:
  2633 ;;		_READ_SPI
  2634 ;; This function is called by:
  2635 ;;		_main
  2636 ;; This function uses a non-reentrant model
  2637 ;;
  2638                           
  2639                           
  2640                           ;psect for function _LEER_S1
  2641  0DA5                     _LEER_S1:
  2642  0DA5                     l3032:	
  2643                           ;incstack = 0
  2644                           ; Regs used in _LEER_S1: [wreg+pclath+cstack]
  2645                           
  2646                           
  2647                           ;Principal_Master.c: 165:     PORTEbits.RE0 =0;
  2648  0DA5  1283               	bcf	3,5	;RP0=0, select bank0
  2649  0DA6  1303               	bcf	3,6	;RP1=0, select bank0
  2650  0DA7  1009               	bcf	9,0	;volatile
  2651  0DA8                     l3034:
  2652                           
  2653                           ;Principal_Master.c: 167:      POTENCIOMETRO = READ_SPI (contador);
  2654  0DA8  3000               	movlw	0
  2655  0DA9  120A  118A  27EF  120A  158A  	fcall	_READ_SPI
  2656  0DAE  00F4               	movwf	??_LEER_S1
  2657  0DAF  0874               	movf	??_LEER_S1,w
  2658  0DB0  00FB               	movwf	_POTENCIOMETRO
  2659  0DB1                     l3036:
  2660                           
  2661                           ;Principal_Master.c: 168:       _delay((unsigned long)((2)*(8000000/4000.0)));
  2662  0DB1  3006               	movlw	6
  2663  0DB2  00F5               	movwf	??_LEER_S1+1
  2664  0DB3  3030               	movlw	48
  2665  0DB4  00F4               	movwf	??_LEER_S1
  2666  0DB5                     u257:
  2667  0DB5  0BF4               	decfsz	??_LEER_S1,f
  2668  0DB6  2DB5               	goto	u257
  2669  0DB7  0BF5               	decfsz	??_LEER_S1+1,f
  2670  0DB8  2DB5               	goto	u257
  2671  0DB9  0000               	nop
  2672  0DBA                     l3038:
  2673                           
  2674                           ;Principal_Master.c: 170:      PORTEbits.RE0 =1;
  2675  0DBA  1283               	bcf	3,5	;RP0=0, select bank0
  2676  0DBB  1303               	bcf	3,6	;RP1=0, select bank0
  2677  0DBC  1409               	bsf	9,0	;volatile
  2678  0DBD                     l155:
  2679  0DBD  0008               	return
  2680  0DBE                     __end_of_LEER_S1:
  2681                           
  2682                           	psect	text6
  2683  07EF                     __ptext6:	
  2684 ;; *************** function _READ_SPI *****************
  2685 ;; Defined at:
  2686 ;;		line 33 in file "SPI_Master.c"
  2687 ;; Parameters:    Size  Location     Type
  2688 ;;  data            1    wreg     unsigned char 
  2689 ;; Auto vars:     Size  Location     Type
  2690 ;;  data            1    3[COMMON] unsigned char 
  2691 ;;  dummy           1    0        unsigned char 
  2692 ;; Return value:  Size  Location     Type
  2693 ;;                  1    wreg      unsigned char 
  2694 ;; Registers used:
  2695 ;;		wreg
  2696 ;; Tracked objects:
  2697 ;;		On entry : 0/0
  2698 ;;		On exit  : 0/0
  2699 ;;		Unchanged: 0/0
  2700 ;; Data sizes:     COMMON   BANK0   BANK1   BANK3   BANK2
  2701 ;;      Params:         0       0       0       0       0
  2702 ;;      Locals:         2       0       0       0       0
  2703 ;;      Temps:          0       0       0       0       0
  2704 ;;      Totals:         2       0       0       0       0
  2705 ;;Total ram usage:        2 bytes
  2706 ;; Hardware stack levels used:    1
  2707 ;; Hardware stack levels required when called:    2
  2708 ;; This function calls:
  2709 ;;		Nothing
  2710 ;; This function is called by:
  2711 ;;		_LEER_S1
  2712 ;;		_LEER_S2
  2713 ;;		_LEER_S3
  2714 ;; This function uses a non-reentrant model
  2715 ;;
  2716                           
  2717                           
  2718                           ;psect for function _READ_SPI
  2719  07EF                     _READ_SPI:
  2720                           
  2721                           ;incstack = 0
  2722                           ; Regs used in _READ_SPI: [wreg]
  2723                           ;READ_SPI@data stored from wreg
  2724  07EF  00F3               	movwf	READ_SPI@data
  2725  07F0                     l2944:
  2726  07F0  1283               	bcf	3,5	;RP0=0, select bank0
  2727  07F1  1303               	bcf	3,6	;RP1=0, select bank0
  2728  07F2  0813               	movf	19,w	;volatile
  2729                           
  2730                           ;SPI_Master.c: 36:     SSPBUF = data;
  2731  07F3  0873               	movf	READ_SPI@data,w
  2732  07F4  0093               	movwf	19	;volatile
  2733  07F5                     l27:	
  2734                           ;SPI_Master.c: 37:      while ( !SSPSTATbits.BF );
  2735                           
  2736  07F5  1683               	bsf	3,5	;RP0=1, select bank1
  2737  07F6  1303               	bcf	3,6	;RP1=0, select bank1
  2738  07F7  1C14               	btfss	20,0	;volatile
  2739  07F8  2FFA               	goto	u91
  2740  07F9  2FFB               	goto	u90
  2741  07FA                     u91:
  2742  07FA  2FF5               	goto	l27
  2743  07FB                     u90:
  2744  07FB                     l2946:
  2745                           
  2746                           ;SPI_Master.c: 39:   return(SSPBUF);
  2747  07FB  1283               	bcf	3,5	;RP0=0, select bank0
  2748  07FC  1303               	bcf	3,6	;RP1=0, select bank0
  2749  07FD  0813               	movf	19,w	;volatile
  2750  07FE                     l30:
  2751  07FE  0008               	return
  2752  07FF                     __end_of_READ_SPI:
  2753                           
  2754                           	psect	text7
  2755  0E49                     __ptext7:	
  2756 ;; *************** function _LCD *****************
  2757 ;; Defined at:
  2758 ;;		line 148 in file "Principal_Master.c"
  2759 ;; Parameters:    Size  Location     Type
  2760 ;;		None
  2761 ;; Auto vars:     Size  Location     Type
  2762 ;;		None
  2763 ;; Return value:  Size  Location     Type
  2764 ;;                  1    wreg      void 
  2765 ;; Registers used:
  2766 ;;		wreg, fsr0l, fsr0h, status,2, status,0, btemp+1, pclath, cstack
  2767 ;; Tracked objects:
  2768 ;;		On entry : 0/0
  2769 ;;		On exit  : 0/0
  2770 ;;		Unchanged: 0/0
  2771 ;; Data sizes:     COMMON   BANK0   BANK1   BANK3   BANK2
  2772 ;;      Params:         0       0       0       0       0
  2773 ;;      Locals:         0       0       0       0       0
  2774 ;;      Temps:          0       1       0       0       0
  2775 ;;      Totals:         0       1       0       0       0
  2776 ;;Total ram usage:        1 bytes
  2777 ;; Hardware stack levels used:    1
  2778 ;; Hardware stack levels required when called:    5
  2779 ;; This function calls:
  2780 ;;		_Lcd_Set_Cursor
  2781 ;;		_Lcd_Write_String
  2782 ;; This function is called by:
  2783 ;;		_main
  2784 ;; This function uses a non-reentrant model
  2785 ;;
  2786                           
  2787                           
  2788                           ;psect for function _LCD
  2789  0E49                     _LCD:
  2790  0E49                     l4766:	
  2791                           ;incstack = 0
  2792                           ; Regs used in _LCD: [wreg-fsr0h+status,2+status,0+btemp+1+pclath+cstack]
  2793                           
  2794                           
  2795                           ;Principal_Master.c: 151:     Lcd_Set_Cursor(2,13);
  2796  0E49  300D               	movlw	13
  2797  0E4A  1283               	bcf	3,5	;RP0=0, select bank0
  2798  0E4B  1303               	bcf	3,6	;RP1=0, select bank0
  2799  0E4C  00AC               	movwf	??_LCD
  2800  0E4D  082C               	movf	??_LCD,w
  2801  0E4E  00F6               	movwf	Lcd_Set_Cursor@b
  2802  0E4F  3002               	movlw	2
  2803  0E50  120A  158A  2625  120A  158A  	fcall	_Lcd_Set_Cursor
  2804  0E55                     l4768:
  2805                           
  2806                           ;Principal_Master.c: 152:     Lcd_Write_String(TEMP_r);
  2807  0E55  1283               	bcf	3,5	;RP0=0, select bank0
  2808  0E56  1303               	bcf	3,6	;RP1=0, select bank0
  2809  0E57  0820               	movf	_TEMP_r,w
  2810  0E58  00F5               	movwf	Lcd_Write_String@a
  2811  0E59  0821               	movf	_TEMP_r+1,w
  2812  0E5A  00F6               	movwf	Lcd_Write_String@a+1
  2813  0E5B  120A  118A  27A9  120A  158A  	fcall	_Lcd_Write_String
  2814  0E60                     l4770:
  2815                           
  2816                           ;Principal_Master.c: 154:     Lcd_Set_Cursor(2,7);
  2817  0E60  3007               	movlw	7
  2818  0E61  1283               	bcf	3,5	;RP0=0, select bank0
  2819  0E62  1303               	bcf	3,6	;RP1=0, select bank0
  2820  0E63  00AC               	movwf	??_LCD
  2821  0E64  082C               	movf	??_LCD,w
  2822  0E65  00F6               	movwf	Lcd_Set_Cursor@b
  2823  0E66  3002               	movlw	2
  2824  0E67  120A  158A  2625  120A  158A  	fcall	_Lcd_Set_Cursor
  2825                           
  2826                           ;Principal_Master.c: 155:     Lcd_Write_String(CONT_r);
  2827  0E6C  1283               	bcf	3,5	;RP0=0, select bank0
  2828  0E6D  1303               	bcf	3,6	;RP1=0, select bank0
  2829  0E6E  0822               	movf	_CONT_r,w
  2830  0E6F  00F5               	movwf	Lcd_Write_String@a
  2831  0E70  0823               	movf	_CONT_r+1,w
  2832  0E71  00F6               	movwf	Lcd_Write_String@a+1
  2833  0E72  120A  118A  27A9  120A  158A  	fcall	_Lcd_Write_String
  2834  0E77                     l4772:
  2835                           
  2836                           ;Principal_Master.c: 157:     Lcd_Set_Cursor(2,1);
  2837  0E77  01F6               	clrf	Lcd_Set_Cursor@b
  2838  0E78  0AF6               	incf	Lcd_Set_Cursor@b,f
  2839  0E79  3002               	movlw	2
  2840  0E7A  120A  158A  2625  120A  158A  	fcall	_Lcd_Set_Cursor
  2841  0E7F                     l4774:
  2842                           
  2843                           ;Principal_Master.c: 158:     Lcd_Write_String(POT_r);
  2844  0E7F  1283               	bcf	3,5	;RP0=0, select bank0
  2845  0E80  1303               	bcf	3,6	;RP1=0, select bank0
  2846  0E81  0824               	movf	_POT_r,w
  2847  0E82  00F5               	movwf	Lcd_Write_String@a
  2848  0E83  0825               	movf	_POT_r+1,w
  2849  0E84  00F6               	movwf	Lcd_Write_String@a+1
  2850  0E85  120A  118A  27A9  120A  158A  	fcall	_Lcd_Write_String
  2851  0E8A                     l152:
  2852  0E8A  0008               	return
  2853  0E8B                     __end_of_LCD:
  2854                           
  2855                           	psect	text8
  2856  07A9                     __ptext8:	
  2857 ;; *************** function _Lcd_Write_String *****************
  2858 ;; Defined at:
  2859 ;;		line 60 in file "LCD.c"
  2860 ;; Parameters:    Size  Location     Type
  2861 ;;  a               2    5[COMMON] PTR unsigned char 
  2862 ;;		 -> NULL(0), STR_259(4), STR_258(4), STR_257(4), 
  2863 ;;		 -> STR_256(4), STR_255(4), STR_254(4), STR_253(4), 
  2864 ;;		 -> STR_252(4), STR_251(4), STR_250(4), STR_249(4), 
  2865 ;;		 -> STR_248(4), STR_247(4), STR_246(4), STR_245(4), 
  2866 ;;		 -> STR_244(4), STR_243(4), STR_242(4), STR_241(4), 
  2867 ;;		 -> STR_240(4), STR_239(4), STR_238(4), STR_237(4), 
  2868 ;;		 -> STR_236(4), STR_235(4), STR_234(4), STR_233(4), 
  2869 ;;		 -> STR_232(4), STR_231(4), STR_230(4), STR_229(4), 
  2870 ;;		 -> STR_228(4), STR_227(4), STR_226(4), STR_225(4), 
  2871 ;;		 -> STR_224(4), STR_223(4), STR_222(4), STR_221(4), 
  2872 ;;		 -> STR_220(4), STR_219(4), STR_218(4), STR_217(4), 
  2873 ;;		 -> STR_216(4), STR_215(4), STR_214(4), STR_213(4), 
  2874 ;;		 -> STR_212(4), STR_211(4), STR_210(4), STR_209(4), 
  2875 ;;		 -> STR_208(4), STR_207(4), STR_206(4), STR_205(4), 
  2876 ;;		 -> STR_204(3), STR_203(4), STR_202(4), STR_201(4), 
  2877 ;;		 -> STR_200(4), STR_199(4), STR_198(4), STR_197(4), 
  2878 ;;		 -> STR_196(4), STR_195(4), STR_194(4), STR_193(4), 
  2879 ;;		 -> STR_192(4), STR_191(4), STR_190(4), STR_189(4), 
  2880 ;;		 -> STR_188(4), STR_187(4), STR_186(4), STR_185(4), 
  2881 ;;		 -> STR_184(4), STR_183(4), STR_182(4), STR_181(4), 
  2882 ;;		 -> STR_180(4), STR_179(4), STR_178(4), STR_177(4), 
  2883 ;;		 -> STR_176(4), STR_175(4), STR_174(4), STR_173(4), 
  2884 ;;		 -> STR_172(4), STR_171(4), STR_170(4), STR_169(4), 
  2885 ;;		 -> STR_168(4), STR_167(4), STR_166(4), STR_165(4), 
  2886 ;;		 -> STR_164(4), STR_163(4), STR_162(4), STR_161(4), 
  2887 ;;		 -> STR_160(4), STR_159(4), STR_158(4), STR_157(2), 
  2888 ;;		 -> STR_156(2), STR_155(4), STR_154(4), STR_153(4), 
  2889 ;;		 -> STR_152(4), STR_151(4), STR_150(4), STR_149(4), 
  2890 ;;		 -> STR_148(4), STR_147(4), STR_146(4), STR_145(4), 
  2891 ;;		 -> STR_144(4), STR_143(4), STR_142(4), STR_141(4), 
  2892 ;;		 -> STR_140(4), STR_139(4), STR_138(4), STR_137(4), 
  2893 ;;		 -> STR_136(4), STR_135(4), STR_134(4), STR_133(4), 
  2894 ;;		 -> STR_132(4), STR_131(4), STR_130(4), STR_129(4), 
  2895 ;;		 -> STR_128(4), STR_127(4), STR_126(4), STR_125(4), 
  2896 ;;		 -> STR_124(4), STR_123(4), STR_122(4), STR_121(4), 
  2897 ;;		 -> STR_120(4), STR_119(4), STR_118(4), STR_117(4), 
  2898 ;;		 -> STR_116(4), STR_115(4), STR_114(4), STR_113(4), 
  2899 ;;		 -> STR_112(4), STR_111(4), STR_110(4), STR_109(4), 
  2900 ;;		 -> STR_108(4), STR_107(4), STR_106(4), STR_105(4), 
  2901 ;;		 -> STR_104(4), STR_103(4), STR_102(4), STR_101(4), 
  2902 ;;		 -> STR_100(4), STR_99(4), STR_98(4), STR_97(4), 
  2903 ;;		 -> STR_96(4), STR_95(4), STR_94(4), STR_93(4), 
  2904 ;;		 -> STR_92(4), STR_91(4), STR_90(4), STR_89(4), 
  2905 ;;		 -> STR_88(4), STR_87(4), STR_86(4), STR_85(4), 
  2906 ;;		 -> STR_84(4), STR_83(4), STR_82(4), STR_81(4), 
  2907 ;;		 -> STR_80(4), STR_79(4), STR_78(4), STR_77(4), 
  2908 ;;		 -> STR_76(4), STR_75(4), STR_74(4), STR_73(4), 
  2909 ;;		 -> STR_72(4), STR_71(4), STR_70(4), STR_69(4), 
  2910 ;;		 -> STR_68(4), STR_67(4), STR_66(4), STR_65(4), 
  2911 ;;		 -> STR_64(4), STR_63(4), STR_62(4), STR_61(4), 
  2912 ;;		 -> STR_60(4), STR_59(4), STR_58(4), STR_57(4), 
  2913 ;;		 -> STR_56(4), STR_55(4), STR_54(4), STR_53(4), 
  2914 ;;		 -> STR_52(4), STR_51(4), STR_50(4), STR_49(4), 
  2915 ;;		 -> STR_48(4), STR_47(4), STR_46(4), STR_45(4), 
  2916 ;;		 -> STR_44(4), STR_43(4), STR_42(4), STR_41(4), 
  2917 ;;		 -> STR_40(4), STR_39(4), STR_38(4), STR_37(4), 
  2918 ;;		 -> STR_36(4), STR_35(4), STR_34(4), STR_33(4), 
  2919 ;;		 -> STR_32(4), STR_31(4), STR_30(4), STR_29(4), 
  2920 ;;		 -> STR_28(4), STR_27(4), STR_26(4), STR_25(4), 
  2921 ;;		 -> STR_24(4), STR_23(4), STR_22(4), STR_21(4), 
  2922 ;;		 -> STR_20(4), STR_19(4), STR_18(4), STR_17(4), 
  2923 ;;		 -> STR_16(4), STR_15(4), STR_14(4), STR_13(4), 
  2924 ;;		 -> STR_12(4), STR_11(4), STR_10(4), STR_9(4), 
  2925 ;;		 -> STR_8(4), STR_7(4), STR_6(4), STR_5(4), 
  2926 ;;		 -> STR_4(4), STR_3(5), STR_2(5), STR_1(4), 
  2927 ;; Auto vars:     Size  Location     Type
  2928 ;;  i               2    0[BANK0 ] int 
  2929 ;; Return value:  Size  Location     Type
  2930 ;;                  1    wreg      void 
  2931 ;; Registers used:
  2932 ;;		wreg, fsr0l, fsr0h, status,2, status,0, btemp+1, pclath, cstack
  2933 ;; Tracked objects:
  2934 ;;		On entry : 0/0
  2935 ;;		On exit  : 0/0
  2936 ;;		Unchanged: 0/0
  2937 ;; Data sizes:     COMMON   BANK0   BANK1   BANK3   BANK2
  2938 ;;      Params:         2       0       0       0       0
  2939 ;;      Locals:         0       2       0       0       0
  2940 ;;      Temps:          3       0       0       0       0
  2941 ;;      Totals:         5       2       0       0       0
  2942 ;;Total ram usage:        7 bytes
  2943 ;; Hardware stack levels used:    1
  2944 ;; Hardware stack levels required when called:    4
  2945 ;; This function calls:
  2946 ;;		_Lcd_Write_Char
  2947 ;; This function is called by:
  2948 ;;		_SETUP
  2949 ;;		_LCD
  2950 ;; This function uses a non-reentrant model
  2951 ;;
  2952                           
  2953                           
  2954                           ;psect for function _Lcd_Write_String
  2955  07A9                     _Lcd_Write_String:
  2956  07A9                     l4698:	
  2957                           ;incstack = 0
  2958                           ; Regs used in _Lcd_Write_String: [wreg-fsr0h+status,2+status,0+btemp+1+pclath+cstack]
  2959                           
  2960                           
  2961                           ;LCD.c: 61:    int i;;LCD.c: 62:  for(i=0;a[i]!='\0';i++)
  2962  07A9  1283               	bcf	3,5	;RP0=0, select bank0
  2963  07AA  1303               	bcf	3,6	;RP1=0, select bank0
  2964  07AB  01AA               	clrf	Lcd_Write_String@i
  2965  07AC  01AB               	clrf	Lcd_Write_String@i+1
  2966  07AD  2FD2               	goto	l4704
  2967  07AE                     l4700:
  2968                           
  2969                           ;LCD.c: 63:     Lcd_Write_Char(a[i]);
  2970  07AE  082A               	movf	Lcd_Write_String@i,w
  2971  07AF  0775               	addwf	Lcd_Write_String@a,w
  2972  07B0  00F8               	movwf	??_Lcd_Write_String+1
  2973  07B1  0876               	movf	Lcd_Write_String@a+1,w
  2974  07B2  00F7               	movwf	??_Lcd_Write_String
  2975  07B3  1803               	skipnc
  2976  07B4  0AF7               	incf	??_Lcd_Write_String,f
  2977  07B5  1FAA               	btfss	Lcd_Write_String@i,7
  2978  07B6  2FB8               	goto	u170
  2979  07B7  03F7               	decf	??_Lcd_Write_String,f
  2980  07B8                     u170:
  2981  07B8  0877               	movf	??_Lcd_Write_String,w
  2982  07B9  00F9               	movwf	??_Lcd_Write_String+2
  2983  07BA  0879               	movf	??_Lcd_Write_String+2,w
  2984  07BB  1283               	bcf	3,5	;RP0=0, select bank0
  2985  07BC  1303               	bcf	3,6	;RP1=0, select bank0
  2986  07BD  00FF               	movwf	btemp+1
  2987  07BE  0878               	movf	??_Lcd_Write_String+1,w
  2988  07BF  0084               	movwf	4
  2989  07C0  120A  158A  2402  120A  118A  	fcall	stringtab
  2990  07C5  120A  158A  2576  120A  118A  	fcall	_Lcd_Write_Char
  2991  07CA                     l4702:
  2992  07CA  3001               	movlw	1
  2993  07CB  1283               	bcf	3,5	;RP0=0, select bank0
  2994  07CC  1303               	bcf	3,6	;RP1=0, select bank0
  2995  07CD  07AA               	addwf	Lcd_Write_String@i,f
  2996  07CE  1803               	skipnc
  2997  07CF  0AAB               	incf	Lcd_Write_String@i+1,f
  2998  07D0  3000               	movlw	0
  2999  07D1  07AB               	addwf	Lcd_Write_String@i+1,f
  3000  07D2                     l4704:
  3001  07D2  082A               	movf	Lcd_Write_String@i,w
  3002  07D3  0775               	addwf	Lcd_Write_String@a,w
  3003  07D4  00F8               	movwf	??_Lcd_Write_String+1
  3004  07D5  0876               	movf	Lcd_Write_String@a+1,w
  3005  07D6  00F7               	movwf	??_Lcd_Write_String
  3006  07D7  1803               	skipnc
  3007  07D8  0AF7               	incf	??_Lcd_Write_String,f
  3008  07D9  1FAA               	btfss	Lcd_Write_String@i,7
  3009  07DA  2FDC               	goto	u180
  3010  07DB  03F7               	decf	??_Lcd_Write_String,f
  3011  07DC                     u180:
  3012  07DC  0877               	movf	??_Lcd_Write_String,w
  3013  07DD  00F9               	movwf	??_Lcd_Write_String+2
  3014  07DE  0879               	movf	??_Lcd_Write_String+2,w
  3015  07DF  1283               	bcf	3,5	;RP0=0, select bank0
  3016  07E0  1303               	bcf	3,6	;RP1=0, select bank0
  3017  07E1  00FF               	movwf	btemp+1
  3018  07E2  0878               	movf	??_Lcd_Write_String+1,w
  3019  07E3  0084               	movwf	4
  3020  07E4  120A  158A  2402  120A  118A  	fcall	stringtab
  3021  07E9  3A00               	xorlw	0
  3022  07EA  1D03               	skipz
  3023  07EB  2FED               	goto	u191
  3024  07EC  2FEE               	goto	u190
  3025  07ED                     u191:
  3026  07ED  2FAE               	goto	l4700
  3027  07EE                     u190:
  3028  07EE                     l197:
  3029  07EE  0008               	return
  3030  07EF                     __end_of_Lcd_Write_String:
  3031                           
  3032                           	psect	text9
  3033  0D76                     __ptext9:	
  3034 ;; *************** function _Lcd_Write_Char *****************
  3035 ;; Defined at:
  3036 ;;		line 50 in file "LCD.c"
  3037 ;; Parameters:    Size  Location     Type
  3038 ;;  a               1    wreg     unsigned char 
  3039 ;; Auto vars:     Size  Location     Type
  3040 ;;  a               1    4[COMMON] unsigned char 
  3041 ;; Return value:  Size  Location     Type
  3042 ;;                  1    wreg      void 
  3043 ;; Registers used:
  3044 ;;		wreg, status,2, status,0, pclath, cstack
  3045 ;; Tracked objects:
  3046 ;;		On entry : 0/0
  3047 ;;		On exit  : 0/0
  3048 ;;		Unchanged: 0/0
  3049 ;; Data sizes:     COMMON   BANK0   BANK1   BANK3   BANK2
  3050 ;;      Params:         0       0       0       0       0
  3051 ;;      Locals:         1       0       0       0       0
  3052 ;;      Temps:          1       0       0       0       0
  3053 ;;      Totals:         2       0       0       0       0
  3054 ;;Total ram usage:        2 bytes
  3055 ;; Hardware stack levels used:    1
  3056 ;; Hardware stack levels required when called:    3
  3057 ;; This function calls:
  3058 ;;		_Lcd_Port
  3059 ;; This function is called by:
  3060 ;;		_Lcd_Write_String
  3061 ;; This function uses a non-reentrant model
  3062 ;;
  3063                           
  3064                           
  3065                           ;psect for function _Lcd_Write_Char
  3066  0D76                     _Lcd_Write_Char:
  3067                           
  3068                           ;incstack = 0
  3069                           ; Regs used in _Lcd_Write_Char: [wreg+status,2+status,0+pclath+cstack]
  3070                           ;Lcd_Write_Char@a stored from wreg
  3071  0D76  00F4               	movwf	Lcd_Write_Char@a
  3072  0D77                     l4672:
  3073                           
  3074                           ;LCD.c: 52:    PORTCbits.RC1 = 1;
  3075  0D77  1283               	bcf	3,5	;RP0=0, select bank0
  3076  0D78  1303               	bcf	3,6	;RP1=0, select bank0
  3077  0D79  1487               	bsf	7,1	;volatile
  3078  0D7A                     l4674:
  3079                           
  3080                           ;LCD.c: 53:    Lcd_Port(a);
  3081  0D7A  0874               	movf	Lcd_Write_Char@a,w
  3082  0D7B  120A  158A  2570  120A  158A  	fcall	_Lcd_Port
  3083  0D80                     l4676:
  3084                           
  3085                           ;LCD.c: 54:    PORTCbits.RC0 = 1;
  3086  0D80  1283               	bcf	3,5	;RP0=0, select bank0
  3087  0D81  1303               	bcf	3,6	;RP1=0, select bank0
  3088  0D82  1407               	bsf	7,0	;volatile
  3089  0D83                     l4678:
  3090                           
  3091                           ;LCD.c: 55:    _delay((unsigned long)((40)*(8000000/4000000.0)));
  3092  0D83  301A               	movlw	26
  3093  0D84  00F3               	movwf	??_Lcd_Write_Char
  3094  0D85                     u267:
  3095  0D85  0BF3               	decfsz	??_Lcd_Write_Char,f
  3096  0D86  2D85               	goto	u267
  3097  0D87  0000               	nop
  3098  0D88                     l4680:
  3099                           
  3100                           ;LCD.c: 56:    PORTCbits.RC0 = 0;
  3101  0D88  1283               	bcf	3,5	;RP0=0, select bank0
  3102  0D89  1303               	bcf	3,6	;RP1=0, select bank0
  3103  0D8A  1007               	bcf	7,0	;volatile
  3104  0D8B                     l4682:
  3105                           
  3106                           ;LCD.c: 57:    PORTCbits.RC1 = 0;
  3107  0D8B  1087               	bcf	7,1	;volatile
  3108  0D8C                     l191:
  3109  0D8C  0008               	return
  3110  0D8D                     __end_of_Lcd_Write_Char:
  3111                           
  3112                           	psect	text10
  3113  0E25                     __ptext10:	
  3114 ;; *************** function _Lcd_Set_Cursor *****************
  3115 ;; Defined at:
  3116 ;;		line 30 in file "LCD.c"
  3117 ;; Parameters:    Size  Location     Type
  3118 ;;  a               1    wreg     unsigned char 
  3119 ;;  b               1    6[COMMON] unsigned char 
  3120 ;; Auto vars:     Size  Location     Type
  3121 ;;  a               1    8[COMMON] unsigned char 
  3122 ;;  temp            1    9[COMMON] unsigned char 
  3123 ;; Return value:  Size  Location     Type
  3124 ;;                  1    wreg      void 
  3125 ;; Registers used:
  3126 ;;		wreg, status,2, status,0, pclath, cstack
  3127 ;; Tracked objects:
  3128 ;;		On entry : 0/0
  3129 ;;		On exit  : 0/0
  3130 ;;		Unchanged: 0/0
  3131 ;; Data sizes:     COMMON   BANK0   BANK1   BANK3   BANK2
  3132 ;;      Params:         1       0       0       0       0
  3133 ;;      Locals:         2       0       0       0       0
  3134 ;;      Temps:          1       0       0       0       0
  3135 ;;      Totals:         4       0       0       0       0
  3136 ;;Total ram usage:        4 bytes
  3137 ;; Hardware stack levels used:    1
  3138 ;; Hardware stack levels required when called:    4
  3139 ;; This function calls:
  3140 ;;		_Lcd_Cmd
  3141 ;; This function is called by:
  3142 ;;		_SETUP
  3143 ;;		_LCD
  3144 ;; This function uses a non-reentrant model
  3145 ;;
  3146                           
  3147                           
  3148                           ;psect for function _Lcd_Set_Cursor
  3149  0E25                     _Lcd_Set_Cursor:
  3150                           
  3151                           ;incstack = 0
  3152                           ; Regs used in _Lcd_Set_Cursor: [wreg+status,2+status,0+pclath+cstack]
  3153                           ;Lcd_Set_Cursor@a stored from wreg
  3154  0E25  00F8               	movwf	Lcd_Set_Cursor@a
  3155  0E26                     l4686:
  3156                           
  3157                           ;LCD.c: 32:     char temp;;LCD.c: 33:     if (a == 1) {
  3158  0E26  0378               	decf	Lcd_Set_Cursor@a,w
  3159  0E27  1D03               	btfss	3,2
  3160  0E28  2E2A               	goto	u151
  3161  0E29  2E2B               	goto	u150
  3162  0E2A                     u151:
  3163  0E2A  2E37               	goto	l4692
  3164  0E2B                     u150:
  3165  0E2B                     l4688:
  3166                           
  3167                           ;LCD.c: 34:         temp = 0x80 + b - 1;
  3168  0E2B  0876               	movf	Lcd_Set_Cursor@b,w
  3169  0E2C  3E7F               	addlw	127
  3170  0E2D  00F7               	movwf	??_Lcd_Set_Cursor
  3171  0E2E  0877               	movf	??_Lcd_Set_Cursor,w
  3172  0E2F  00F9               	movwf	Lcd_Set_Cursor@temp
  3173  0E30                     l4690:
  3174                           
  3175                           ;LCD.c: 35:         Lcd_Cmd(temp);
  3176  0E30  0879               	movf	Lcd_Set_Cursor@temp,w
  3177  0E31  120A  158A  258D  120A  158A  	fcall	_Lcd_Cmd
  3178                           
  3179                           ;LCD.c: 36:     } else if (a == 2) {
  3180  0E36  2E48               	goto	l185
  3181  0E37                     l4692:
  3182  0E37  3002               	movlw	2
  3183  0E38  0678               	xorwf	Lcd_Set_Cursor@a,w
  3184  0E39  1D03               	btfss	3,2
  3185  0E3A  2E3C               	goto	u161
  3186  0E3B  2E3D               	goto	u160
  3187  0E3C                     u161:
  3188  0E3C  2E48               	goto	l185
  3189  0E3D                     u160:
  3190  0E3D                     l4694:
  3191                           
  3192                           ;LCD.c: 37:         temp = 0xC0 + b - 1;
  3193  0E3D  0876               	movf	Lcd_Set_Cursor@b,w
  3194  0E3E  3EBF               	addlw	191
  3195  0E3F  00F7               	movwf	??_Lcd_Set_Cursor
  3196  0E40  0877               	movf	??_Lcd_Set_Cursor,w
  3197  0E41  00F9               	movwf	Lcd_Set_Cursor@temp
  3198  0E42                     l4696:
  3199                           
  3200                           ;LCD.c: 38:         Lcd_Cmd(temp);
  3201  0E42  0879               	movf	Lcd_Set_Cursor@temp,w
  3202  0E43  120A  158A  258D  120A  158A  	fcall	_Lcd_Cmd
  3203  0E48                     l185:
  3204  0E48  0008               	return
  3205  0E49                     __end_of_Lcd_Set_Cursor:
  3206                           
  3207                           	psect	text11
  3208  0D8D                     __ptext11:	
  3209 ;; *************** function _Lcd_Cmd *****************
  3210 ;; Defined at:
  3211 ;;		line 16 in file "LCD.c"
  3212 ;; Parameters:    Size  Location     Type
  3213 ;;  a               1    wreg     unsigned char 
  3214 ;; Auto vars:     Size  Location     Type
  3215 ;;  a               1    5[COMMON] unsigned char 
  3216 ;; Return value:  Size  Location     Type
  3217 ;;                  1    wreg      void 
  3218 ;; Registers used:
  3219 ;;		wreg, status,2, status,0, pclath, cstack
  3220 ;; Tracked objects:
  3221 ;;		On entry : 0/0
  3222 ;;		On exit  : 0/0
  3223 ;;		Unchanged: 0/0
  3224 ;; Data sizes:     COMMON   BANK0   BANK1   BANK3   BANK2
  3225 ;;      Params:         0       0       0       0       0
  3226 ;;      Locals:         1       0       0       0       0
  3227 ;;      Temps:          2       0       0       0       0
  3228 ;;      Totals:         3       0       0       0       0
  3229 ;;Total ram usage:        3 bytes
  3230 ;; Hardware stack levels used:    1
  3231 ;; Hardware stack levels required when called:    3
  3232 ;; This function calls:
  3233 ;;		_Lcd_Port
  3234 ;; This function is called by:
  3235 ;;		_Lcd_Set_Cursor
  3236 ;;		_Lcd_Init
  3237 ;;		_Lcd_Clear
  3238 ;;		_Lcd_Shift_Right
  3239 ;;		_Lcd_Shift_Left
  3240 ;; This function uses a non-reentrant model
  3241 ;;
  3242                           
  3243                           
  3244                           ;psect for function _Lcd_Cmd
  3245  0D8D                     _Lcd_Cmd:
  3246                           
  3247                           ;incstack = 0
  3248                           ; Regs used in _Lcd_Cmd: [wreg+status,2+status,0+pclath+cstack]
  3249                           ;Lcd_Cmd@a stored from wreg
  3250  0D8D  00F5               	movwf	Lcd_Cmd@a
  3251  0D8E                     l4662:
  3252                           
  3253                           ;LCD.c: 17:     Lcd_Port(a);
  3254  0D8E  0875               	movf	Lcd_Cmd@a,w
  3255  0D8F  120A  158A  2570  120A  158A  	fcall	_Lcd_Port
  3256  0D94                     l4664:
  3257                           
  3258                           ;LCD.c: 18:     PORTCbits.RC1 = 0;
  3259  0D94  1283               	bcf	3,5	;RP0=0, select bank0
  3260  0D95  1303               	bcf	3,6	;RP1=0, select bank0
  3261  0D96  1087               	bcf	7,1	;volatile
  3262  0D97                     l4666:
  3263                           
  3264                           ;LCD.c: 20:     PORTCbits.RC0 = 1;
  3265  0D97  1407               	bsf	7,0	;volatile
  3266  0D98                     l4668:
  3267                           
  3268                           ;LCD.c: 21:     _delay((unsigned long)((5)*(8000000/4000.0)));
  3269  0D98  300D               	movlw	13
  3270  0D99  00F4               	movwf	??_Lcd_Cmd+1
  3271  0D9A  30FB               	movlw	251
  3272  0D9B  00F3               	movwf	??_Lcd_Cmd
  3273  0D9C                     u277:
  3274  0D9C  0BF3               	decfsz	??_Lcd_Cmd,f
  3275  0D9D  2D9C               	goto	u277
  3276  0D9E  0BF4               	decfsz	??_Lcd_Cmd+1,f
  3277  0D9F  2D9C               	goto	u277
  3278  0DA0  2DA1               	nop2
  3279  0DA1                     l4670:
  3280                           
  3281                           ;LCD.c: 22:     PORTCbits.RC0 = 0;
  3282  0DA1  1283               	bcf	3,5	;RP0=0, select bank0
  3283  0DA2  1303               	bcf	3,6	;RP1=0, select bank0
  3284  0DA3  1007               	bcf	7,0	;volatile
  3285  0DA4                     l176:
  3286  0DA4  0008               	return
  3287  0DA5                     __end_of_Lcd_Cmd:
  3288                           
  3289                           	psect	text12
  3290  0D70                     __ptext12:	
  3291 ;; *************** function _Lcd_Port *****************
  3292 ;; Defined at:
  3293 ;;		line 12 in file "LCD.c"
  3294 ;; Parameters:    Size  Location     Type
  3295 ;;  a               1    wreg     unsigned char 
  3296 ;; Auto vars:     Size  Location     Type
  3297 ;;  a               1    2[COMMON] unsigned char 
  3298 ;; Return value:  Size  Location     Type
  3299 ;;                  1    wreg      void 
  3300 ;; Registers used:
  3301 ;;		wreg
  3302 ;; Tracked objects:
  3303 ;;		On entry : 0/0
  3304 ;;		On exit  : 0/0
  3305 ;;		Unchanged: 0/0
  3306 ;; Data sizes:     COMMON   BANK0   BANK1   BANK3   BANK2
  3307 ;;      Params:         0       0       0       0       0
  3308 ;;      Locals:         1       0       0       0       0
  3309 ;;      Temps:          0       0       0       0       0
  3310 ;;      Totals:         1       0       0       0       0
  3311 ;;Total ram usage:        1 bytes
  3312 ;; Hardware stack levels used:    1
  3313 ;; Hardware stack levels required when called:    2
  3314 ;; This function calls:
  3315 ;;		Nothing
  3316 ;; This function is called by:
  3317 ;;		_Lcd_Cmd
  3318 ;;		_Lcd_Write_Char
  3319 ;; This function uses a non-reentrant model
  3320 ;;
  3321                           
  3322                           
  3323                           ;psect for function _Lcd_Port
  3324  0D70                     _Lcd_Port:
  3325                           
  3326                           ;incstack = 0
  3327                           ; Regs used in _Lcd_Port: [wreg]
  3328                           ;Lcd_Port@a stored from wreg
  3329  0D70  00F2               	movwf	Lcd_Port@a
  3330  0D71                     l4660:
  3331                           
  3332                           ;LCD.c: 13:     PORTD = a;
  3333  0D71  0872               	movf	Lcd_Port@a,w
  3334  0D72  1283               	bcf	3,5	;RP0=0, select bank0
  3335  0D73  1303               	bcf	3,6	;RP1=0, select bank0
  3336  0D74  0088               	movwf	8	;volatile
  3337  0D75                     l173:
  3338  0D75  0008               	return
  3339  0D76                     __end_of_Lcd_Port:
  3340                           
  3341                           	psect	text13
  3342  0EFB                     __ptext13:	
  3343 ;; *************** function _CONV *****************
  3344 ;; Defined at:
  3345 ;;		line 76 in file "LCD.c"
  3346 ;; Parameters:    Size  Location     Type
  3347 ;;  numero          1    wreg     unsigned char 
  3348 ;; Auto vars:     Size  Location     Type
  3349 ;;  numero          1    5[COMMON] unsigned char 
  3350 ;; Return value:  Size  Location     Type
  3351 ;;                  2    2[COMMON] PTR const unsigned char 
  3352 ;; Registers used:
  3353 ;;		wreg, fsr0l, fsr0h, status,2, status,0
  3354 ;; Tracked objects:
  3355 ;;		On entry : 0/0
  3356 ;;		On exit  : 0/0
  3357 ;;		Unchanged: 0/0
  3358 ;; Data sizes:     COMMON   BANK0   BANK1   BANK3   BANK2
  3359 ;;      Params:         1       0       0       0       0
  3360 ;;      Locals:         1       0       0       0       0
  3361 ;;      Temps:          2       0       0       0       0
  3362 ;;      Totals:         4       0       0       0       0
  3363 ;;Total ram usage:        4 bytes
  3364 ;; Hardware stack levels used:    1
  3365 ;; Hardware stack levels required when called:    2
  3366 ;; This function calls:
  3367 ;;		Nothing
  3368 ;; This function is called by:
  3369 ;;		_main
  3370 ;; This function uses a non-reentrant model
  3371 ;;
  3372                           
  3373                           
  3374                           ;psect for function _CONV
  3375  0EFB                     _CONV:
  3376                           
  3377                           ;incstack = 0
  3378                           ; Regs used in _CONV: [wreg-fsr0h+status,2+status,0]
  3379                           ;CONV@numero stored from wreg
  3380  0EFB  00F5               	movwf	CONV@numero
  3381  0EFC                     l3040:
  3382                           
  3383                           ;LCD.c: 77:     switch(numero){
  3384  0EFC  120A  118A  2C22   	goto	l4580
  3385  0EFF                     l3042:
  3386                           
  3387                           ;LCD.c: 79:             return "000";
  3388  0EFF  300A               	movlw	low (STR_4| (0+32768))
  3389  0F00  00F2               	movwf	?_CONV
  3390  0F01  3088               	movlw	high (STR_4| (0+32768))
  3391  0F02  00F3               	movwf	?_CONV+1
  3392  0F03                     L1:
  3393  0F03  120A  118A  2F2D   	goto	l208
  3394  0F06                     l3048:
  3395                           
  3396                           ;LCD.c: 82:             return "001";
  3397  0F06  306E               	movlw	low (STR_5| (0+32768))
  3398  0F07  00F2               	movwf	?_CONV
  3399  0F08  3088               	movlw	high (STR_5| (0+32768))
  3400  0F09  00F3               	movwf	?_CONV+1
  3401  0F0A  2F03               	goto	L1
  3402  0F0B                     l3054:
  3403                           
  3404                           ;LCD.c: 85:             return "002";
  3405  0F0B  30D6               	movlw	low (STR_6| (0+32768))
  3406  0F0C  00F2               	movwf	?_CONV
  3407  0F0D  3088               	movlw	high (STR_6| (0+32768))
  3408  0F0E  00F3               	movwf	?_CONV+1
  3409  0F0F  2F03               	goto	L1
  3410  0F10                     l3060:
  3411                           
  3412                           ;LCD.c: 88:             return "003";
  3413  0F10  303A               	movlw	low (STR_7| (0+32768))
  3414  0F11  00F2               	movwf	?_CONV
  3415  0F12  3089               	movlw	high (STR_7| (0+32768))
  3416  0F13  00F3               	movwf	?_CONV+1
  3417  0F14  2F03               	goto	L1
  3418  0F15                     l3066:
  3419                           
  3420                           ;LCD.c: 91:             return "004";
  3421  0F15  309E               	movlw	low (STR_8| (0+32768))
  3422  0F16  00F2               	movwf	?_CONV
  3423  0F17  3089               	movlw	high (STR_8| (0+32768))
  3424  0F18  00F3               	movwf	?_CONV+1
  3425  0F19  2F03               	goto	L1
  3426  0F1A                     l3072:
  3427                           
  3428                           ;LCD.c: 94:             return "005";
  3429  0F1A  3006               	movlw	low (STR_9| (0+32768))
  3430  0F1B  00F2               	movwf	?_CONV
  3431  0F1C  308A               	movlw	high (STR_9| (0+32768))
  3432  0F1D  00F3               	movwf	?_CONV+1
  3433  0F1E  2F03               	goto	L1
  3434  0F1F                     l3078:
  3435                           
  3436                           ;LCD.c: 97:             return "006";
  3437  0F1F  306E               	movlw	low (STR_10| (0+32768))
  3438  0F20  00F2               	movwf	?_CONV
  3439  0F21  308A               	movlw	high (STR_10| (0+32768))
  3440  0F22  00F3               	movwf	?_CONV+1
  3441  0F23  2F03               	goto	L1
  3442  0F24                     l3084:
  3443                           
  3444                           ;LCD.c: 100:             return "007";
  3445  0F24  30D2               	movlw	low (STR_11| (0+32768))
  3446  0F25  00F2               	movwf	?_CONV
  3447  0F26  308A               	movlw	high (STR_11| (0+32768))
  3448  0F27  00F3               	movwf	?_CONV+1
  3449  0F28  2F03               	goto	L1
  3450  0F29                     l3090:
  3451                           
  3452                           ;LCD.c: 103:             return "008";
  3453  0F29  3036               	movlw	low (STR_12| (0+32768))
  3454  0F2A  00F2               	movwf	?_CONV
  3455  0F2B  308B               	movlw	high (STR_12| (0+32768))
  3456  0F2C  00F3               	movwf	?_CONV+1
  3457  0F2D  2F03               	goto	L1
  3458  0F2E                     l3096:
  3459                           
  3460                           ;LCD.c: 106:             return "009";
  3461  0F2E  309A               	movlw	low (STR_13| (0+32768))
  3462  0F2F  00F2               	movwf	?_CONV
  3463  0F30  308B               	movlw	high (STR_13| (0+32768))
  3464  0F31  00F3               	movwf	?_CONV+1
  3465  0F32  2F03               	goto	L1
  3466  0F33                     l3102:
  3467                           
  3468                           ;LCD.c: 109:             return "010";
  3469  0F33  3012               	movlw	low (STR_14| (0+32768))
  3470  0F34  00F2               	movwf	?_CONV
  3471  0F35  3088               	movlw	high (STR_14| (0+32768))
  3472  0F36  00F3               	movwf	?_CONV+1
  3473  0F37  2F03               	goto	L1
  3474  0F38                     l3108:
  3475                           
  3476                           ;LCD.c: 112:             return "011";
  3477  0F38  307A               	movlw	low (STR_15| (0+32768))
  3478  0F39  00F2               	movwf	?_CONV
  3479  0F3A  3088               	movlw	high (STR_15| (0+32768))
  3480  0F3B  00F3               	movwf	?_CONV+1
  3481  0F3C  2F03               	goto	L1
  3482  0F3D                     l3114:
  3483                           
  3484                           ;LCD.c: 115:             return "012";
  3485  0F3D  30E2               	movlw	low (STR_16| (0+32768))
  3486  0F3E  00F2               	movwf	?_CONV
  3487  0F3F  3088               	movlw	high (STR_16| (0+32768))
  3488  0F40  00F3               	movwf	?_CONV+1
  3489  0F41  2F03               	goto	L1
  3490  0F42                     l3120:
  3491                           
  3492                           ;LCD.c: 118:             return "013";
  3493  0F42  3046               	movlw	low (STR_17| (0+32768))
  3494  0F43  00F2               	movwf	?_CONV
  3495  0F44  3089               	movlw	high (STR_17| (0+32768))
  3496  0F45  00F3               	movwf	?_CONV+1
  3497  0F46  2F03               	goto	L1
  3498  0F47                     l3126:
  3499                           
  3500                           ;LCD.c: 121:             return "014";
  3501  0F47  30AA               	movlw	low (STR_18| (0+32768))
  3502  0F48  00F2               	movwf	?_CONV
  3503  0F49  3089               	movlw	high (STR_18| (0+32768))
  3504  0F4A  00F3               	movwf	?_CONV+1
  3505  0F4B  2F03               	goto	L1
  3506  0F4C                     l3132:
  3507                           
  3508                           ;LCD.c: 124:             return "015";
  3509  0F4C  3012               	movlw	low (STR_19| (0+32768))
  3510  0F4D  00F2               	movwf	?_CONV
  3511  0F4E  308A               	movlw	high (STR_19| (0+32768))
  3512  0F4F  00F3               	movwf	?_CONV+1
  3513  0F50  2F03               	goto	L1
  3514  0F51                     l3138:
  3515                           
  3516                           ;LCD.c: 127:             return "016";
  3517  0F51  307A               	movlw	low (STR_20| (0+32768))
  3518  0F52  00F2               	movwf	?_CONV
  3519  0F53  308A               	movlw	high (STR_20| (0+32768))
  3520  0F54  00F3               	movwf	?_CONV+1
  3521  0F55  2F03               	goto	L1
  3522  0F56                     l3144:
  3523                           
  3524                           ;LCD.c: 130:             return "017";
  3525  0F56  30DE               	movlw	low (STR_21| (0+32768))
  3526  0F57  00F2               	movwf	?_CONV
  3527  0F58  308A               	movlw	high (STR_21| (0+32768))
  3528  0F59  00F3               	movwf	?_CONV+1
  3529  0F5A  2F03               	goto	L1
  3530  0F5B                     l3150:
  3531                           
  3532                           ;LCD.c: 133:             return "018";
  3533  0F5B  3042               	movlw	low (STR_22| (0+32768))
  3534  0F5C  00F2               	movwf	?_CONV
  3535  0F5D  308B               	movlw	high (STR_22| (0+32768))
  3536  0F5E  00F3               	movwf	?_CONV+1
  3537  0F5F  2F03               	goto	L1
  3538  0F60                     l3156:
  3539                           
  3540                           ;LCD.c: 136:             return "019";
  3541  0F60  30A6               	movlw	low (STR_23| (0+32768))
  3542  0F61  00F2               	movwf	?_CONV
  3543  0F62  308B               	movlw	high (STR_23| (0+32768))
  3544  0F63  00F3               	movwf	?_CONV+1
  3545  0F64  2F03               	goto	L1
  3546  0F65                     l3162:
  3547                           
  3548                           ;LCD.c: 139:             return "020";
  3549  0F65  301E               	movlw	low (STR_24| (0+32768))
  3550  0F66  00F2               	movwf	?_CONV
  3551  0F67  3088               	movlw	high (STR_24| (0+32768))
  3552  0F68  00F3               	movwf	?_CONV+1
  3553  0F69  2F03               	goto	L1
  3554  0F6A                     l3168:
  3555                           
  3556                           ;LCD.c: 142:             return "021";
  3557  0F6A  3086               	movlw	low (STR_25| (0+32768))
  3558  0F6B  00F2               	movwf	?_CONV
  3559  0F6C  3088               	movlw	high (STR_25| (0+32768))
  3560  0F6D  00F3               	movwf	?_CONV+1
  3561  0F6E  2F03               	goto	L1
  3562  0F6F                     l3174:
  3563                           
  3564                           ;LCD.c: 145:             return "022";
  3565  0F6F  30EE               	movlw	low (STR_26| (0+32768))
  3566  0F70  00F2               	movwf	?_CONV
  3567  0F71  3088               	movlw	high (STR_26| (0+32768))
  3568  0F72  00F3               	movwf	?_CONV+1
  3569  0F73  2F03               	goto	L1
  3570  0F74                     l3180:
  3571                           
  3572                           ;LCD.c: 148:             return "023";
  3573  0F74  3052               	movlw	low (STR_27| (0+32768))
  3574  0F75  00F2               	movwf	?_CONV
  3575  0F76  3089               	movlw	high (STR_27| (0+32768))
  3576  0F77  00F3               	movwf	?_CONV+1
  3577  0F78  2F03               	goto	L1
  3578  0F79                     l3186:
  3579                           
  3580                           ;LCD.c: 151:             return "024";
  3581  0F79  30B6               	movlw	low (STR_28| (0+32768))
  3582  0F7A  00F2               	movwf	?_CONV
  3583  0F7B  3089               	movlw	high (STR_28| (0+32768))
  3584  0F7C  00F3               	movwf	?_CONV+1
  3585  0F7D  2F03               	goto	L1
  3586  0F7E                     l3192:
  3587                           
  3588                           ;LCD.c: 154:             return "025";
  3589  0F7E  301E               	movlw	low (STR_29| (0+32768))
  3590  0F7F  00F2               	movwf	?_CONV
  3591  0F80  308A               	movlw	high (STR_29| (0+32768))
  3592  0F81  00F3               	movwf	?_CONV+1
  3593  0F82  2F03               	goto	L1
  3594  0F83                     l3198:
  3595                           
  3596                           ;LCD.c: 157:             return "026";
  3597  0F83  3086               	movlw	low (STR_30| (0+32768))
  3598  0F84  00F2               	movwf	?_CONV
  3599  0F85  308A               	movlw	high (STR_30| (0+32768))
  3600  0F86  00F3               	movwf	?_CONV+1
  3601  0F87  2F03               	goto	L1
  3602  0F88                     l3204:
  3603                           
  3604                           ;LCD.c: 160:             return "027";
  3605  0F88  30EA               	movlw	low (STR_31| (0+32768))
  3606  0F89  00F2               	movwf	?_CONV
  3607  0F8A  308A               	movlw	high (STR_31| (0+32768))
  3608  0F8B  00F3               	movwf	?_CONV+1
  3609  0F8C  2F03               	goto	L1
  3610  0F8D                     l3210:
  3611                           
  3612                           ;LCD.c: 163:             return "028";
  3613  0F8D  304E               	movlw	low (STR_32| (0+32768))
  3614  0F8E  00F2               	movwf	?_CONV
  3615  0F8F  308B               	movlw	high (STR_32| (0+32768))
  3616  0F90  00F3               	movwf	?_CONV+1
  3617  0F91  2F03               	goto	L1
  3618  0F92                     l3216:
  3619                           
  3620                           ;LCD.c: 166:             return "029";
  3621  0F92  30B2               	movlw	low (STR_33| (0+32768))
  3622  0F93  00F2               	movwf	?_CONV
  3623  0F94  308B               	movlw	high (STR_33| (0+32768))
  3624  0F95  00F3               	movwf	?_CONV+1
  3625  0F96  2F03               	goto	L1
  3626  0F97                     l3222:
  3627                           
  3628                           ;LCD.c: 169:             return "030";
  3629  0F97  302A               	movlw	low (STR_34| (0+32768))
  3630  0F98  00F2               	movwf	?_CONV
  3631  0F99  3088               	movlw	high (STR_34| (0+32768))
  3632  0F9A  00F3               	movwf	?_CONV+1
  3633  0F9B  2F03               	goto	L1
  3634  0F9C                     l3228:
  3635                           
  3636                           ;LCD.c: 172:             return "031";
  3637  0F9C  3092               	movlw	low (STR_35| (0+32768))
  3638  0F9D  00F2               	movwf	?_CONV
  3639  0F9E  3088               	movlw	high (STR_35| (0+32768))
  3640  0F9F  00F3               	movwf	?_CONV+1
  3641  0FA0  2F03               	goto	L1
  3642  0FA1                     l3234:
  3643                           
  3644                           ;LCD.c: 175:             return "032";
  3645  0FA1  30FA               	movlw	low (STR_36| (0+32768))
  3646  0FA2  00F2               	movwf	?_CONV
  3647  0FA3  3088               	movlw	high (STR_36| (0+32768))
  3648  0FA4  00F3               	movwf	?_CONV+1
  3649  0FA5  2F03               	goto	L1
  3650  0FA6                     l3240:
  3651                           
  3652                           ;LCD.c: 178:             return "033";
  3653  0FA6  305E               	movlw	low (STR_37| (0+32768))
  3654  0FA7  00F2               	movwf	?_CONV
  3655  0FA8  3089               	movlw	high (STR_37| (0+32768))
  3656  0FA9  00F3               	movwf	?_CONV+1
  3657  0FAA  2F03               	goto	L1
  3658  0FAB                     l3246:
  3659                           
  3660                           ;LCD.c: 181:             return "034";
  3661  0FAB  30C2               	movlw	low (STR_38| (0+32768))
  3662  0FAC  00F2               	movwf	?_CONV
  3663  0FAD  3089               	movlw	high (STR_38| (0+32768))
  3664  0FAE  00F3               	movwf	?_CONV+1
  3665  0FAF  2F03               	goto	L1
  3666  0FB0                     l3252:
  3667                           
  3668                           ;LCD.c: 184:             return "035";
  3669  0FB0  302A               	movlw	low (STR_39| (0+32768))
  3670  0FB1  00F2               	movwf	?_CONV
  3671  0FB2  308A               	movlw	high (STR_39| (0+32768))
  3672  0FB3  00F3               	movwf	?_CONV+1
  3673  0FB4  2F03               	goto	L1
  3674  0FB5                     l3258:
  3675                           
  3676                           ;LCD.c: 187:             return "036";
  3677  0FB5  3092               	movlw	low (STR_40| (0+32768))
  3678  0FB6  00F2               	movwf	?_CONV
  3679  0FB7  308A               	movlw	high (STR_40| (0+32768))
  3680  0FB8  00F3               	movwf	?_CONV+1
  3681  0FB9  2F03               	goto	L1
  3682  0FBA                     l3264:
  3683                           
  3684                           ;LCD.c: 190:             return "037";
  3685  0FBA  30F6               	movlw	low (STR_41| (0+32768))
  3686  0FBB  00F2               	movwf	?_CONV
  3687  0FBC  308A               	movlw	high (STR_41| (0+32768))
  3688  0FBD  00F3               	movwf	?_CONV+1
  3689  0FBE  2F03               	goto	L1
  3690  0FBF                     l3270:
  3691                           
  3692                           ;LCD.c: 193:             return "038";
  3693  0FBF  305A               	movlw	low (STR_42| (0+32768))
  3694  0FC0  00F2               	movwf	?_CONV
  3695  0FC1  308B               	movlw	high (STR_42| (0+32768))
  3696  0FC2  00F3               	movwf	?_CONV+1
  3697  0FC3  2F03               	goto	L1
  3698  0FC4                     l3276:
  3699                           
  3700                           ;LCD.c: 196:             return "039";
  3701  0FC4  30BE               	movlw	low (STR_43| (0+32768))
  3702  0FC5  00F2               	movwf	?_CONV
  3703  0FC6  308B               	movlw	high (STR_43| (0+32768))
  3704  0FC7  00F3               	movwf	?_CONV+1
  3705  0FC8  2F03               	goto	L1
  3706  0FC9                     l3282:
  3707                           
  3708                           ;LCD.c: 199:             return "040";
  3709  0FC9  3036               	movlw	low (STR_44| (0+32768))
  3710  0FCA  00F2               	movwf	?_CONV
  3711  0FCB  3088               	movlw	high (STR_44| (0+32768))
  3712  0FCC  00F3               	movwf	?_CONV+1
  3713  0FCD  2F03               	goto	L1
  3714  0FCE                     l3288:
  3715                           
  3716                           ;LCD.c: 202:             return "041";
  3717  0FCE  309E               	movlw	low (STR_45| (0+32768))
  3718  0FCF  00F2               	movwf	?_CONV
  3719  0FD0  3088               	movlw	high (STR_45| (0+32768))
  3720  0FD1  00F3               	movwf	?_CONV+1
  3721  0FD2  2F03               	goto	L1
  3722  0FD3                     l3294:
  3723                           
  3724                           ;LCD.c: 205:             return "042";
  3725  0FD3  3006               	movlw	low (STR_46| (0+32768))
  3726  0FD4  00F2               	movwf	?_CONV
  3727  0FD5  3089               	movlw	high (STR_46| (0+32768))
  3728  0FD6  00F3               	movwf	?_CONV+1
  3729  0FD7  2F03               	goto	L1
  3730  0FD8                     l3300:
  3731                           
  3732                           ;LCD.c: 208:             return "043";
  3733  0FD8  306A               	movlw	low (STR_47| (0+32768))
  3734  0FD9  00F2               	movwf	?_CONV
  3735  0FDA  3089               	movlw	high (STR_47| (0+32768))
  3736  0FDB  00F3               	movwf	?_CONV+1
  3737  0FDC  2F03               	goto	L1
  3738  0FDD                     l3306:
  3739                           
  3740                           ;LCD.c: 211:             return "044";
  3741  0FDD  30CE               	movlw	low (STR_48| (0+32768))
  3742  0FDE  00F2               	movwf	?_CONV
  3743  0FDF  3089               	movlw	high (STR_48| (0+32768))
  3744  0FE0  00F3               	movwf	?_CONV+1
  3745  0FE1  2F03               	goto	L1
  3746  0FE2                     l3312:
  3747                           
  3748                           ;LCD.c: 214:             return "045";
  3749  0FE2  3036               	movlw	low (STR_49| (0+32768))
  3750  0FE3  00F2               	movwf	?_CONV
  3751  0FE4  308A               	movlw	high (STR_49| (0+32768))
  3752  0FE5  00F3               	movwf	?_CONV+1
  3753  0FE6  2F03               	goto	L1
  3754  0FE7                     l3318:
  3755                           
  3756                           ;LCD.c: 217:             return "046";
  3757  0FE7  309E               	movlw	low (STR_50| (0+32768))
  3758  0FE8  00F2               	movwf	?_CONV
  3759  0FE9  308A               	movlw	high (STR_50| (0+32768))
  3760  0FEA  00F3               	movwf	?_CONV+1
  3761  0FEB  2F03               	goto	L1
  3762  0FEC                     l3324:
  3763                           
  3764                           ;LCD.c: 220:             return "047";
  3765  0FEC  3002               	movlw	low (STR_51| (0+32768))
  3766  0FED  00F2               	movwf	?_CONV
  3767  0FEE  308B               	movlw	high (STR_51| (0+32768))
  3768  0FEF  00F3               	movwf	?_CONV+1
  3769  0FF0  2F03               	goto	L1
  3770  0FF1                     l3330:
  3771                           
  3772                           ;LCD.c: 223:             return "048";
  3773  0FF1  3066               	movlw	low (STR_52| (0+32768))
  3774  0FF2  00F2               	movwf	?_CONV
  3775  0FF3  308B               	movlw	high (STR_52| (0+32768))
  3776  0FF4  00F3               	movwf	?_CONV+1
  3777  0FF5  2F03               	goto	L1
  3778  0FF6                     l3336:
  3779                           
  3780                           ;LCD.c: 226:             return "049";
  3781  0FF6  30CA               	movlw	low (STR_53| (0+32768))
  3782  0FF7  00F2               	movwf	?_CONV
  3783  0FF8  308B               	movlw	high (STR_53| (0+32768))
  3784  0FF9  00F3               	movwf	?_CONV+1
  3785  0FFA  2F03               	goto	L1
  3786  0FFB                     l3342:
  3787                           
  3788                           ;LCD.c: 229:             return "050";
  3789  0FFB  3042               	movlw	low (STR_54| (0+32768))
  3790  0FFC  00F2               	movwf	?_CONV
  3791  0FFD  3088               	movlw	high (STR_54| (0+32768))
  3792  0FFE  00F3               	movwf	?_CONV+1
  3793  0FFF  2F03               	goto	L1
  3794                           
  3795                           	psect	text14
  3796  0DF0                     __ptext14:	
  3797 ;; *************** function _isr *****************
  3798 ;; Defined at:
  3799 ;;		line 56 in file "Principal_Master.c"
  3800 ;; Parameters:    Size  Location     Type
  3801 ;;		None
  3802 ;; Auto vars:     Size  Location     Type
  3803 ;;		None
  3804 ;; Return value:  Size  Location     Type
  3805 ;;                  1    wreg      void 
  3806 ;; Registers used:
  3807 ;;		wreg, pclath, cstack
  3808 ;; Tracked objects:
  3809 ;;		On entry : 0/0
  3810 ;;		On exit  : 0/0
  3811 ;;		Unchanged: 0/0
  3812 ;; Data sizes:     COMMON   BANK0   BANK1   BANK3   BANK2
  3813 ;;      Params:         0       0       0       0       0
  3814 ;;      Locals:         0       0       0       0       0
  3815 ;;      Temps:          2       0       0       0       0
  3816 ;;      Totals:         2       0       0       0       0
  3817 ;;Total ram usage:        2 bytes
  3818 ;; Hardware stack levels used:    1
  3819 ;; Hardware stack levels required when called:    1
  3820 ;; This function calls:
  3821 ;;		_TRANSMITIR_INFO
  3822 ;; This function is called by:
  3823 ;;		Interrupt level 1
  3824 ;; This function uses a non-reentrant model
  3825 ;;
  3826                           
  3827                           
  3828                           ;psect for function _isr
  3829  0DF0                     _isr:
  3830  0DF0                     i1l2808:
  3831                           
  3832                           ;Principal_Master.c: 57:  (INTCONbits.GIE = 0);
  3833  0DF0  138B               	bcf	11,7	;volatile
  3834                           
  3835                           ;Principal_Master.c: 59:     if(PIR1bits.TXIF == 1){
  3836  0DF1  1283               	bcf	3,5	;RP0=0, select bank0
  3837  0DF2  1303               	bcf	3,6	;RP1=0, select bank0
  3838  0DF3  1E0C               	btfss	12,4	;volatile
  3839  0DF4  2DF6               	goto	u8_21
  3840  0DF5  2DF7               	goto	u8_20
  3841  0DF6                     u8_21:
  3842  0DF6  2E02               	goto	i1l2814
  3843  0DF7                     u8_20:
  3844  0DF7                     i1l2810:
  3845                           
  3846                           ;Principal_Master.c: 60:         TXREG = TRANSMITIR_INFO();
  3847  0DF7  120A  118A  27FF  120A  158A  	fcall	_TRANSMITIR_INFO
  3848  0DFC  1283               	bcf	3,5	;RP0=0, select bank0
  3849  0DFD  1303               	bcf	3,6	;RP1=0, select bank0
  3850  0DFE  0099               	movwf	25	;volatile
  3851  0DFF                     i1l2812:
  3852                           
  3853                           ;Principal_Master.c: 61:         PIE1bits.TXIE = 0;
  3854  0DFF  1683               	bsf	3,5	;RP0=1, select bank1
  3855  0E00  1303               	bcf	3,6	;RP1=0, select bank1
  3856  0E01  120C               	bcf	12,4	;volatile
  3857  0E02                     i1l2814:
  3858                           
  3859                           ;Principal_Master.c: 64:   (INTCONbits.GIE = 1);
  3860  0E02  178B               	bsf	11,7	;volatile
  3861  0E03                     i1l138:
  3862  0E03  0871               	movf	??_isr+1,w
  3863  0E04  008A               	movwf	10
  3864  0E05  0E70               	swapf	??_isr,w
  3865  0E06  0083               	movwf	3
  3866  0E07  0EFE               	swapf	btemp,f
  3867  0E08  0E7E               	swapf	btemp,w
  3868  0E09  0009               	retfie
  3869  0E0A                     __end_of_isr:
  3870                           
  3871                           	psect	intentry
  3872  0004                     __pintentry:	
  3873                           ;incstack = 0
  3874                           ; Regs used in _isr: [wreg+pclath+cstack]
  3875                           
  3876  0004                     interrupt_function:
  3877  007E                     saved_w	set	btemp
  3878  0004  00FE               	movwf	btemp
  3879  0005  0E03               	swapf	3,w
  3880  0006  00F0               	movwf	??_isr
  3881  0007  080A               	movf	10,w
  3882  0008  00F1               	movwf	??_isr+1
  3883  0009  120A  158A  2DF0   	ljmp	_isr
  3884                           
  3885                           	psect	text15
  3886  07FF                     __ptext15:	
  3887 ;; *************** function _TRANSMITIR_INFO *****************
  3888 ;; Defined at:
  3889 ;;		line 200 in file "Principal_Master.c"
  3890 ;; Parameters:    Size  Location     Type
  3891 ;;		None
  3892 ;; Auto vars:     Size  Location     Type
  3893 ;;		None
  3894 ;; Return value:  Size  Location     Type
  3895 ;;                  1    wreg      unsigned char 
  3896 ;; Registers used:
  3897 ;;		None
  3898 ;; Tracked objects:
  3899 ;;		On entry : 0/0
  3900 ;;		On exit  : 0/0
  3901 ;;		Unchanged: 0/0
  3902 ;; Data sizes:     COMMON   BANK0   BANK1   BANK3   BANK2
  3903 ;;      Params:         0       0       0       0       0
  3904 ;;      Locals:         0       0       0       0       0
  3905 ;;      Temps:          0       0       0       0       0
  3906 ;;      Totals:         0       0       0       0       0
  3907 ;;Total ram usage:        0 bytes
  3908 ;; Hardware stack levels used:    1
  3909 ;; This function calls:
  3910 ;;		Nothing
  3911 ;; This function is called by:
  3912 ;;		_isr
  3913 ;; This function uses a non-reentrant model
  3914 ;;
  3915                           
  3916                           
  3917                           ;psect for function _TRANSMITIR_INFO
  3918  07FF                     _TRANSMITIR_INFO:
  3919  07FF                     i1l164:	
  3920                           ;incstack = 0
  3921                           ; Regs used in _TRANSMITIR_INFO: []
  3922                           
  3923  07FF  0008               	return
  3924  0800                     __end_of_TRANSMITIR_INFO:
  3925  007E                     btemp	set	126	;btemp
  3926  007E                     wtemp0	set	126
  3927                           
  3928                           	psect	config
  3929                           
  3930                           ;Config register CONFIG1 @ 0x2007
  3931                           ;	Oscillator Selection bits
  3932                           ;	FOSC = EXTRC_CLKOUT, RC oscillator: CLKOUT function on RA6/OSC2/CLKOUT pin, RC on RA7/
      +                          OSC1/CLKIN
  3933                           ;	Watchdog Timer Enable bit
  3934                           ;	WDTE = OFF, WDT disabled and can be enabled by SWDTEN bit of the WDTCON register
  3935                           ;	Power-up Timer Enable bit
  3936                           ;	PWRTE = OFF, PWRT disabled
  3937                           ;	RE3/MCLR pin function select bit
  3938                           ;	MCLRE = OFF, RE3/MCLR pin function is digital input, MCLR internally tied to VDD
  3939                           ;	Code Protection bit
  3940                           ;	CP = OFF, Program memory code protection is disabled
  3941                           ;	Data Code Protection bit
  3942                           ;	CPD = OFF, Data memory code protection is disabled
  3943                           ;	Brown Out Reset Selection bits
  3944                           ;	BOREN = OFF, BOR disabled
  3945                           ;	Internal External Switchover bit
  3946                           ;	IESO = OFF, Internal/External Switchover mode is disabled
  3947                           ;	Fail-Safe Clock Monitor Enabled bit
  3948                           ;	FCMEN = OFF, Fail-Safe Clock Monitor is disabled
  3949                           ;	Low Voltage Programming Enable bit
  3950                           ;	LVP = OFF, RB3 pin has digital I/O, HV on MCLR must be used for programming
  3951                           ;	In-Circuit Debugger Mode bit
  3952                           ;	DEBUG = 0x1, unprogrammed default
  3953  2007                     	org	8199
  3954  2007  20D7               	dw	8407
  3955                           
  3956                           ;Config register CONFIG2 @ 0x2008
  3957                           ;	Brown-out Reset Selection bit
  3958                           ;	BOR4V = BOR40V, Brown-out Reset set to 4.0V
  3959                           ;	Flash Program Memory Self Write Enable bits
  3960                           ;	WRT = OFF, Write protection off
  3961  2008                     	org	8200
  3962  2008  3FFF               	dw	16383
  3963                           
  3964                           	psect	text13_split_1
  3965  0021                     l3348:
  3966                           
  3967                           ;LCD.c: 232:             return "051";
  3968  0021  30AA               	movlw	low (STR_55| (0+32768))
  3969  0022  00F2               	movwf	?_CONV
  3970  0023  3088               	movlw	high (STR_55| (0+32768))
  3971  0024  00F3               	movwf	?_CONV+1
  3972  0025  2F2D               	goto	l208
  3973  0026                     l3354:
  3974                           
  3975                           ;LCD.c: 235:             return "052";
  3976  0026  3012               	movlw	low (STR_56| (0+32768))
  3977  0027  00F2               	movwf	?_CONV
  3978  0028  3089               	movlw	high (STR_56| (0+32768))
  3979  0029  00F3               	movwf	?_CONV+1
  3980  002A  2F2D               	goto	l208
  3981  002B                     l3360:
  3982                           
  3983                           ;LCD.c: 238:             return "053";
  3984  002B  3076               	movlw	low (STR_57| (0+32768))
  3985  002C  00F2               	movwf	?_CONV
  3986  002D  3089               	movlw	high (STR_57| (0+32768))
  3987  002E  00F3               	movwf	?_CONV+1
  3988  002F  2F2D               	goto	l208
  3989  0030                     l3366:
  3990                           
  3991                           ;LCD.c: 241:             return "054";
  3992  0030  30DA               	movlw	low (STR_58| (0+32768))
  3993  0031  00F2               	movwf	?_CONV
  3994  0032  3089               	movlw	high (STR_58| (0+32768))
  3995  0033  00F3               	movwf	?_CONV+1
  3996  0034  2F2D               	goto	l208
  3997  0035                     l3372:
  3998                           
  3999                           ;LCD.c: 244:             return "055";
  4000  0035  3042               	movlw	low (STR_59| (0+32768))
  4001  0036  00F2               	movwf	?_CONV
  4002  0037  308A               	movlw	high (STR_59| (0+32768))
  4003  0038  00F3               	movwf	?_CONV+1
  4004  0039  2F2D               	goto	l208
  4005  003A                     l3378:
  4006                           
  4007                           ;LCD.c: 247:             return "056";
  4008  003A  30AA               	movlw	low (STR_60| (0+32768))
  4009  003B  00F2               	movwf	?_CONV
  4010  003C  308A               	movlw	high (STR_60| (0+32768))
  4011  003D  00F3               	movwf	?_CONV+1
  4012  003E  2F2D               	goto	l208
  4013  003F                     l3384:
  4014                           
  4015                           ;LCD.c: 250:             return "057";
  4016  003F  300E               	movlw	low (STR_61| (0+32768))
  4017  0040  00F2               	movwf	?_CONV
  4018  0041  308B               	movlw	high (STR_61| (0+32768))
  4019  0042  00F3               	movwf	?_CONV+1
  4020  0043  2F2D               	goto	l208
  4021  0044                     l3390:
  4022                           
  4023                           ;LCD.c: 253:             return "058";
  4024  0044  3072               	movlw	low (STR_62| (0+32768))
  4025  0045  00F2               	movwf	?_CONV
  4026  0046  308B               	movlw	high (STR_62| (0+32768))
  4027  0047  00F3               	movwf	?_CONV+1
  4028  0048  2F2D               	goto	l208
  4029  0049                     l3396:
  4030                           
  4031                           ;LCD.c: 256:             return "059";
  4032  0049  30D6               	movlw	low (STR_63| (0+32768))
  4033  004A  00F2               	movwf	?_CONV
  4034  004B  308B               	movlw	high (STR_63| (0+32768))
  4035  004C  00F3               	movwf	?_CONV+1
  4036  004D  2F2D               	goto	l208
  4037  004E                     l3402:
  4038                           
  4039                           ;LCD.c: 259:             return "060";
  4040  004E  304E               	movlw	low (STR_64| (0+32768))
  4041  004F  00F2               	movwf	?_CONV
  4042  0050  3088               	movlw	high (STR_64| (0+32768))
  4043  0051  00F3               	movwf	?_CONV+1
  4044  0052  2F2D               	goto	l208
  4045  0053                     l3408:
  4046                           
  4047                           ;LCD.c: 262:             return "061";
  4048  0053  30B6               	movlw	low (STR_65| (0+32768))
  4049  0054  00F2               	movwf	?_CONV
  4050  0055  3088               	movlw	high (STR_65| (0+32768))
  4051  0056  00F3               	movwf	?_CONV+1
  4052  0057  2F2D               	goto	l208
  4053  0058                     l3414:
  4054                           
  4055                           ;LCD.c: 265:             return "062";
  4056  0058  301A               	movlw	low (STR_66| (0+32768))
  4057  0059  00F2               	movwf	?_CONV
  4058  005A  3089               	movlw	high (STR_66| (0+32768))
  4059  005B  00F3               	movwf	?_CONV+1
  4060  005C  2F2D               	goto	l208
  4061  005D                     l3420:
  4062                           
  4063                           ;LCD.c: 268:             return "063";
  4064  005D  307E               	movlw	low (STR_67| (0+32768))
  4065  005E  00F2               	movwf	?_CONV
  4066  005F  3089               	movlw	high (STR_67| (0+32768))
  4067  0060  00F3               	movwf	?_CONV+1
  4068  0061  2F2D               	goto	l208
  4069  0062                     l3426:
  4070                           
  4071                           ;LCD.c: 271:             return "064";
  4072  0062  30E6               	movlw	low (STR_68| (0+32768))
  4073  0063  00F2               	movwf	?_CONV
  4074  0064  3089               	movlw	high (STR_68| (0+32768))
  4075  0065  00F3               	movwf	?_CONV+1
  4076  0066  2F2D               	goto	l208
  4077  0067                     l3432:
  4078                           
  4079                           ;LCD.c: 274:             return "065";
  4080  0067  304E               	movlw	low (STR_69| (0+32768))
  4081  0068  00F2               	movwf	?_CONV
  4082  0069  308A               	movlw	high (STR_69| (0+32768))
  4083  006A  00F3               	movwf	?_CONV+1
  4084  006B  2F2D               	goto	l208
  4085  006C                     l3438:
  4086                           
  4087                           ;LCD.c: 277:             return "066";
  4088  006C  30B2               	movlw	low (STR_70| (0+32768))
  4089  006D  00F2               	movwf	?_CONV
  4090  006E  308A               	movlw	high (STR_70| (0+32768))
  4091  006F  00F3               	movwf	?_CONV+1
  4092  0070  2F2D               	goto	l208
  4093  0071                     l3444:
  4094                           
  4095                           ;LCD.c: 280:             return "067";
  4096  0071  3016               	movlw	low (STR_71| (0+32768))
  4097  0072  00F2               	movwf	?_CONV
  4098  0073  308B               	movlw	high (STR_71| (0+32768))
  4099  0074  00F3               	movwf	?_CONV+1
  4100  0075  2F2D               	goto	l208
  4101  0076                     l3450:
  4102                           
  4103                           ;LCD.c: 283:             return "068";
  4104  0076  307A               	movlw	low (STR_72| (0+32768))
  4105  0077  00F2               	movwf	?_CONV
  4106  0078  308B               	movlw	high (STR_72| (0+32768))
  4107  0079  00F3               	movwf	?_CONV+1
  4108  007A  2F2D               	goto	l208
  4109  007B                     l3456:
  4110                           
  4111                           ;LCD.c: 286:             return "069";
  4112  007B  30DE               	movlw	low (STR_73| (0+32768))
  4113  007C  00F2               	movwf	?_CONV
  4114  007D  308B               	movlw	high (STR_73| (0+32768))
  4115  007E  00F3               	movwf	?_CONV+1
  4116  007F  2F2D               	goto	l208
  4117  0080                     l3462:
  4118                           
  4119                           ;LCD.c: 289:             return "070";
  4120  0080  3056               	movlw	low (STR_74| (0+32768))
  4121  0081  00F2               	movwf	?_CONV
  4122  0082  3088               	movlw	high (STR_74| (0+32768))
  4123  0083  00F3               	movwf	?_CONV+1
  4124  0084  2F2D               	goto	l208
  4125  0085                     l3468:
  4126                           
  4127                           ;LCD.c: 292:             return "071";
  4128  0085  30BE               	movlw	low (STR_75| (0+32768))
  4129  0086  00F2               	movwf	?_CONV
  4130  0087  3088               	movlw	high (STR_75| (0+32768))
  4131  0088  00F3               	movwf	?_CONV+1
  4132  0089  2F2D               	goto	l208
  4133  008A                     l3474:
  4134                           
  4135                           ;LCD.c: 295:             return "072";
  4136  008A  3022               	movlw	low (STR_76| (0+32768))
  4137  008B  00F2               	movwf	?_CONV
  4138  008C  3089               	movlw	high (STR_76| (0+32768))
  4139  008D  00F3               	movwf	?_CONV+1
  4140  008E  2F2D               	goto	l208
  4141  008F                     l3480:
  4142                           
  4143                           ;LCD.c: 298:             return "073";
  4144  008F  3086               	movlw	low (STR_77| (0+32768))
  4145  0090  00F2               	movwf	?_CONV
  4146  0091  3089               	movlw	high (STR_77| (0+32768))
  4147  0092  00F3               	movwf	?_CONV+1
  4148  0093  2F2D               	goto	l208
  4149  0094                     l3486:
  4150                           
  4151                           ;LCD.c: 301:             return "074";
  4152  0094  30EE               	movlw	low (STR_78| (0+32768))
  4153  0095  00F2               	movwf	?_CONV
  4154  0096  3089               	movlw	high (STR_78| (0+32768))
  4155  0097  00F3               	movwf	?_CONV+1
  4156  0098  2F2D               	goto	l208
  4157  0099                     l3492:
  4158                           
  4159                           ;LCD.c: 304:             return "075";
  4160  0099  3056               	movlw	low (STR_79| (0+32768))
  4161  009A  00F2               	movwf	?_CONV
  4162  009B  308A               	movlw	high (STR_79| (0+32768))
  4163  009C  00F3               	movwf	?_CONV+1
  4164  009D  2F2D               	goto	l208
  4165  009E                     l3498:
  4166                           
  4167                           ;LCD.c: 307:             return "076";
  4168  009E  30BA               	movlw	low (STR_80| (0+32768))
  4169  009F  00F2               	movwf	?_CONV
  4170  00A0  308A               	movlw	high (STR_80| (0+32768))
  4171  00A1  00F3               	movwf	?_CONV+1
  4172  00A2  2F2D               	goto	l208
  4173  00A3                     l3504:
  4174                           
  4175                           ;LCD.c: 310:             return "077";
  4176  00A3  301E               	movlw	low (STR_81| (0+32768))
  4177  00A4  00F2               	movwf	?_CONV
  4178  00A5  308B               	movlw	high (STR_81| (0+32768))
  4179  00A6  00F3               	movwf	?_CONV+1
  4180  00A7  2F2D               	goto	l208
  4181  00A8                     l3510:
  4182                           
  4183                           ;LCD.c: 313:             return "078";
  4184  00A8  3082               	movlw	low (STR_82| (0+32768))
  4185  00A9  00F2               	movwf	?_CONV
  4186  00AA  308B               	movlw	high (STR_82| (0+32768))
  4187  00AB  00F3               	movwf	?_CONV+1
  4188  00AC  2F2D               	goto	l208
  4189  00AD                     l3516:
  4190                           
  4191                           ;LCD.c: 316:             return "079";
  4192  00AD  30E6               	movlw	low (STR_83| (0+32768))
  4193  00AE  00F2               	movwf	?_CONV
  4194  00AF  308B               	movlw	high (STR_83| (0+32768))
  4195  00B0  00F3               	movwf	?_CONV+1
  4196  00B1  2F2D               	goto	l208
  4197  00B2                     l3522:
  4198                           
  4199                           ;LCD.c: 319:             return "080";
  4200  00B2  305E               	movlw	low (STR_84| (0+32768))
  4201  00B3  00F2               	movwf	?_CONV
  4202  00B4  3088               	movlw	high (STR_84| (0+32768))
  4203  00B5  00F3               	movwf	?_CONV+1
  4204  00B6  2F2D               	goto	l208
  4205  00B7                     l3528:
  4206                           
  4207                           ;LCD.c: 322:             return "081";
  4208  00B7  30C6               	movlw	low (STR_85| (0+32768))
  4209  00B8  00F2               	movwf	?_CONV
  4210  00B9  3088               	movlw	high (STR_85| (0+32768))
  4211  00BA  00F3               	movwf	?_CONV+1
  4212  00BB  2F2D               	goto	l208
  4213  00BC                     l3534:
  4214                           
  4215                           ;LCD.c: 325:             return "082";
  4216  00BC  302A               	movlw	low (STR_86| (0+32768))
  4217  00BD  00F2               	movwf	?_CONV
  4218  00BE  3089               	movlw	high (STR_86| (0+32768))
  4219  00BF  00F3               	movwf	?_CONV+1
  4220  00C0  2F2D               	goto	l208
  4221  00C1                     l3540:
  4222                           
  4223                           ;LCD.c: 328:             return "083";
  4224  00C1  308E               	movlw	low (STR_87| (0+32768))
  4225  00C2  00F2               	movwf	?_CONV
  4226  00C3  3089               	movlw	high (STR_87| (0+32768))
  4227  00C4  00F3               	movwf	?_CONV+1
  4228  00C5  2F2D               	goto	l208
  4229  00C6                     l3546:
  4230                           
  4231                           ;LCD.c: 331:             return "084";
  4232  00C6  30F6               	movlw	low (STR_88| (0+32768))
  4233  00C7  00F2               	movwf	?_CONV
  4234  00C8  3089               	movlw	high (STR_88| (0+32768))
  4235  00C9  00F3               	movwf	?_CONV+1
  4236  00CA  2F2D               	goto	l208
  4237  00CB                     l3552:
  4238                           
  4239                           ;LCD.c: 334:             return "085";
  4240  00CB  305E               	movlw	low (STR_89| (0+32768))
  4241  00CC  00F2               	movwf	?_CONV
  4242  00CD  308A               	movlw	high (STR_89| (0+32768))
  4243  00CE  00F3               	movwf	?_CONV+1
  4244  00CF  2F2D               	goto	l208
  4245  00D0                     l3558:
  4246                           
  4247                           ;LCD.c: 337:             return "086";
  4248  00D0  30C2               	movlw	low (STR_90| (0+32768))
  4249  00D1  00F2               	movwf	?_CONV
  4250  00D2  308A               	movlw	high (STR_90| (0+32768))
  4251  00D3  00F3               	movwf	?_CONV+1
  4252  00D4  2F2D               	goto	l208
  4253  00D5                     l3564:
  4254                           
  4255                           ;LCD.c: 340:             return "087";
  4256  00D5  3026               	movlw	low (STR_91| (0+32768))
  4257  00D6  00F2               	movwf	?_CONV
  4258  00D7  308B               	movlw	high (STR_91| (0+32768))
  4259  00D8  00F3               	movwf	?_CONV+1
  4260  00D9  2F2D               	goto	l208
  4261  00DA                     l3570:
  4262                           
  4263                           ;LCD.c: 343:             return "088";
  4264  00DA  308A               	movlw	low (STR_92| (0+32768))
  4265  00DB  00F2               	movwf	?_CONV
  4266  00DC  308B               	movlw	high (STR_92| (0+32768))
  4267  00DD  00F3               	movwf	?_CONV+1
  4268  00DE  2F2D               	goto	l208
  4269  00DF                     l3576:
  4270                           
  4271                           ;LCD.c: 346:             return "089";
  4272  00DF  30EE               	movlw	low (STR_93| (0+32768))
  4273  00E0  00F2               	movwf	?_CONV
  4274  00E1  308B               	movlw	high (STR_93| (0+32768))
  4275  00E2  00F3               	movwf	?_CONV+1
  4276  00E3  2F2D               	goto	l208
  4277  00E4                     l3582:
  4278                           
  4279                           ;LCD.c: 349:             return "090";
  4280  00E4  3066               	movlw	low (STR_94| (0+32768))
  4281  00E5  00F2               	movwf	?_CONV
  4282  00E6  3088               	movlw	high (STR_94| (0+32768))
  4283  00E7  00F3               	movwf	?_CONV+1
  4284  00E8  2F2D               	goto	l208
  4285  00E9                     l3588:
  4286                           
  4287                           ;LCD.c: 352:             return "091";
  4288  00E9  30CE               	movlw	low (STR_95| (0+32768))
  4289  00EA  00F2               	movwf	?_CONV
  4290  00EB  3088               	movlw	high (STR_95| (0+32768))
  4291  00EC  00F3               	movwf	?_CONV+1
  4292  00ED  2F2D               	goto	l208
  4293  00EE                     l3594:
  4294                           
  4295                           ;LCD.c: 355:             return "092";
  4296  00EE  3032               	movlw	low (STR_96| (0+32768))
  4297  00EF  00F2               	movwf	?_CONV
  4298  00F0  3089               	movlw	high (STR_96| (0+32768))
  4299  00F1  00F3               	movwf	?_CONV+1
  4300  00F2  2F2D               	goto	l208
  4301  00F3                     l3600:
  4302                           
  4303                           ;LCD.c: 358:             return "093";
  4304  00F3  3096               	movlw	low (STR_97| (0+32768))
  4305  00F4  00F2               	movwf	?_CONV
  4306  00F5  3089               	movlw	high (STR_97| (0+32768))
  4307  00F6  00F3               	movwf	?_CONV+1
  4308  00F7  2F2D               	goto	l208
  4309  00F8                     l3606:
  4310                           
  4311                           ;LCD.c: 361:             return "094";
  4312  00F8  30FE               	movlw	low (STR_98| (0+32768))
  4313  00F9  00F2               	movwf	?_CONV
  4314  00FA  3089               	movlw	high (STR_98| (0+32768))
  4315  00FB  00F3               	movwf	?_CONV+1
  4316  00FC  2F2D               	goto	l208
  4317  00FD                     l3612:
  4318                           
  4319                           ;LCD.c: 364:             return "095";
  4320  00FD  3066               	movlw	low (STR_99| (0+32768))
  4321  00FE  00F2               	movwf	?_CONV
  4322  00FF  308A               	movlw	high (STR_99| (0+32768))
  4323  0100  00F3               	movwf	?_CONV+1
  4324  0101  2F2D               	goto	l208
  4325  0102                     l3618:
  4326                           
  4327                           ;LCD.c: 367:             return "096";
  4328  0102  30CA               	movlw	low (STR_100| (0+32768))
  4329  0103  00F2               	movwf	?_CONV
  4330  0104  308A               	movlw	high (STR_100| (0+32768))
  4331  0105  00F3               	movwf	?_CONV+1
  4332  0106  2F2D               	goto	l208
  4333  0107                     l3624:
  4334                           
  4335                           ;LCD.c: 370:             return "097";
  4336  0107  302E               	movlw	low (STR_101| (0+32768))
  4337  0108  00F2               	movwf	?_CONV
  4338  0109  308B               	movlw	high (STR_101| (0+32768))
  4339  010A  00F3               	movwf	?_CONV+1
  4340  010B  2F2D               	goto	l208
  4341  010C                     l3630:
  4342                           
  4343                           ;LCD.c: 373:             return "098";
  4344  010C  3092               	movlw	low (STR_102| (0+32768))
  4345  010D  00F2               	movwf	?_CONV
  4346  010E  308B               	movlw	high (STR_102| (0+32768))
  4347  010F  00F3               	movwf	?_CONV+1
  4348  0110  2F2D               	goto	l208
  4349  0111                     l3636:
  4350                           
  4351                           ;LCD.c: 376:             return "099";
  4352  0111  30F6               	movlw	low (STR_103| (0+32768))
  4353  0112  00F2               	movwf	?_CONV
  4354  0113  308B               	movlw	high (STR_103| (0+32768))
  4355  0114  00F3               	movwf	?_CONV+1
  4356  0115  2F2D               	goto	l208
  4357  0116                     l3642:
  4358                           
  4359                           ;LCD.c: 379:             return "100";
  4360  0116  300E               	movlw	low (STR_104| (0+32768))
  4361  0117  00F2               	movwf	?_CONV
  4362  0118  3088               	movlw	high (STR_104| (0+32768))
  4363  0119  00F3               	movwf	?_CONV+1
  4364  011A  2F2D               	goto	l208
  4365  011B                     l3648:
  4366                           
  4367                           ;LCD.c: 382:             return "101";
  4368  011B  3072               	movlw	low (STR_105| (0+32768))
  4369  011C  00F2               	movwf	?_CONV
  4370  011D  3088               	movlw	high (STR_105| (0+32768))
  4371  011E  00F3               	movwf	?_CONV+1
  4372  011F  2F2D               	goto	l208
  4373  0120                     l3654:
  4374                           
  4375                           ;LCD.c: 385:             return "102";
  4376  0120  30DA               	movlw	low (STR_106| (0+32768))
  4377  0121  00F2               	movwf	?_CONV
  4378  0122  3088               	movlw	high (STR_106| (0+32768))
  4379  0123  00F3               	movwf	?_CONV+1
  4380  0124  2F2D               	goto	l208
  4381  0125                     l3660:
  4382                           
  4383                           ;LCD.c: 388:             return "103";
  4384  0125  303E               	movlw	low (STR_107| (0+32768))
  4385  0126  00F2               	movwf	?_CONV
  4386  0127  3089               	movlw	high (STR_107| (0+32768))
  4387  0128  00F3               	movwf	?_CONV+1
  4388  0129  2F2D               	goto	l208
  4389  012A                     l3666:
  4390                           
  4391                           ;LCD.c: 391:             return "104";
  4392  012A  30A2               	movlw	low (STR_108| (0+32768))
  4393  012B  00F2               	movwf	?_CONV
  4394  012C  3089               	movlw	high (STR_108| (0+32768))
  4395  012D  00F3               	movwf	?_CONV+1
  4396  012E  2F2D               	goto	l208
  4397  012F                     l3672:
  4398                           
  4399                           ;LCD.c: 394:             return "105";
  4400  012F  300A               	movlw	low (STR_109| (0+32768))
  4401  0130  00F2               	movwf	?_CONV
  4402  0131  308A               	movlw	high (STR_109| (0+32768))
  4403  0132  00F3               	movwf	?_CONV+1
  4404  0133  2F2D               	goto	l208
  4405  0134                     l3678:
  4406                           
  4407                           ;LCD.c: 397:             return "106";
  4408  0134  3072               	movlw	low (STR_110| (0+32768))
  4409  0135  00F2               	movwf	?_CONV
  4410  0136  308A               	movlw	high (STR_110| (0+32768))
  4411  0137  00F3               	movwf	?_CONV+1
  4412  0138  2F2D               	goto	l208
  4413  0139                     l3684:
  4414                           
  4415                           ;LCD.c: 400:             return "107";
  4416  0139  30D6               	movlw	low (STR_111| (0+32768))
  4417  013A  00F2               	movwf	?_CONV
  4418  013B  308A               	movlw	high (STR_111| (0+32768))
  4419  013C  00F3               	movwf	?_CONV+1
  4420  013D  2F2D               	goto	l208
  4421  013E                     l3690:
  4422                           
  4423                           ;LCD.c: 403:             return "108";
  4424  013E  303A               	movlw	low (STR_112| (0+32768))
  4425  013F  00F2               	movwf	?_CONV
  4426  0140  308B               	movlw	high (STR_112| (0+32768))
  4427  0141  00F3               	movwf	?_CONV+1
  4428  0142  2F2D               	goto	l208
  4429  0143                     l3696:
  4430                           
  4431                           ;LCD.c: 406:             return "109";
  4432  0143  309E               	movlw	low (STR_113| (0+32768))
  4433  0144  00F2               	movwf	?_CONV
  4434  0145  308B               	movlw	high (STR_113| (0+32768))
  4435  0146  00F3               	movwf	?_CONV+1
  4436  0147  2F2D               	goto	l208
  4437  0148                     l3702:
  4438                           
  4439                           ;LCD.c: 409:             return "110";
  4440  0148  3016               	movlw	low (STR_114| (0+32768))
  4441  0149  00F2               	movwf	?_CONV
  4442  014A  3088               	movlw	high (STR_114| (0+32768))
  4443  014B  00F3               	movwf	?_CONV+1
  4444  014C  2F2D               	goto	l208
  4445  014D                     l3708:
  4446                           
  4447                           ;LCD.c: 412:             return "111";
  4448  014D  307E               	movlw	low (STR_115| (0+32768))
  4449  014E  00F2               	movwf	?_CONV
  4450  014F  3088               	movlw	high (STR_115| (0+32768))
  4451  0150  00F3               	movwf	?_CONV+1
  4452  0151  2F2D               	goto	l208
  4453  0152                     l3714:
  4454                           
  4455                           ;LCD.c: 415:             return "112";
  4456  0152  30E6               	movlw	low (STR_116| (0+32768))
  4457  0153  00F2               	movwf	?_CONV
  4458  0154  3088               	movlw	high (STR_116| (0+32768))
  4459  0155  00F3               	movwf	?_CONV+1
  4460  0156  2F2D               	goto	l208
  4461  0157                     l3720:
  4462                           
  4463                           ;LCD.c: 418:             return "113";
  4464  0157  304A               	movlw	low (STR_117| (0+32768))
  4465  0158  00F2               	movwf	?_CONV
  4466  0159  3089               	movlw	high (STR_117| (0+32768))
  4467  015A  00F3               	movwf	?_CONV+1
  4468  015B  2F2D               	goto	l208
  4469  015C                     l3726:
  4470                           
  4471                           ;LCD.c: 421:             return "114";
  4472  015C  30AE               	movlw	low (STR_118| (0+32768))
  4473  015D  00F2               	movwf	?_CONV
  4474  015E  3089               	movlw	high (STR_118| (0+32768))
  4475  015F  00F3               	movwf	?_CONV+1
  4476  0160  2F2D               	goto	l208
  4477  0161                     l3732:
  4478                           
  4479                           ;LCD.c: 424:             return "115";
  4480  0161  3016               	movlw	low (STR_119| (0+32768))
  4481  0162  00F2               	movwf	?_CONV
  4482  0163  308A               	movlw	high (STR_119| (0+32768))
  4483  0164  00F3               	movwf	?_CONV+1
  4484  0165  2F2D               	goto	l208
  4485  0166                     l3738:
  4486                           
  4487                           ;LCD.c: 427:             return "116";
  4488  0166  307E               	movlw	low (STR_120| (0+32768))
  4489  0167  00F2               	movwf	?_CONV
  4490  0168  308A               	movlw	high (STR_120| (0+32768))
  4491  0169  00F3               	movwf	?_CONV+1
  4492  016A  2F2D               	goto	l208
  4493  016B                     l3744:
  4494                           
  4495                           ;LCD.c: 430:             return "117";
  4496  016B  30E2               	movlw	low (STR_121| (0+32768))
  4497  016C  00F2               	movwf	?_CONV
  4498  016D  308A               	movlw	high (STR_121| (0+32768))
  4499  016E  00F3               	movwf	?_CONV+1
  4500  016F  2F2D               	goto	l208
  4501  0170                     l3750:
  4502                           
  4503                           ;LCD.c: 433:             return "118";
  4504  0170  3046               	movlw	low (STR_122| (0+32768))
  4505  0171  00F2               	movwf	?_CONV
  4506  0172  308B               	movlw	high (STR_122| (0+32768))
  4507  0173  00F3               	movwf	?_CONV+1
  4508  0174  2F2D               	goto	l208
  4509  0175                     l3756:
  4510                           
  4511                           ;LCD.c: 436:             return "119";
  4512  0175  30AA               	movlw	low (STR_123| (0+32768))
  4513  0176  00F2               	movwf	?_CONV
  4514  0177  308B               	movlw	high (STR_123| (0+32768))
  4515  0178  00F3               	movwf	?_CONV+1
  4516  0179  2F2D               	goto	l208
  4517  017A                     l3762:
  4518                           
  4519                           ;LCD.c: 439:             return "120";
  4520  017A  3022               	movlw	low (STR_124| (0+32768))
  4521  017B  00F2               	movwf	?_CONV
  4522  017C  3088               	movlw	high (STR_124| (0+32768))
  4523  017D  00F3               	movwf	?_CONV+1
  4524  017E  2F2D               	goto	l208
  4525  017F                     l3768:
  4526                           
  4527                           ;LCD.c: 442:             return "121";
  4528  017F  308A               	movlw	low (STR_125| (0+32768))
  4529  0180  00F2               	movwf	?_CONV
  4530  0181  3088               	movlw	high (STR_125| (0+32768))
  4531  0182  00F3               	movwf	?_CONV+1
  4532  0183  2F2D               	goto	l208
  4533  0184                     l3774:
  4534                           
  4535                           ;LCD.c: 445:             return "122";
  4536  0184  30F2               	movlw	low (STR_126| (0+32768))
  4537  0185  00F2               	movwf	?_CONV
  4538  0186  3088               	movlw	high (STR_126| (0+32768))
  4539  0187  00F3               	movwf	?_CONV+1
  4540  0188  2F2D               	goto	l208
  4541  0189                     l3780:
  4542                           
  4543                           ;LCD.c: 448:             return "123";
  4544  0189  3056               	movlw	low (STR_127| (0+32768))
  4545  018A  00F2               	movwf	?_CONV
  4546  018B  3089               	movlw	high (STR_127| (0+32768))
  4547  018C  00F3               	movwf	?_CONV+1
  4548  018D  2F2D               	goto	l208
  4549  018E                     l3786:
  4550                           
  4551                           ;LCD.c: 451:             return "124";
  4552  018E  30BA               	movlw	low (STR_128| (0+32768))
  4553  018F  00F2               	movwf	?_CONV
  4554  0190  3089               	movlw	high (STR_128| (0+32768))
  4555  0191  00F3               	movwf	?_CONV+1
  4556  0192  2F2D               	goto	l208
  4557  0193                     l3792:
  4558                           
  4559                           ;LCD.c: 454:             return "125";
  4560  0193  3022               	movlw	low (STR_129| (0+32768))
  4561  0194  00F2               	movwf	?_CONV
  4562  0195  308A               	movlw	high (STR_129| (0+32768))
  4563  0196  00F3               	movwf	?_CONV+1
  4564  0197  2F2D               	goto	l208
  4565  0198                     l3798:
  4566                           
  4567                           ;LCD.c: 457:             return "126";
  4568  0198  308A               	movlw	low (STR_130| (0+32768))
  4569  0199  00F2               	movwf	?_CONV
  4570  019A  308A               	movlw	high (STR_130| (0+32768))
  4571  019B  00F3               	movwf	?_CONV+1
  4572  019C  2F2D               	goto	l208
  4573  019D                     l3804:
  4574                           
  4575                           ;LCD.c: 460:             return "127";
  4576  019D  30EE               	movlw	low (STR_131| (0+32768))
  4577  019E  00F2               	movwf	?_CONV
  4578  019F  308A               	movlw	high (STR_131| (0+32768))
  4579  01A0  00F3               	movwf	?_CONV+1
  4580  01A1  2F2D               	goto	l208
  4581  01A2                     l3810:
  4582                           
  4583                           ;LCD.c: 463:             return "128";
  4584  01A2  3052               	movlw	low (STR_132| (0+32768))
  4585  01A3  00F2               	movwf	?_CONV
  4586  01A4  308B               	movlw	high (STR_132| (0+32768))
  4587  01A5  00F3               	movwf	?_CONV+1
  4588  01A6  2F2D               	goto	l208
  4589  01A7                     l3816:
  4590                           
  4591                           ;LCD.c: 466:             return "129";
  4592  01A7  30B6               	movlw	low (STR_133| (0+32768))
  4593  01A8  00F2               	movwf	?_CONV
  4594  01A9  308B               	movlw	high (STR_133| (0+32768))
  4595  01AA  00F3               	movwf	?_CONV+1
  4596  01AB  2F2D               	goto	l208
  4597  01AC                     l3822:
  4598                           
  4599                           ;LCD.c: 469:             return "130";
  4600  01AC  302E               	movlw	low (STR_134| (0+32768))
  4601  01AD  00F2               	movwf	?_CONV
  4602  01AE  3088               	movlw	high (STR_134| (0+32768))
  4603  01AF  00F3               	movwf	?_CONV+1
  4604  01B0  2F2D               	goto	l208
  4605  01B1                     l3828:
  4606                           
  4607                           ;LCD.c: 472:             return "131";
  4608  01B1  3096               	movlw	low (STR_135| (0+32768))
  4609  01B2  00F2               	movwf	?_CONV
  4610  01B3  3088               	movlw	high (STR_135| (0+32768))
  4611  01B4  00F3               	movwf	?_CONV+1
  4612  01B5  2F2D               	goto	l208
  4613  01B6                     l3834:
  4614                           
  4615                           ;LCD.c: 475:             return "132";
  4616  01B6  30FE               	movlw	low (STR_136| (0+32768))
  4617  01B7  00F2               	movwf	?_CONV
  4618  01B8  3088               	movlw	high (STR_136| (0+32768))
  4619  01B9  00F3               	movwf	?_CONV+1
  4620  01BA  2F2D               	goto	l208
  4621  01BB                     l3840:
  4622                           
  4623                           ;LCD.c: 478:             return "133";
  4624  01BB  3062               	movlw	low (STR_137| (0+32768))
  4625  01BC  00F2               	movwf	?_CONV
  4626  01BD  3089               	movlw	high (STR_137| (0+32768))
  4627  01BE  00F3               	movwf	?_CONV+1
  4628  01BF  2F2D               	goto	l208
  4629  01C0                     l3846:
  4630                           
  4631                           ;LCD.c: 481:             return "134";
  4632  01C0  30C6               	movlw	low (STR_138| (0+32768))
  4633  01C1  00F2               	movwf	?_CONV
  4634  01C2  3089               	movlw	high (STR_138| (0+32768))
  4635  01C3  00F3               	movwf	?_CONV+1
  4636  01C4  2F2D               	goto	l208
  4637  01C5                     l3852:
  4638                           
  4639                           ;LCD.c: 484:             return "135";
  4640  01C5  302E               	movlw	low (STR_139| (0+32768))
  4641  01C6  00F2               	movwf	?_CONV
  4642  01C7  308A               	movlw	high (STR_139| (0+32768))
  4643  01C8  00F3               	movwf	?_CONV+1
  4644  01C9  2F2D               	goto	l208
  4645  01CA                     l3858:
  4646                           
  4647                           ;LCD.c: 487:             return "136";
  4648  01CA  3096               	movlw	low (STR_140| (0+32768))
  4649  01CB  00F2               	movwf	?_CONV
  4650  01CC  308A               	movlw	high (STR_140| (0+32768))
  4651  01CD  00F3               	movwf	?_CONV+1
  4652  01CE  2F2D               	goto	l208
  4653  01CF                     l3864:
  4654                           
  4655                           ;LCD.c: 490:             return "137";
  4656  01CF  30FA               	movlw	low (STR_141| (0+32768))
  4657  01D0  00F2               	movwf	?_CONV
  4658  01D1  308A               	movlw	high (STR_141| (0+32768))
  4659  01D2  00F3               	movwf	?_CONV+1
  4660  01D3  2F2D               	goto	l208
  4661  01D4                     l3870:
  4662                           
  4663                           ;LCD.c: 493:             return "138";
  4664  01D4  305E               	movlw	low (STR_142| (0+32768))
  4665  01D5  00F2               	movwf	?_CONV
  4666  01D6  308B               	movlw	high (STR_142| (0+32768))
  4667  01D7  00F3               	movwf	?_CONV+1
  4668  01D8  2F2D               	goto	l208
  4669  01D9                     l3876:
  4670                           
  4671                           ;LCD.c: 496:             return "139";
  4672  01D9  30C2               	movlw	low (STR_143| (0+32768))
  4673  01DA  00F2               	movwf	?_CONV
  4674  01DB  308B               	movlw	high (STR_143| (0+32768))
  4675  01DC  00F3               	movwf	?_CONV+1
  4676  01DD  2F2D               	goto	l208
  4677  01DE                     l3882:
  4678                           
  4679                           ;LCD.c: 499:             return "140";
  4680  01DE  303A               	movlw	low (STR_144| (0+32768))
  4681  01DF  00F2               	movwf	?_CONV
  4682  01E0  3088               	movlw	high (STR_144| (0+32768))
  4683  01E1  00F3               	movwf	?_CONV+1
  4684  01E2  2F2D               	goto	l208
  4685  01E3                     l3888:
  4686                           
  4687                           ;LCD.c: 502:             return "141";
  4688  01E3  30A2               	movlw	low (STR_145| (0+32768))
  4689  01E4  00F2               	movwf	?_CONV
  4690  01E5  3088               	movlw	high (STR_145| (0+32768))
  4691  01E6  00F3               	movwf	?_CONV+1
  4692  01E7  2F2D               	goto	l208
  4693  01E8                     l3894:
  4694                           
  4695                           ;LCD.c: 505:             return "142";
  4696  01E8  300A               	movlw	low (STR_146| (0+32768))
  4697  01E9  00F2               	movwf	?_CONV
  4698  01EA  3089               	movlw	high (STR_146| (0+32768))
  4699  01EB  00F3               	movwf	?_CONV+1
  4700  01EC  2F2D               	goto	l208
  4701  01ED                     l3900:
  4702                           
  4703                           ;LCD.c: 508:             return "143";
  4704  01ED  306E               	movlw	low (STR_147| (0+32768))
  4705  01EE  00F2               	movwf	?_CONV
  4706  01EF  3089               	movlw	high (STR_147| (0+32768))
  4707  01F0  00F3               	movwf	?_CONV+1
  4708  01F1  2F2D               	goto	l208
  4709  01F2                     l3906:
  4710                           
  4711                           ;LCD.c: 511:             return "144";
  4712  01F2  30D2               	movlw	low (STR_148| (0+32768))
  4713  01F3  00F2               	movwf	?_CONV
  4714  01F4  3089               	movlw	high (STR_148| (0+32768))
  4715  01F5  00F3               	movwf	?_CONV+1
  4716  01F6  2F2D               	goto	l208
  4717  01F7                     l3912:
  4718                           
  4719                           ;LCD.c: 514:             return "145";
  4720  01F7  303A               	movlw	low (STR_149| (0+32768))
  4721  01F8  00F2               	movwf	?_CONV
  4722  01F9  308A               	movlw	high (STR_149| (0+32768))
  4723  01FA  00F3               	movwf	?_CONV+1
  4724  01FB  2F2D               	goto	l208
  4725  01FC                     l3918:
  4726                           
  4727                           ;LCD.c: 517:             return "146";
  4728  01FC  30A2               	movlw	low (STR_150| (0+32768))
  4729  01FD  00F2               	movwf	?_CONV
  4730  01FE  308A               	movlw	high (STR_150| (0+32768))
  4731  01FF  00F3               	movwf	?_CONV+1
  4732  0200  2F2D               	goto	l208
  4733  0201                     l3924:
  4734                           
  4735                           ;LCD.c: 520:             return "147";
  4736  0201  3006               	movlw	low (STR_151| (0+32768))
  4737  0202  00F2               	movwf	?_CONV
  4738  0203  308B               	movlw	high (STR_151| (0+32768))
  4739  0204  00F3               	movwf	?_CONV+1
  4740  0205  2F2D               	goto	l208
  4741  0206                     l3930:
  4742                           
  4743                           ;LCD.c: 523:             return "148";
  4744  0206  306A               	movlw	low (STR_152| (0+32768))
  4745  0207  00F2               	movwf	?_CONV
  4746  0208  308B               	movlw	high (STR_152| (0+32768))
  4747  0209  00F3               	movwf	?_CONV+1
  4748  020A  2F2D               	goto	l208
  4749  020B                     l3936:
  4750                           
  4751                           ;LCD.c: 526:             return "149";
  4752  020B  30CE               	movlw	low (STR_153| (0+32768))
  4753  020C  00F2               	movwf	?_CONV
  4754  020D  308B               	movlw	high (STR_153| (0+32768))
  4755  020E  00F3               	movwf	?_CONV+1
  4756  020F  2F2D               	goto	l208
  4757  0210                     l3942:
  4758                           
  4759                           ;LCD.c: 529:             return "150";
  4760  0210  3046               	movlw	low (STR_154| (0+32768))
  4761  0211  00F2               	movwf	?_CONV
  4762  0212  3088               	movlw	high (STR_154| (0+32768))
  4763  0213  00F3               	movwf	?_CONV+1
  4764  0214  2F2D               	goto	l208
  4765  0215                     l3948:
  4766                           
  4767                           ;LCD.c: 532:             return "151";
  4768  0215  30AE               	movlw	low (STR_155| (0+32768))
  4769  0216  00F2               	movwf	?_CONV
  4770  0217  3088               	movlw	high (STR_155| (0+32768))
  4771  0218  00F3               	movwf	?_CONV+1
  4772  0219  2F2D               	goto	l208
  4773  021A                     l3954:
  4774                           
  4775                           ;LCD.c: 535:             return "2";
  4776  021A  30D8               	movlw	low ((STR_6+2)| (0+32768))
  4777  021B  00F2               	movwf	?_CONV
  4778  021C  3088               	movlw	high ((STR_6+2)| (0+32768))
  4779  021D  00F3               	movwf	?_CONV+1
  4780  021E  2F2D               	goto	l208
  4781  021F                     l3960:
  4782                           
  4783                           ;LCD.c: 538:             return "3";
  4784  021F  303C               	movlw	low ((STR_7+2)| (0+32768))
  4785  0220  00F2               	movwf	?_CONV
  4786  0221  3089               	movlw	high ((STR_7+2)| (0+32768))
  4787  0222  00F3               	movwf	?_CONV+1
  4788  0223  2F2D               	goto	l208
  4789  0224                     l3966:
  4790                           
  4791                           ;LCD.c: 541:             return "154";
  4792  0224  30DE               	movlw	low (STR_158| (0+32768))
  4793  0225  00F2               	movwf	?_CONV
  4794  0226  3089               	movlw	high (STR_158| (0+32768))
  4795  0227  00F3               	movwf	?_CONV+1
  4796  0228  2F2D               	goto	l208
  4797  0229                     l3972:
  4798                           
  4799                           ;LCD.c: 544:             return "155";
  4800  0229  3046               	movlw	low (STR_159| (0+32768))
  4801  022A  00F2               	movwf	?_CONV
  4802  022B  308A               	movlw	high (STR_159| (0+32768))
  4803  022C  00F3               	movwf	?_CONV+1
  4804  022D  2F2D               	goto	l208
  4805  022E                     l3978:
  4806                           
  4807                           ;LCD.c: 547:             return "156";
  4808  022E  30AE               	movlw	low (STR_160| (0+32768))
  4809  022F  00F2               	movwf	?_CONV
  4810  0230  308A               	movlw	high (STR_160| (0+32768))
  4811  0231  00F3               	movwf	?_CONV+1
  4812  0232  2F2D               	goto	l208
  4813  0233                     l3984:
  4814                           
  4815                           ;LCD.c: 550:             return "157";
  4816  0233  3012               	movlw	low (STR_161| (0+32768))
  4817  0234  00F2               	movwf	?_CONV
  4818  0235  308B               	movlw	high (STR_161| (0+32768))
  4819  0236  00F3               	movwf	?_CONV+1
  4820  0237  2F2D               	goto	l208
  4821  0238                     l3990:
  4822                           
  4823                           ;LCD.c: 553:             return "158";
  4824  0238  3076               	movlw	low (STR_162| (0+32768))
  4825  0239  00F2               	movwf	?_CONV
  4826  023A  308B               	movlw	high (STR_162| (0+32768))
  4827  023B  00F3               	movwf	?_CONV+1
  4828  023C  2F2D               	goto	l208
  4829  023D                     l3996:
  4830                           
  4831                           ;LCD.c: 556:             return "159";
  4832  023D  30DA               	movlw	low (STR_163| (0+32768))
  4833  023E  00F2               	movwf	?_CONV
  4834  023F  308B               	movlw	high (STR_163| (0+32768))
  4835  0240  00F3               	movwf	?_CONV+1
  4836  0241  2F2D               	goto	l208
  4837  0242                     l4002:
  4838                           
  4839                           ;LCD.c: 559:             return "160";
  4840  0242  3052               	movlw	low (STR_164| (0+32768))
  4841  0243  00F2               	movwf	?_CONV
  4842  0244  3088               	movlw	high (STR_164| (0+32768))
  4843  0245  00F3               	movwf	?_CONV+1
  4844  0246  2F2D               	goto	l208
  4845  0247                     l4008:
  4846                           
  4847                           ;LCD.c: 562:             return "161";
  4848  0247  30BA               	movlw	low (STR_165| (0+32768))
  4849  0248  00F2               	movwf	?_CONV
  4850  0249  3088               	movlw	high (STR_165| (0+32768))
  4851  024A  00F3               	movwf	?_CONV+1
  4852  024B  2F2D               	goto	l208
  4853  024C                     l4014:
  4854                           
  4855                           ;LCD.c: 565:             return "162";
  4856  024C  301E               	movlw	low (STR_166| (0+32768))
  4857  024D  00F2               	movwf	?_CONV
  4858  024E  3089               	movlw	high (STR_166| (0+32768))
  4859  024F  00F3               	movwf	?_CONV+1
  4860  0250  2F2D               	goto	l208
  4861  0251                     l4020:
  4862                           
  4863                           ;LCD.c: 568:             return "163";
  4864  0251  3082               	movlw	low (STR_167| (0+32768))
  4865  0252  00F2               	movwf	?_CONV
  4866  0253  3089               	movlw	high (STR_167| (0+32768))
  4867  0254  00F3               	movwf	?_CONV+1
  4868  0255  2F2D               	goto	l208
  4869  0256                     l4026:
  4870                           
  4871                           ;LCD.c: 571:             return "164";
  4872  0256  30EA               	movlw	low (STR_168| (0+32768))
  4873  0257  00F2               	movwf	?_CONV
  4874  0258  3089               	movlw	high (STR_168| (0+32768))
  4875  0259  00F3               	movwf	?_CONV+1
  4876  025A  2F2D               	goto	l208
  4877  025B                     l4032:
  4878                           
  4879                           ;LCD.c: 574:             return "165";
  4880  025B  3052               	movlw	low (STR_169| (0+32768))
  4881  025C  00F2               	movwf	?_CONV
  4882  025D  308A               	movlw	high (STR_169| (0+32768))
  4883  025E  00F3               	movwf	?_CONV+1
  4884  025F  2F2D               	goto	l208
  4885  0260                     l4038:
  4886                           
  4887                           ;LCD.c: 577:             return "166";
  4888  0260  30B6               	movlw	low (STR_170| (0+32768))
  4889  0261  00F2               	movwf	?_CONV
  4890  0262  308A               	movlw	high (STR_170| (0+32768))
  4891  0263  00F3               	movwf	?_CONV+1
  4892  0264  2F2D               	goto	l208
  4893  0265                     l4044:
  4894                           
  4895                           ;LCD.c: 580:             return "167";
  4896  0265  301A               	movlw	low (STR_171| (0+32768))
  4897  0266  00F2               	movwf	?_CONV
  4898  0267  308B               	movlw	high (STR_171| (0+32768))
  4899  0268  00F3               	movwf	?_CONV+1
  4900  0269  2F2D               	goto	l208
  4901  026A                     l4050:
  4902                           
  4903                           ;LCD.c: 583:             return "168";
  4904  026A  307E               	movlw	low (STR_172| (0+32768))
  4905  026B  00F2               	movwf	?_CONV
  4906  026C  308B               	movlw	high (STR_172| (0+32768))
  4907  026D  00F3               	movwf	?_CONV+1
  4908  026E  2F2D               	goto	l208
  4909  026F                     l4056:
  4910                           
  4911                           ;LCD.c: 586:             return "169";
  4912  026F  30E2               	movlw	low (STR_173| (0+32768))
  4913  0270  00F2               	movwf	?_CONV
  4914  0271  308B               	movlw	high (STR_173| (0+32768))
  4915  0272  00F3               	movwf	?_CONV+1
  4916  0273  2F2D               	goto	l208
  4917  0274                     l4062:
  4918                           
  4919                           ;LCD.c: 589:             return "170";
  4920  0274  305A               	movlw	low (STR_174| (0+32768))
  4921  0275  00F2               	movwf	?_CONV
  4922  0276  3088               	movlw	high (STR_174| (0+32768))
  4923  0277  00F3               	movwf	?_CONV+1
  4924  0278  2F2D               	goto	l208
  4925  0279                     l4068:
  4926                           
  4927                           ;LCD.c: 592:             return "171";
  4928  0279  30C2               	movlw	low (STR_175| (0+32768))
  4929  027A  00F2               	movwf	?_CONV
  4930  027B  3088               	movlw	high (STR_175| (0+32768))
  4931  027C  00F3               	movwf	?_CONV+1
  4932  027D  2F2D               	goto	l208
  4933  027E                     l4074:
  4934                           
  4935                           ;LCD.c: 595:             return "172";
  4936  027E  3026               	movlw	low (STR_176| (0+32768))
  4937  027F  00F2               	movwf	?_CONV
  4938  0280  3089               	movlw	high (STR_176| (0+32768))
  4939  0281  00F3               	movwf	?_CONV+1
  4940  0282  2F2D               	goto	l208
  4941  0283                     l4080:
  4942                           
  4943                           ;LCD.c: 598:             return "173";
  4944  0283  308A               	movlw	low (STR_177| (0+32768))
  4945  0284  00F2               	movwf	?_CONV
  4946  0285  3089               	movlw	high (STR_177| (0+32768))
  4947  0286  00F3               	movwf	?_CONV+1
  4948  0287  2F2D               	goto	l208
  4949  0288                     l4086:
  4950                           
  4951                           ;LCD.c: 601:             return "174";
  4952  0288  30F2               	movlw	low (STR_178| (0+32768))
  4953  0289  00F2               	movwf	?_CONV
  4954  028A  3089               	movlw	high (STR_178| (0+32768))
  4955  028B  00F3               	movwf	?_CONV+1
  4956  028C  2F2D               	goto	l208
  4957  028D                     l4092:
  4958                           
  4959                           ;LCD.c: 604:             return "175";
  4960  028D  305A               	movlw	low (STR_179| (0+32768))
  4961  028E  00F2               	movwf	?_CONV
  4962  028F  308A               	movlw	high (STR_179| (0+32768))
  4963  0290  00F3               	movwf	?_CONV+1
  4964  0291  2F2D               	goto	l208
  4965  0292                     l4098:
  4966                           
  4967                           ;LCD.c: 607:             return "176";
  4968  0292  30BE               	movlw	low (STR_180| (0+32768))
  4969  0293  00F2               	movwf	?_CONV
  4970  0294  308A               	movlw	high (STR_180| (0+32768))
  4971  0295  00F3               	movwf	?_CONV+1
  4972  0296  2F2D               	goto	l208
  4973  0297                     l4104:
  4974                           
  4975                           ;LCD.c: 610:             return "177";
  4976  0297  3022               	movlw	low (STR_181| (0+32768))
  4977  0298  00F2               	movwf	?_CONV
  4978  0299  308B               	movlw	high (STR_181| (0+32768))
  4979  029A  00F3               	movwf	?_CONV+1
  4980  029B  2F2D               	goto	l208
  4981  029C                     l4110:
  4982                           
  4983                           ;LCD.c: 613:             return "178";
  4984  029C  3086               	movlw	low (STR_182| (0+32768))
  4985  029D  00F2               	movwf	?_CONV
  4986  029E  308B               	movlw	high (STR_182| (0+32768))
  4987  029F  00F3               	movwf	?_CONV+1
  4988  02A0  2F2D               	goto	l208
  4989  02A1                     l4116:
  4990                           
  4991                           ;LCD.c: 616:             return "179";
  4992  02A1  30EA               	movlw	low (STR_183| (0+32768))
  4993  02A2  00F2               	movwf	?_CONV
  4994  02A3  308B               	movlw	high (STR_183| (0+32768))
  4995  02A4  00F3               	movwf	?_CONV+1
  4996  02A5  2F2D               	goto	l208
  4997  02A6                     l4122:
  4998                           
  4999                           ;LCD.c: 619:             return "180";
  5000  02A6  3062               	movlw	low (STR_184| (0+32768))
  5001  02A7  00F2               	movwf	?_CONV
  5002  02A8  3088               	movlw	high (STR_184| (0+32768))
  5003  02A9  00F3               	movwf	?_CONV+1
  5004  02AA  2F2D               	goto	l208
  5005  02AB                     l4128:
  5006                           
  5007                           ;LCD.c: 622:             return "181";
  5008  02AB  30CA               	movlw	low (STR_185| (0+32768))
  5009  02AC  00F2               	movwf	?_CONV
  5010  02AD  3088               	movlw	high (STR_185| (0+32768))
  5011  02AE  00F3               	movwf	?_CONV+1
  5012  02AF  2F2D               	goto	l208
  5013  02B0                     l4134:
  5014                           
  5015                           ;LCD.c: 625:             return "182";
  5016  02B0  302E               	movlw	low (STR_186| (0+32768))
  5017  02B1  00F2               	movwf	?_CONV
  5018  02B2  3089               	movlw	high (STR_186| (0+32768))
  5019  02B3  00F3               	movwf	?_CONV+1
  5020  02B4  2F2D               	goto	l208
  5021  02B5                     l4140:
  5022                           
  5023                           ;LCD.c: 628:             return "183";
  5024  02B5  3092               	movlw	low (STR_187| (0+32768))
  5025  02B6  00F2               	movwf	?_CONV
  5026  02B7  3089               	movlw	high (STR_187| (0+32768))
  5027  02B8  00F3               	movwf	?_CONV+1
  5028  02B9  2F2D               	goto	l208
  5029  02BA                     l4146:
  5030                           
  5031                           ;LCD.c: 631:             return "184";
  5032  02BA  30FA               	movlw	low (STR_188| (0+32768))
  5033  02BB  00F2               	movwf	?_CONV
  5034  02BC  3089               	movlw	high (STR_188| (0+32768))
  5035  02BD  00F3               	movwf	?_CONV+1
  5036  02BE  2F2D               	goto	l208
  5037  02BF                     l4152:
  5038                           
  5039                           ;LCD.c: 634:             return "185";
  5040  02BF  3062               	movlw	low (STR_189| (0+32768))
  5041  02C0  00F2               	movwf	?_CONV
  5042  02C1  308A               	movlw	high (STR_189| (0+32768))
  5043  02C2  00F3               	movwf	?_CONV+1
  5044  02C3  2F2D               	goto	l208
  5045  02C4                     l4158:
  5046                           
  5047                           ;LCD.c: 637:             return "186";
  5048  02C4  30C6               	movlw	low (STR_190| (0+32768))
  5049  02C5  00F2               	movwf	?_CONV
  5050  02C6  308A               	movlw	high (STR_190| (0+32768))
  5051  02C7  00F3               	movwf	?_CONV+1
  5052  02C8  2F2D               	goto	l208
  5053  02C9                     l4164:
  5054                           
  5055                           ;LCD.c: 640:             return "187";
  5056  02C9  302A               	movlw	low (STR_191| (0+32768))
  5057  02CA  00F2               	movwf	?_CONV
  5058  02CB  308B               	movlw	high (STR_191| (0+32768))
  5059  02CC  00F3               	movwf	?_CONV+1
  5060  02CD  2F2D               	goto	l208
  5061  02CE                     l4170:
  5062                           
  5063                           ;LCD.c: 643:             return "188";
  5064  02CE  308E               	movlw	low (STR_192| (0+32768))
  5065  02CF  00F2               	movwf	?_CONV
  5066  02D0  308B               	movlw	high (STR_192| (0+32768))
  5067  02D1  00F3               	movwf	?_CONV+1
  5068  02D2  2F2D               	goto	l208
  5069  02D3                     l4176:
  5070                           
  5071                           ;LCD.c: 646:             return "189";
  5072  02D3  30F2               	movlw	low (STR_193| (0+32768))
  5073  02D4  00F2               	movwf	?_CONV
  5074  02D5  308B               	movlw	high (STR_193| (0+32768))
  5075  02D6  00F3               	movwf	?_CONV+1
  5076  02D7  2F2D               	goto	l208
  5077  02D8                     l4182:
  5078                           
  5079                           ;LCD.c: 649:             return "190";
  5080  02D8  306A               	movlw	low (STR_194| (0+32768))
  5081  02D9  00F2               	movwf	?_CONV
  5082  02DA  3088               	movlw	high (STR_194| (0+32768))
  5083  02DB  00F3               	movwf	?_CONV+1
  5084  02DC  2F2D               	goto	l208
  5085  02DD                     l4188:
  5086                           
  5087                           ;LCD.c: 652:             return "191";
  5088  02DD  30D2               	movlw	low (STR_195| (0+32768))
  5089  02DE  00F2               	movwf	?_CONV
  5090  02DF  3088               	movlw	high (STR_195| (0+32768))
  5091  02E0  00F3               	movwf	?_CONV+1
  5092  02E1  2F2D               	goto	l208
  5093  02E2                     l4194:
  5094                           
  5095                           ;LCD.c: 655:             return "192";
  5096  02E2  3036               	movlw	low (STR_196| (0+32768))
  5097  02E3  00F2               	movwf	?_CONV
  5098  02E4  3089               	movlw	high (STR_196| (0+32768))
  5099  02E5  00F3               	movwf	?_CONV+1
  5100  02E6  2F2D               	goto	l208
  5101  02E7                     l4200:
  5102                           
  5103                           ;LCD.c: 658:             return "193";
  5104  02E7  309A               	movlw	low (STR_197| (0+32768))
  5105  02E8  00F2               	movwf	?_CONV
  5106  02E9  3089               	movlw	high (STR_197| (0+32768))
  5107  02EA  00F3               	movwf	?_CONV+1
  5108  02EB  2F2D               	goto	l208
  5109  02EC                     l4206:
  5110                           
  5111                           ;LCD.c: 661:             return "194";
  5112  02EC  3002               	movlw	low (STR_198| (0+32768))
  5113  02ED  00F2               	movwf	?_CONV
  5114  02EE  308A               	movlw	high (STR_198| (0+32768))
  5115  02EF  00F3               	movwf	?_CONV+1
  5116  02F0  2F2D               	goto	l208
  5117  02F1                     l4212:
  5118                           
  5119                           ;LCD.c: 664:             return "195";
  5120  02F1  306A               	movlw	low (STR_199| (0+32768))
  5121  02F2  00F2               	movwf	?_CONV
  5122  02F3  308A               	movlw	high (STR_199| (0+32768))
  5123  02F4  00F3               	movwf	?_CONV+1
  5124  02F5  2F2D               	goto	l208
  5125  02F6                     l4218:
  5126                           
  5127                           ;LCD.c: 667:             return "196";
  5128  02F6  30CE               	movlw	low (STR_200| (0+32768))
  5129  02F7  00F2               	movwf	?_CONV
  5130  02F8  308A               	movlw	high (STR_200| (0+32768))
  5131  02F9  00F3               	movwf	?_CONV+1
  5132  02FA  2F2D               	goto	l208
  5133  02FB                     l4224:
  5134                           
  5135                           ;LCD.c: 670:             return "197";
  5136  02FB  3032               	movlw	low (STR_201| (0+32768))
  5137  02FC  00F2               	movwf	?_CONV
  5138  02FD  308B               	movlw	high (STR_201| (0+32768))
  5139  02FE  00F3               	movwf	?_CONV+1
  5140  02FF  2F2D               	goto	l208
  5141  0300                     l4230:
  5142                           
  5143                           ;LCD.c: 673:             return "198";
  5144  0300  3096               	movlw	low (STR_202| (0+32768))
  5145  0301  00F2               	movwf	?_CONV
  5146  0302  308B               	movlw	high (STR_202| (0+32768))
  5147  0303  00F3               	movwf	?_CONV+1
  5148  0304  2F2D               	goto	l208
  5149  0305                     l4236:
  5150                           
  5151                           ;LCD.c: 676:             return "199";
  5152  0305  30FA               	movlw	low (STR_203| (0+32768))
  5153  0306  00F2               	movwf	?_CONV
  5154  0307  308B               	movlw	high (STR_203| (0+32768))
  5155  0308  00F3               	movwf	?_CONV+1
  5156  0309  2F2D               	goto	l208
  5157  030A                     l4242:
  5158                           
  5159                           ;LCD.c: 679:             return "20";
  5160  030A  301F               	movlw	low ((STR_24+1)| (0+32768))
  5161  030B  00F2               	movwf	?_CONV
  5162  030C  3088               	movlw	high ((STR_24+1)| (0+32768))
  5163  030D  00F3               	movwf	?_CONV+1
  5164  030E  2F2D               	goto	l208
  5165  030F                     l4248:
  5166                           
  5167                           ;LCD.c: 682:             return "201";
  5168  030F  3076               	movlw	low (STR_205| (0+32768))
  5169  0310  00F2               	movwf	?_CONV
  5170  0311  3088               	movlw	high (STR_205| (0+32768))
  5171  0312  00F3               	movwf	?_CONV+1
  5172  0313  2F2D               	goto	l208
  5173  0314                     l4254:
  5174                           
  5175                           ;LCD.c: 685:             return "202";
  5176  0314  30DE               	movlw	low (STR_206| (0+32768))
  5177  0315  00F2               	movwf	?_CONV
  5178  0316  3088               	movlw	high (STR_206| (0+32768))
  5179  0317  00F3               	movwf	?_CONV+1
  5180  0318  2F2D               	goto	l208
  5181  0319                     l4260:
  5182                           
  5183                           ;LCD.c: 688:             return "203";
  5184  0319  3042               	movlw	low (STR_207| (0+32768))
  5185  031A  00F2               	movwf	?_CONV
  5186  031B  3089               	movlw	high (STR_207| (0+32768))
  5187  031C  00F3               	movwf	?_CONV+1
  5188  031D  2F2D               	goto	l208
  5189  031E                     l4266:
  5190                           
  5191                           ;LCD.c: 691:             return "204";
  5192  031E  30A6               	movlw	low (STR_208| (0+32768))
  5193  031F  00F2               	movwf	?_CONV
  5194  0320  3089               	movlw	high (STR_208| (0+32768))
  5195  0321  00F3               	movwf	?_CONV+1
  5196  0322  2F2D               	goto	l208
  5197  0323                     l4272:
  5198                           
  5199                           ;LCD.c: 694:             return "205";
  5200  0323  300E               	movlw	low (STR_209| (0+32768))
  5201  0324  00F2               	movwf	?_CONV
  5202  0325  308A               	movlw	high (STR_209| (0+32768))
  5203  0326  00F3               	movwf	?_CONV+1
  5204  0327  2F2D               	goto	l208
  5205  0328                     l4278:
  5206                           
  5207                           ;LCD.c: 697:             return "206";
  5208  0328  3076               	movlw	low (STR_210| (0+32768))
  5209  0329  00F2               	movwf	?_CONV
  5210  032A  308A               	movlw	high (STR_210| (0+32768))
  5211  032B  00F3               	movwf	?_CONV+1
  5212  032C  2F2D               	goto	l208
  5213  032D                     l4284:
  5214                           
  5215                           ;LCD.c: 700:             return "207";
  5216  032D  30DA               	movlw	low (STR_211| (0+32768))
  5217  032E  00F2               	movwf	?_CONV
  5218  032F  308A               	movlw	high (STR_211| (0+32768))
  5219  0330  00F3               	movwf	?_CONV+1
  5220  0331  2F2D               	goto	l208
  5221  0332                     l4290:
  5222                           
  5223                           ;LCD.c: 703:             return "208";
  5224  0332  303E               	movlw	low (STR_212| (0+32768))
  5225  0333  00F2               	movwf	?_CONV
  5226  0334  308B               	movlw	high (STR_212| (0+32768))
  5227  0335  00F3               	movwf	?_CONV+1
  5228  0336  2F2D               	goto	l208
  5229  0337                     l4296:
  5230                           
  5231                           ;LCD.c: 706:             return "209";
  5232  0337  30A2               	movlw	low (STR_213| (0+32768))
  5233  0338  00F2               	movwf	?_CONV
  5234  0339  308B               	movlw	high (STR_213| (0+32768))
  5235  033A  00F3               	movwf	?_CONV+1
  5236  033B  2F2D               	goto	l208
  5237  033C                     l4302:
  5238                           
  5239                           ;LCD.c: 709:             return "210";
  5240  033C  301A               	movlw	low (STR_214| (0+32768))
  5241  033D  00F2               	movwf	?_CONV
  5242  033E  3088               	movlw	high (STR_214| (0+32768))
  5243  033F  00F3               	movwf	?_CONV+1
  5244  0340  2F2D               	goto	l208
  5245  0341                     l4308:
  5246                           
  5247                           ;LCD.c: 712:             return "211";
  5248  0341  3082               	movlw	low (STR_215| (0+32768))
  5249  0342  00F2               	movwf	?_CONV
  5250  0343  3088               	movlw	high (STR_215| (0+32768))
  5251  0344  00F3               	movwf	?_CONV+1
  5252  0345  2F2D               	goto	l208
  5253  0346                     l4314:
  5254                           
  5255                           ;LCD.c: 715:             return "212";
  5256  0346  30EA               	movlw	low (STR_216| (0+32768))
  5257  0347  00F2               	movwf	?_CONV
  5258  0348  3088               	movlw	high (STR_216| (0+32768))
  5259  0349  00F3               	movwf	?_CONV+1
  5260  034A  2F2D               	goto	l208
  5261  034B                     l4320:
  5262                           
  5263                           ;LCD.c: 718:             return "213";
  5264  034B  304E               	movlw	low (STR_217| (0+32768))
  5265  034C  00F2               	movwf	?_CONV
  5266  034D  3089               	movlw	high (STR_217| (0+32768))
  5267  034E  00F3               	movwf	?_CONV+1
  5268  034F  2F2D               	goto	l208
  5269  0350                     l4326:
  5270                           
  5271                           ;LCD.c: 721:             return "214";
  5272  0350  30B2               	movlw	low (STR_218| (0+32768))
  5273  0351  00F2               	movwf	?_CONV
  5274  0352  3089               	movlw	high (STR_218| (0+32768))
  5275  0353  00F3               	movwf	?_CONV+1
  5276  0354  2F2D               	goto	l208
  5277  0355                     l4332:
  5278                           
  5279                           ;LCD.c: 724:             return "215";
  5280  0355  301A               	movlw	low (STR_219| (0+32768))
  5281  0356  00F2               	movwf	?_CONV
  5282  0357  308A               	movlw	high (STR_219| (0+32768))
  5283  0358  00F3               	movwf	?_CONV+1
  5284  0359  2F2D               	goto	l208
  5285  035A                     l4338:
  5286                           
  5287                           ;LCD.c: 727:             return "216";
  5288  035A  3082               	movlw	low (STR_220| (0+32768))
  5289  035B  00F2               	movwf	?_CONV
  5290  035C  308A               	movlw	high (STR_220| (0+32768))
  5291  035D  00F3               	movwf	?_CONV+1
  5292  035E  2F2D               	goto	l208
  5293  035F                     l4344:
  5294                           
  5295                           ;LCD.c: 730:             return "217";
  5296  035F  30E6               	movlw	low (STR_221| (0+32768))
  5297  0360  00F2               	movwf	?_CONV
  5298  0361  308A               	movlw	high (STR_221| (0+32768))
  5299  0362  00F3               	movwf	?_CONV+1
  5300  0363  2F2D               	goto	l208
  5301  0364                     l4350:
  5302                           
  5303                           ;LCD.c: 733:             return "218";
  5304  0364  304A               	movlw	low (STR_222| (0+32768))
  5305  0365  00F2               	movwf	?_CONV
  5306  0366  308B               	movlw	high (STR_222| (0+32768))
  5307  0367  00F3               	movwf	?_CONV+1
  5308  0368  2F2D               	goto	l208
  5309  0369                     l4356:
  5310                           
  5311                           ;LCD.c: 736:             return "219";
  5312  0369  30AE               	movlw	low (STR_223| (0+32768))
  5313  036A  00F2               	movwf	?_CONV
  5314  036B  308B               	movlw	high (STR_223| (0+32768))
  5315  036C  00F3               	movwf	?_CONV+1
  5316  036D  2F2D               	goto	l208
  5317  036E                     l4362:
  5318                           
  5319                           ;LCD.c: 739:             return "220";
  5320  036E  3026               	movlw	low (STR_224| (0+32768))
  5321  036F  00F2               	movwf	?_CONV
  5322  0370  3088               	movlw	high (STR_224| (0+32768))
  5323  0371  00F3               	movwf	?_CONV+1
  5324  0372  2F2D               	goto	l208
  5325  0373                     l4368:
  5326                           
  5327                           ;LCD.c: 742:             return "221";
  5328  0373  308E               	movlw	low (STR_225| (0+32768))
  5329  0374  00F2               	movwf	?_CONV
  5330  0375  3088               	movlw	high (STR_225| (0+32768))
  5331  0376  00F3               	movwf	?_CONV+1
  5332  0377  2F2D               	goto	l208
  5333  0378                     l4374:
  5334                           
  5335                           ;LCD.c: 745:             return "222";
  5336  0378  30F6               	movlw	low (STR_226| (0+32768))
  5337  0379  00F2               	movwf	?_CONV
  5338  037A  3088               	movlw	high (STR_226| (0+32768))
  5339  037B  00F3               	movwf	?_CONV+1
  5340  037C  2F2D               	goto	l208
  5341  037D                     l4380:
  5342                           
  5343                           ;LCD.c: 748:             return "223";
  5344  037D  305A               	movlw	low (STR_227| (0+32768))
  5345  037E  00F2               	movwf	?_CONV
  5346  037F  3089               	movlw	high (STR_227| (0+32768))
  5347  0380  00F3               	movwf	?_CONV+1
  5348  0381  2F2D               	goto	l208
  5349  0382                     l4386:
  5350                           
  5351                           ;LCD.c: 751:             return "224";
  5352  0382  30BE               	movlw	low (STR_228| (0+32768))
  5353  0383  00F2               	movwf	?_CONV
  5354  0384  3089               	movlw	high (STR_228| (0+32768))
  5355  0385  00F3               	movwf	?_CONV+1
  5356  0386  2F2D               	goto	l208
  5357  0387                     l4392:
  5358                           
  5359                           ;LCD.c: 754:             return "225";
  5360  0387  3026               	movlw	low (STR_229| (0+32768))
  5361  0388  00F2               	movwf	?_CONV
  5362  0389  308A               	movlw	high (STR_229| (0+32768))
  5363  038A  00F3               	movwf	?_CONV+1
  5364  038B  2F2D               	goto	l208
  5365  038C                     l4398:
  5366                           
  5367                           ;LCD.c: 757:             return "226";
  5368  038C  308E               	movlw	low (STR_230| (0+32768))
  5369  038D  00F2               	movwf	?_CONV
  5370  038E  308A               	movlw	high (STR_230| (0+32768))
  5371  038F  00F3               	movwf	?_CONV+1
  5372  0390  2F2D               	goto	l208
  5373  0391                     l4404:
  5374                           
  5375                           ;LCD.c: 760:             return "227";
  5376  0391  30F2               	movlw	low (STR_231| (0+32768))
  5377  0392  00F2               	movwf	?_CONV
  5378  0393  308A               	movlw	high (STR_231| (0+32768))
  5379  0394  00F3               	movwf	?_CONV+1
  5380  0395  2F2D               	goto	l208
  5381  0396                     l4410:
  5382                           
  5383                           ;LCD.c: 763:             return "228";
  5384  0396  3056               	movlw	low (STR_232| (0+32768))
  5385  0397  00F2               	movwf	?_CONV
  5386  0398  308B               	movlw	high (STR_232| (0+32768))
  5387  0399  00F3               	movwf	?_CONV+1
  5388  039A  2F2D               	goto	l208
  5389  039B                     l4416:
  5390                           
  5391                           ;LCD.c: 766:             return "229";
  5392  039B  30BA               	movlw	low (STR_233| (0+32768))
  5393  039C  00F2               	movwf	?_CONV
  5394  039D  308B               	movlw	high (STR_233| (0+32768))
  5395  039E  00F3               	movwf	?_CONV+1
  5396  039F  2F2D               	goto	l208
  5397  03A0                     l4422:
  5398                           
  5399                           ;LCD.c: 769:             return "230";
  5400  03A0  3032               	movlw	low (STR_234| (0+32768))
  5401  03A1  00F2               	movwf	?_CONV
  5402  03A2  3088               	movlw	high (STR_234| (0+32768))
  5403  03A3  00F3               	movwf	?_CONV+1
  5404  03A4  2F2D               	goto	l208
  5405  03A5                     l4428:
  5406                           
  5407                           ;LCD.c: 772:             return "231";
  5408  03A5  309A               	movlw	low (STR_235| (0+32768))
  5409  03A6  00F2               	movwf	?_CONV
  5410  03A7  3088               	movlw	high (STR_235| (0+32768))
  5411  03A8  00F3               	movwf	?_CONV+1
  5412  03A9  2F2D               	goto	l208
  5413  03AA                     l4434:
  5414                           
  5415                           ;LCD.c: 775:             return "232";
  5416  03AA  3002               	movlw	low (STR_236| (0+32768))
  5417  03AB  00F2               	movwf	?_CONV
  5418  03AC  3089               	movlw	high (STR_236| (0+32768))
  5419  03AD  00F3               	movwf	?_CONV+1
  5420  03AE  2F2D               	goto	l208
  5421  03AF                     l4440:
  5422                           
  5423                           ;LCD.c: 778:             return "233";
  5424  03AF  3066               	movlw	low (STR_237| (0+32768))
  5425  03B0  00F2               	movwf	?_CONV
  5426  03B1  3089               	movlw	high (STR_237| (0+32768))
  5427  03B2  00F3               	movwf	?_CONV+1
  5428  03B3  2F2D               	goto	l208
  5429  03B4                     l4446:
  5430                           
  5431                           ;LCD.c: 781:             return "234";
  5432  03B4  30CA               	movlw	low (STR_238| (0+32768))
  5433  03B5  00F2               	movwf	?_CONV
  5434  03B6  3089               	movlw	high (STR_238| (0+32768))
  5435  03B7  00F3               	movwf	?_CONV+1
  5436  03B8  2F2D               	goto	l208
  5437  03B9                     l4452:
  5438                           
  5439                           ;LCD.c: 784:             return "235";
  5440  03B9  3032               	movlw	low (STR_239| (0+32768))
  5441  03BA  00F2               	movwf	?_CONV
  5442  03BB  308A               	movlw	high (STR_239| (0+32768))
  5443  03BC  00F3               	movwf	?_CONV+1
  5444  03BD  2F2D               	goto	l208
  5445  03BE                     l4458:
  5446                           
  5447                           ;LCD.c: 787:             return "236";
  5448  03BE  309A               	movlw	low (STR_240| (0+32768))
  5449  03BF  00F2               	movwf	?_CONV
  5450  03C0  308A               	movlw	high (STR_240| (0+32768))
  5451  03C1  00F3               	movwf	?_CONV+1
  5452  03C2  2F2D               	goto	l208
  5453  03C3                     l4464:
  5454                           
  5455                           ;LCD.c: 790:             return "237";
  5456  03C3  30FE               	movlw	low (STR_241| (0+32768))
  5457  03C4  00F2               	movwf	?_CONV
  5458  03C5  308A               	movlw	high (STR_241| (0+32768))
  5459  03C6  00F3               	movwf	?_CONV+1
  5460  03C7  2F2D               	goto	l208
  5461  03C8                     l4470:
  5462                           
  5463                           ;LCD.c: 793:             return "238";
  5464  03C8  3062               	movlw	low (STR_242| (0+32768))
  5465  03C9  00F2               	movwf	?_CONV
  5466  03CA  308B               	movlw	high (STR_242| (0+32768))
  5467  03CB  00F3               	movwf	?_CONV+1
  5468  03CC  2F2D               	goto	l208
  5469  03CD                     l4476:
  5470                           
  5471                           ;LCD.c: 796:             return "239";
  5472  03CD  30C6               	movlw	low (STR_243| (0+32768))
  5473  03CE  00F2               	movwf	?_CONV
  5474  03CF  308B               	movlw	high (STR_243| (0+32768))
  5475  03D0  00F3               	movwf	?_CONV+1
  5476  03D1  2F2D               	goto	l208
  5477  03D2                     l4482:
  5478                           
  5479                           ;LCD.c: 799:             return "240";
  5480  03D2  303E               	movlw	low (STR_244| (0+32768))
  5481  03D3  00F2               	movwf	?_CONV
  5482  03D4  3088               	movlw	high (STR_244| (0+32768))
  5483  03D5  00F3               	movwf	?_CONV+1
  5484  03D6  2F2D               	goto	l208
  5485  03D7                     l4488:
  5486                           
  5487                           ;LCD.c: 802:             return "241";
  5488  03D7  30A6               	movlw	low (STR_245| (0+32768))
  5489  03D8  00F2               	movwf	?_CONV
  5490  03D9  3088               	movlw	high (STR_245| (0+32768))
  5491  03DA  00F3               	movwf	?_CONV+1
  5492  03DB  2F2D               	goto	l208
  5493  03DC                     l4494:
  5494                           
  5495                           ;LCD.c: 805:             return "242";
  5496  03DC  300E               	movlw	low (STR_246| (0+32768))
  5497  03DD  00F2               	movwf	?_CONV
  5498  03DE  3089               	movlw	high (STR_246| (0+32768))
  5499  03DF  00F3               	movwf	?_CONV+1
  5500  03E0  2F2D               	goto	l208
  5501  03E1                     l4500:
  5502                           
  5503                           ;LCD.c: 808:             return "243";
  5504  03E1  3072               	movlw	low (STR_247| (0+32768))
  5505  03E2  00F2               	movwf	?_CONV
  5506  03E3  3089               	movlw	high (STR_247| (0+32768))
  5507  03E4  00F3               	movwf	?_CONV+1
  5508  03E5  2F2D               	goto	l208
  5509  03E6                     l4506:
  5510                           
  5511                           ;LCD.c: 811:             return "244";
  5512  03E6  30D6               	movlw	low (STR_248| (0+32768))
  5513  03E7  00F2               	movwf	?_CONV
  5514  03E8  3089               	movlw	high (STR_248| (0+32768))
  5515  03E9  00F3               	movwf	?_CONV+1
  5516  03EA  2F2D               	goto	l208
  5517  03EB                     l4512:
  5518                           
  5519                           ;LCD.c: 814:             return "245";
  5520  03EB  303E               	movlw	low (STR_249| (0+32768))
  5521  03EC  00F2               	movwf	?_CONV
  5522  03ED  308A               	movlw	high (STR_249| (0+32768))
  5523  03EE  00F3               	movwf	?_CONV+1
  5524  03EF  2F2D               	goto	l208
  5525  03F0                     l4518:
  5526                           
  5527                           ;LCD.c: 817:             return "246";
  5528  03F0  30A6               	movlw	low (STR_250| (0+32768))
  5529  03F1  00F2               	movwf	?_CONV
  5530  03F2  308A               	movlw	high (STR_250| (0+32768))
  5531  03F3  00F3               	movwf	?_CONV+1
  5532  03F4  2F2D               	goto	l208
  5533  03F5                     l4524:
  5534                           
  5535                           ;LCD.c: 820:             return "247";
  5536  03F5  300A               	movlw	low (STR_251| (0+32768))
  5537  03F6  00F2               	movwf	?_CONV
  5538  03F7  308B               	movlw	high (STR_251| (0+32768))
  5539  03F8  00F3               	movwf	?_CONV+1
  5540  03F9  2F2D               	goto	l208
  5541  03FA                     l4530:
  5542                           
  5543                           ;LCD.c: 823:             return "248";
  5544  03FA  306E               	movlw	low (STR_252| (0+32768))
  5545  03FB  00F2               	movwf	?_CONV
  5546  03FC  308B               	movlw	high (STR_252| (0+32768))
  5547  03FD  00F3               	movwf	?_CONV+1
  5548  03FE  2F2D               	goto	l208
  5549  03FF                     l4536:
  5550                           
  5551                           ;LCD.c: 826:             return "249";
  5552  03FF  30D2               	movlw	low (STR_253| (0+32768))
  5553  0400  00F2               	movwf	?_CONV
  5554  0401  308B               	movlw	high (STR_253| (0+32768))
  5555  0402  00F3               	movwf	?_CONV+1
  5556  0403  2F2D               	goto	l208
  5557  0404                     l4542:
  5558                           
  5559                           ;LCD.c: 829:             return "250";
  5560  0404  304A               	movlw	low (STR_254| (0+32768))
  5561  0405  00F2               	movwf	?_CONV
  5562  0406  3088               	movlw	high (STR_254| (0+32768))
  5563  0407  00F3               	movwf	?_CONV+1
  5564  0408  2F2D               	goto	l208
  5565  0409                     l4548:
  5566                           
  5567                           ;LCD.c: 832:             return "251";
  5568  0409  30B2               	movlw	low (STR_255| (0+32768))
  5569  040A  00F2               	movwf	?_CONV
  5570  040B  3088               	movlw	high (STR_255| (0+32768))
  5571  040C  00F3               	movwf	?_CONV+1
  5572  040D  2F2D               	goto	l208
  5573  040E                     l4554:
  5574                           
  5575                           ;LCD.c: 835:             return "252";
  5576  040E  3016               	movlw	low (STR_256| (0+32768))
  5577  040F  00F2               	movwf	?_CONV
  5578  0410  3089               	movlw	high (STR_256| (0+32768))
  5579  0411  00F3               	movwf	?_CONV+1
  5580  0412  2F2D               	goto	l208
  5581  0413                     l4560:
  5582                           
  5583                           ;LCD.c: 838:             return "253";
  5584  0413  307A               	movlw	low (STR_257| (0+32768))
  5585  0414  00F2               	movwf	?_CONV
  5586  0415  3089               	movlw	high (STR_257| (0+32768))
  5587  0416  00F3               	movwf	?_CONV+1
  5588  0417  2F2D               	goto	l208
  5589  0418                     l4566:
  5590                           
  5591                           ;LCD.c: 841:             return "254";
  5592  0418  30E2               	movlw	low (STR_258| (0+32768))
  5593  0419  00F2               	movwf	?_CONV
  5594  041A  3089               	movlw	high (STR_258| (0+32768))
  5595  041B  00F3               	movwf	?_CONV+1
  5596  041C  2F2D               	goto	l208
  5597  041D                     l4572:
  5598                           
  5599                           ;LCD.c: 844:             return "255";
  5600  041D  304A               	movlw	low (STR_259| (0+32768))
  5601  041E  00F2               	movwf	?_CONV
  5602  041F  308A               	movlw	high (STR_259| (0+32768))
  5603  0420  00F3               	movwf	?_CONV+1
  5604  0421  2F2D               	goto	l208
  5605  0422                     l4580:
  5606  0422  0875               	movf	CONV@numero,w
  5607  0423  00F3               	movwf	??_CONV
  5608  0424  01F4               	clrf	??_CONV+1
  5609                           
  5610                           ; Switch on 2 bytes has been partitioned into a top level switch of size 1, and 1 sub-sw
      +                          itches
  5611                           ; Switch size 1, requested type "simple"
  5612                           ; Number of cases is 1, Range of values is 0 to 0
  5613                           ; switch strategies available:
  5614                           ; Name         Instructions Cycles
  5615                           ; simple_byte            4     3 (average)
  5616                           ; direct_byte           11     8 (fixed)
  5617                           ; jumptable            260     6 (fixed)
  5618                           ;	Chosen strategy is simple_byte
  5619  0425  0874               	movf	??_CONV+1,w
  5620  0426  3A00               	xorlw	0	; case 0
  5621  0427  1903               	skipnz
  5622  0428  2C2A               	goto	l4824
  5623  0429  2F2D               	goto	l208
  5624  042A                     l4824:
  5625                           
  5626                           ; Switch size 1, requested type "simple"
  5627                           ; Number of cases is 256, Range of values is 0 to 255
  5628                           ; switch strategies available:
  5629                           ; Name         Instructions Cycles
  5630                           ; simple_byte          766   384 (average)
  5631                           ; jumptable            260     6 (fixed)
  5632                           ;	Chosen strategy is simple_byte
  5633  042A  0873               	movf	??_CONV,w
  5634  042B  3A00               	xorlw	0	; case 0
  5635  042C  120A  158A  1903   	skipnz
  5636  042F  2EFF               	goto	l3042
  5637  0430  3A01               	xorlw	1	; case 1
  5638  0431  1903               	skipnz
  5639  0432  2F06               	goto	l3048
  5640  0433  3A03               	xorlw	3	; case 2
  5641  0434  1903               	skipnz
  5642  0435  2F0B               	goto	l3054
  5643  0436  3A01               	xorlw	1	; case 3
  5644  0437  1903               	skipnz
  5645  0438  2F10               	goto	l3060
  5646  0439  3A07               	xorlw	7	; case 4
  5647  043A  1903               	skipnz
  5648  043B  2F15               	goto	l3066
  5649  043C  3A01               	xorlw	1	; case 5
  5650  043D  1903               	skipnz
  5651  043E  2F1A               	goto	l3072
  5652  043F  3A03               	xorlw	3	; case 6
  5653  0440  1903               	skipnz
  5654  0441  2F1F               	goto	l3078
  5655  0442  3A01               	xorlw	1	; case 7
  5656  0443  1903               	skipnz
  5657  0444  2F24               	goto	l3084
  5658  0445  3A0F               	xorlw	15	; case 8
  5659  0446  1903               	skipnz
  5660  0447  2F29               	goto	l3090
  5661  0448  3A01               	xorlw	1	; case 9
  5662  0449  1903               	skipnz
  5663  044A  2F2E               	goto	l3096
  5664  044B  3A03               	xorlw	3	; case 10
  5665  044C  1903               	skipnz
  5666  044D  2F33               	goto	l3102
  5667  044E  3A01               	xorlw	1	; case 11
  5668  044F  1903               	skipnz
  5669  0450  2F38               	goto	l3108
  5670  0451  3A07               	xorlw	7	; case 12
  5671  0452  1903               	skipnz
  5672  0453  2F3D               	goto	l3114
  5673  0454  3A01               	xorlw	1	; case 13
  5674  0455  1903               	skipnz
  5675  0456  2F42               	goto	l3120
  5676  0457  3A03               	xorlw	3	; case 14
  5677  0458  1903               	skipnz
  5678  0459  2F47               	goto	l3126
  5679  045A  3A01               	xorlw	1	; case 15
  5680  045B  1903               	skipnz
  5681  045C  2F4C               	goto	l3132
  5682  045D  3A1F               	xorlw	31	; case 16
  5683  045E  1903               	skipnz
  5684  045F  2F51               	goto	l3138
  5685  0460  3A01               	xorlw	1	; case 17
  5686  0461  1903               	skipnz
  5687  0462  2F56               	goto	l3144
  5688  0463  3A03               	xorlw	3	; case 18
  5689  0464  1903               	skipnz
  5690  0465  2F5B               	goto	l3150
  5691  0466  3A01               	xorlw	1	; case 19
  5692  0467  1903               	skipnz
  5693  0468  2F60               	goto	l3156
  5694  0469  3A07               	xorlw	7	; case 20
  5695  046A  1903               	skipnz
  5696  046B  2F65               	goto	l3162
  5697  046C  3A01               	xorlw	1	; case 21
  5698  046D  1903               	skipnz
  5699  046E  2F6A               	goto	l3168
  5700  046F  3A03               	xorlw	3	; case 22
  5701  0470  1903               	skipnz
  5702  0471  2F6F               	goto	l3174
  5703  0472  3A01               	xorlw	1	; case 23
  5704  0473  1903               	skipnz
  5705  0474  2F74               	goto	l3180
  5706  0475  3A0F               	xorlw	15	; case 24
  5707  0476  1903               	skipnz
  5708  0477  2F79               	goto	l3186
  5709  0478  3A01               	xorlw	1	; case 25
  5710  0479  1903               	skipnz
  5711  047A  2F7E               	goto	l3192
  5712  047B  3A03               	xorlw	3	; case 26
  5713  047C  1903               	skipnz
  5714  047D  2F83               	goto	l3198
  5715  047E  3A01               	xorlw	1	; case 27
  5716  047F  1903               	skipnz
  5717  0480  2F88               	goto	l3204
  5718  0481  3A07               	xorlw	7	; case 28
  5719  0482  1903               	skipnz
  5720  0483  2F8D               	goto	l3210
  5721  0484  3A01               	xorlw	1	; case 29
  5722  0485  1903               	skipnz
  5723  0486  2F92               	goto	l3216
  5724  0487  3A03               	xorlw	3	; case 30
  5725  0488  1903               	skipnz
  5726  0489  2F97               	goto	l3222
  5727  048A  3A01               	xorlw	1	; case 31
  5728  048B  1903               	skipnz
  5729  048C  2F9C               	goto	l3228
  5730  048D  3A3F               	xorlw	63	; case 32
  5731  048E  1903               	skipnz
  5732  048F  2FA1               	goto	l3234
  5733  0490  3A01               	xorlw	1	; case 33
  5734  0491  1903               	skipnz
  5735  0492  2FA6               	goto	l3240
  5736  0493  3A03               	xorlw	3	; case 34
  5737  0494  1903               	skipnz
  5738  0495  2FAB               	goto	l3246
  5739  0496  3A01               	xorlw	1	; case 35
  5740  0497  1903               	skipnz
  5741  0498  2FB0               	goto	l3252
  5742  0499  3A07               	xorlw	7	; case 36
  5743  049A  1903               	skipnz
  5744  049B  2FB5               	goto	l3258
  5745  049C  3A01               	xorlw	1	; case 37
  5746  049D  1903               	skipnz
  5747  049E  2FBA               	goto	l3264
  5748  049F  3A03               	xorlw	3	; case 38
  5749  04A0  1903               	skipnz
  5750  04A1  2FBF               	goto	l3270
  5751  04A2  3A01               	xorlw	1	; case 39
  5752  04A3  1903               	skipnz
  5753  04A4  2FC4               	goto	l3276
  5754  04A5  3A0F               	xorlw	15	; case 40
  5755  04A6  1903               	skipnz
  5756  04A7  2FC9               	goto	l3282
  5757  04A8  3A01               	xorlw	1	; case 41
  5758  04A9  1903               	skipnz
  5759  04AA  2FCE               	goto	l3288
  5760  04AB  3A03               	xorlw	3	; case 42
  5761  04AC  1903               	skipnz
  5762  04AD  2FD3               	goto	l3294
  5763  04AE  3A01               	xorlw	1	; case 43
  5764  04AF  1903               	skipnz
  5765  04B0  2FD8               	goto	l3300
  5766  04B1  3A07               	xorlw	7	; case 44
  5767  04B2  1903               	skipnz
  5768  04B3  2FDD               	goto	l3306
  5769  04B4  3A01               	xorlw	1	; case 45
  5770  04B5  1903               	skipnz
  5771  04B6  2FE2               	goto	l3312
  5772  04B7  3A03               	xorlw	3	; case 46
  5773  04B8  1903               	skipnz
  5774  04B9  2FE7               	goto	l3318
  5775  04BA  3A01               	xorlw	1	; case 47
  5776  04BB  1903               	skipnz
  5777  04BC  2FEC               	goto	l3324
  5778  04BD  3A1F               	xorlw	31	; case 48
  5779  04BE  1903               	skipnz
  5780  04BF  2FF1               	goto	l3330
  5781  04C0  3A01               	xorlw	1	; case 49
  5782  04C1  1903               	skipnz
  5783  04C2  2FF6  120A  118A   	goto	l3336
  5784  04C5  3A03               	xorlw	3	; case 50
  5785  04C6  1903               	skipnz
  5786  04C7  2F2E               	goto	L2
  5787  04C8  3A01               	xorlw	1	; case 51
  5788  04C9  1903               	skipnz
  5789  04CA  2821               	goto	l3348
  5790  04CB  3A07               	xorlw	7	; case 52
  5791  04CC  1903               	skipnz
  5792  04CD  2826               	goto	l3354
  5793  04CE  3A01               	xorlw	1	; case 53
  5794  04CF  1903               	skipnz
  5795  04D0  282B               	goto	l3360
  5796  04D1  3A03               	xorlw	3	; case 54
  5797  04D2  1903               	skipnz
  5798  04D3  2830               	goto	l3366
  5799  04D4  3A01               	xorlw	1	; case 55
  5800  04D5  1903               	skipnz
  5801  04D6  2835               	goto	l3372
  5802  04D7  3A0F               	xorlw	15	; case 56
  5803  04D8  1903               	skipnz
  5804  04D9  283A               	goto	l3378
  5805  04DA  3A01               	xorlw	1	; case 57
  5806  04DB  1903               	skipnz
  5807  04DC  283F               	goto	l3384
  5808  04DD  3A03               	xorlw	3	; case 58
  5809  04DE  1903               	skipnz
  5810  04DF  2844               	goto	l3390
  5811  04E0  3A01               	xorlw	1	; case 59
  5812  04E1  1903               	skipnz
  5813  04E2  2849               	goto	l3396
  5814  04E3  3A07               	xorlw	7	; case 60
  5815  04E4  1903               	skipnz
  5816  04E5  284E               	goto	l3402
  5817  04E6  3A01               	xorlw	1	; case 61
  5818  04E7  1903               	skipnz
  5819  04E8  2853               	goto	l3408
  5820  04E9  3A03               	xorlw	3	; case 62
  5821  04EA  1903               	skipnz
  5822  04EB  2858               	goto	l3414
  5823  04EC  3A01               	xorlw	1	; case 63
  5824  04ED  1903               	skipnz
  5825  04EE  285D               	goto	l3420
  5826  04EF  3A7F               	xorlw	127	; case 64
  5827  04F0  1903               	skipnz
  5828  04F1  2862               	goto	l3426
  5829  04F2  3A01               	xorlw	1	; case 65
  5830  04F3  1903               	skipnz
  5831  04F4  2867               	goto	l3432
  5832  04F5  3A03               	xorlw	3	; case 66
  5833  04F6  1903               	skipnz
  5834  04F7  286C               	goto	l3438
  5835  04F8  3A01               	xorlw	1	; case 67
  5836  04F9  1903               	skipnz
  5837  04FA  2871               	goto	l3444
  5838  04FB  3A07               	xorlw	7	; case 68
  5839  04FC  1903               	skipnz
  5840  04FD  2876               	goto	l3450
  5841  04FE  3A01               	xorlw	1	; case 69
  5842  04FF  1903               	skipnz
  5843  0500  287B               	goto	l3456
  5844  0501  3A03               	xorlw	3	; case 70
  5845  0502  1903               	skipnz
  5846  0503  2880               	goto	l3462
  5847  0504  3A01               	xorlw	1	; case 71
  5848  0505  1903               	skipnz
  5849  0506  2885               	goto	l3468
  5850  0507  3A0F               	xorlw	15	; case 72
  5851  0508  1903               	skipnz
  5852  0509  288A               	goto	l3474
  5853  050A  3A01               	xorlw	1	; case 73
  5854  050B  1903               	skipnz
  5855  050C  288F               	goto	l3480
  5856  050D  3A03               	xorlw	3	; case 74
  5857  050E  1903               	skipnz
  5858  050F  2894               	goto	l3486
  5859  0510  3A01               	xorlw	1	; case 75
  5860  0511  1903               	skipnz
  5861  0512  2899               	goto	l3492
  5862  0513  3A07               	xorlw	7	; case 76
  5863  0514  1903               	skipnz
  5864  0515  289E               	goto	l3498
  5865  0516  3A01               	xorlw	1	; case 77
  5866  0517  1903               	skipnz
  5867  0518  28A3               	goto	l3504
  5868  0519  3A03               	xorlw	3	; case 78
  5869  051A  1903               	skipnz
  5870  051B  28A8               	goto	l3510
  5871  051C  3A01               	xorlw	1	; case 79
  5872  051D  1903               	skipnz
  5873  051E  28AD               	goto	l3516
  5874  051F  3A1F               	xorlw	31	; case 80
  5875  0520  1903               	skipnz
  5876  0521  28B2               	goto	l3522
  5877  0522  3A01               	xorlw	1	; case 81
  5878  0523  1903               	skipnz
  5879  0524  28B7               	goto	l3528
  5880  0525  3A03               	xorlw	3	; case 82
  5881  0526  1903               	skipnz
  5882  0527  28BC               	goto	l3534
  5883  0528  3A01               	xorlw	1	; case 83
  5884  0529  1903               	skipnz
  5885  052A  28C1               	goto	l3540
  5886  052B  3A07               	xorlw	7	; case 84
  5887  052C  1903               	skipnz
  5888  052D  28C6               	goto	l3546
  5889  052E  3A01               	xorlw	1	; case 85
  5890  052F  1903               	skipnz
  5891  0530  28CB               	goto	l3552
  5892  0531  3A03               	xorlw	3	; case 86
  5893  0532  1903               	skipnz
  5894  0533  28D0               	goto	l3558
  5895  0534  3A01               	xorlw	1	; case 87
  5896  0535  1903               	skipnz
  5897  0536  28D5               	goto	l3564
  5898  0537  3A0F               	xorlw	15	; case 88
  5899  0538  1903               	skipnz
  5900  0539  28DA               	goto	l3570
  5901  053A  3A01               	xorlw	1	; case 89
  5902  053B  1903               	skipnz
  5903  053C  28DF               	goto	l3576
  5904  053D  3A03               	xorlw	3	; case 90
  5905  053E  1903               	skipnz
  5906  053F  28E4               	goto	l3582
  5907  0540  3A01               	xorlw	1	; case 91
  5908  0541  1903               	skipnz
  5909  0542  28E9               	goto	l3588
  5910  0543  3A07               	xorlw	7	; case 92
  5911  0544  1903               	skipnz
  5912  0545  28EE               	goto	l3594
  5913  0546  3A01               	xorlw	1	; case 93
  5914  0547  1903               	skipnz
  5915  0548  28F3               	goto	l3600
  5916  0549  3A03               	xorlw	3	; case 94
  5917  054A  1903               	skipnz
  5918  054B  28F8               	goto	l3606
  5919  054C  3A01               	xorlw	1	; case 95
  5920  054D  1903               	skipnz
  5921  054E  28FD               	goto	l3612
  5922  054F  3A3F               	xorlw	63	; case 96
  5923  0550  1903               	skipnz
  5924  0551  2902               	goto	l3618
  5925  0552  3A01               	xorlw	1	; case 97
  5926  0553  1903               	skipnz
  5927  0554  2907               	goto	l3624
  5928  0555  3A03               	xorlw	3	; case 98
  5929  0556  1903               	skipnz
  5930  0557  290C               	goto	l3630
  5931  0558  3A01               	xorlw	1	; case 99
  5932  0559  1903               	skipnz
  5933  055A  2911               	goto	l3636
  5934  055B  3A07               	xorlw	7	; case 100
  5935  055C  1903               	skipnz
  5936  055D  2916               	goto	l3642
  5937  055E  3A01               	xorlw	1	; case 101
  5938  055F  1903               	skipnz
  5939  0560  291B               	goto	l3648
  5940  0561  3A03               	xorlw	3	; case 102
  5941  0562  1903               	skipnz
  5942  0563  2920               	goto	l3654
  5943  0564  3A01               	xorlw	1	; case 103
  5944  0565  1903               	skipnz
  5945  0566  2925               	goto	l3660
  5946  0567  3A0F               	xorlw	15	; case 104
  5947  0568  1903               	skipnz
  5948  0569  292A               	goto	l3666
  5949  056A  3A01               	xorlw	1	; case 105
  5950  056B  1903               	skipnz
  5951  056C  292F               	goto	l3672
  5952  056D  3A03               	xorlw	3	; case 106
  5953  056E  1903               	skipnz
  5954  056F  2934               	goto	l3678
  5955  0570  3A01               	xorlw	1	; case 107
  5956  0571  1903               	skipnz
  5957  0572  2939               	goto	l3684
  5958  0573  3A07               	xorlw	7	; case 108
  5959  0574  1903               	skipnz
  5960  0575  293E               	goto	l3690
  5961  0576  3A01               	xorlw	1	; case 109
  5962  0577  1903               	skipnz
  5963  0578  2943               	goto	l3696
  5964  0579  3A03               	xorlw	3	; case 110
  5965  057A  1903               	skipnz
  5966  057B  2948               	goto	l3702
  5967  057C  3A01               	xorlw	1	; case 111
  5968  057D  1903               	skipnz
  5969  057E  294D               	goto	l3708
  5970  057F  3A1F               	xorlw	31	; case 112
  5971  0580  1903               	skipnz
  5972  0581  2952               	goto	l3714
  5973  0582  3A01               	xorlw	1	; case 113
  5974  0583  1903               	skipnz
  5975  0584  2957               	goto	l3720
  5976  0585  3A03               	xorlw	3	; case 114
  5977  0586  1903               	skipnz
  5978  0587  295C               	goto	l3726
  5979  0588  3A01               	xorlw	1	; case 115
  5980  0589  1903               	skipnz
  5981  058A  2961               	goto	l3732
  5982  058B  3A07               	xorlw	7	; case 116
  5983  058C  1903               	skipnz
  5984  058D  2966               	goto	l3738
  5985  058E  3A01               	xorlw	1	; case 117
  5986  058F  1903               	skipnz
  5987  0590  296B               	goto	l3744
  5988  0591  3A03               	xorlw	3	; case 118
  5989  0592  1903               	skipnz
  5990  0593  2970               	goto	l3750
  5991  0594  3A01               	xorlw	1	; case 119
  5992  0595  1903               	skipnz
  5993  0596  2975               	goto	l3756
  5994  0597  3A0F               	xorlw	15	; case 120
  5995  0598  1903               	skipnz
  5996  0599  297A               	goto	l3762
  5997  059A  3A01               	xorlw	1	; case 121
  5998  059B  1903               	skipnz
  5999  059C  297F               	goto	l3768
  6000  059D  3A03               	xorlw	3	; case 122
  6001  059E  1903               	skipnz
  6002  059F  2984               	goto	l3774
  6003  05A0  3A01               	xorlw	1	; case 123
  6004  05A1  1903               	skipnz
  6005  05A2  2989               	goto	l3780
  6006  05A3  3A07               	xorlw	7	; case 124
  6007  05A4  1903               	skipnz
  6008  05A5  298E               	goto	l3786
  6009  05A6  3A01               	xorlw	1	; case 125
  6010  05A7  1903               	skipnz
  6011  05A8  2993               	goto	l3792
  6012  05A9  3A03               	xorlw	3	; case 126
  6013  05AA  1903               	skipnz
  6014  05AB  2998               	goto	l3798
  6015  05AC  3A01               	xorlw	1	; case 127
  6016  05AD  1903               	skipnz
  6017  05AE  299D               	goto	l3804
  6018  05AF  3AFF               	xorlw	255	; case 128
  6019  05B0  1903               	skipnz
  6020  05B1  29A2               	goto	l3810
  6021  05B2  3A01               	xorlw	1	; case 129
  6022  05B3  1903               	skipnz
  6023  05B4  29A7               	goto	l3816
  6024  05B5  3A03               	xorlw	3	; case 130
  6025  05B6  1903               	skipnz
  6026  05B7  29AC               	goto	l3822
  6027  05B8  3A01               	xorlw	1	; case 131
  6028  05B9  1903               	skipnz
  6029  05BA  29B1               	goto	l3828
  6030  05BB  3A07               	xorlw	7	; case 132
  6031  05BC  1903               	skipnz
  6032  05BD  29B6               	goto	l3834
  6033  05BE  3A01               	xorlw	1	; case 133
  6034  05BF  1903               	skipnz
  6035  05C0  29BB               	goto	l3840
  6036  05C1  3A03               	xorlw	3	; case 134
  6037  05C2  1903               	skipnz
  6038  05C3  29C0               	goto	l3846
  6039  05C4  3A01               	xorlw	1	; case 135
  6040  05C5  1903               	skipnz
  6041  05C6  29C5               	goto	l3852
  6042  05C7  3A0F               	xorlw	15	; case 136
  6043  05C8  1903               	skipnz
  6044  05C9  29CA               	goto	l3858
  6045  05CA  3A01               	xorlw	1	; case 137
  6046  05CB  1903               	skipnz
  6047  05CC  29CF               	goto	l3864
  6048  05CD  3A03               	xorlw	3	; case 138
  6049  05CE  1903               	skipnz
  6050  05CF  29D4               	goto	l3870
  6051  05D0  3A01               	xorlw	1	; case 139
  6052  05D1  1903               	skipnz
  6053  05D2  29D9               	goto	l3876
  6054  05D3  3A07               	xorlw	7	; case 140
  6055  05D4  1903               	skipnz
  6056  05D5  29DE               	goto	l3882
  6057  05D6  3A01               	xorlw	1	; case 141
  6058  05D7  1903               	skipnz
  6059  05D8  29E3               	goto	l3888
  6060  05D9  3A03               	xorlw	3	; case 142
  6061  05DA  1903               	skipnz
  6062  05DB  29E8               	goto	l3894
  6063  05DC  3A01               	xorlw	1	; case 143
  6064  05DD  1903               	skipnz
  6065  05DE  29ED               	goto	l3900
  6066  05DF  3A1F               	xorlw	31	; case 144
  6067  05E0  1903               	skipnz
  6068  05E1  29F2               	goto	l3906
  6069  05E2  3A01               	xorlw	1	; case 145
  6070  05E3  1903               	skipnz
  6071  05E4  29F7               	goto	l3912
  6072  05E5  3A03               	xorlw	3	; case 146
  6073  05E6  1903               	skipnz
  6074  05E7  29FC               	goto	l3918
  6075  05E8  3A01               	xorlw	1	; case 147
  6076  05E9  1903               	skipnz
  6077  05EA  2A01               	goto	l3924
  6078  05EB  3A07               	xorlw	7	; case 148
  6079  05EC  1903               	skipnz
  6080  05ED  2A06               	goto	l3930
  6081  05EE  3A01               	xorlw	1	; case 149
  6082  05EF  1903               	skipnz
  6083  05F0  2A0B               	goto	l3936
  6084  05F1  3A03               	xorlw	3	; case 150
  6085  05F2  1903               	skipnz
  6086  05F3  2A10               	goto	l3942
  6087  05F4  3A01               	xorlw	1	; case 151
  6088  05F5  1903               	skipnz
  6089  05F6  2A15               	goto	l3948
  6090  05F7  3A0F               	xorlw	15	; case 152
  6091  05F8  1903               	skipnz
  6092  05F9  2A1A               	goto	l3954
  6093  05FA  3A01               	xorlw	1	; case 153
  6094  05FB  1903               	skipnz
  6095  05FC  2A1F               	goto	l3960
  6096  05FD  3A03               	xorlw	3	; case 154
  6097  05FE  1903               	skipnz
  6098  05FF  2A24               	goto	l3966
  6099  0600  3A01               	xorlw	1	; case 155
  6100  0601  1903               	skipnz
  6101  0602  2A29               	goto	l3972
  6102  0603  3A07               	xorlw	7	; case 156
  6103  0604  1903               	skipnz
  6104  0605  2A2E               	goto	l3978
  6105  0606  3A01               	xorlw	1	; case 157
  6106  0607  1903               	skipnz
  6107  0608  2A33               	goto	l3984
  6108  0609  3A03               	xorlw	3	; case 158
  6109  060A  1903               	skipnz
  6110  060B  2A38               	goto	l3990
  6111  060C  3A01               	xorlw	1	; case 159
  6112  060D  1903               	skipnz
  6113  060E  2A3D               	goto	l3996
  6114  060F  3A3F               	xorlw	63	; case 160
  6115  0610  1903               	skipnz
  6116  0611  2A42               	goto	l4002
  6117  0612  3A01               	xorlw	1	; case 161
  6118  0613  1903               	skipnz
  6119  0614  2A47               	goto	l4008
  6120  0615  3A03               	xorlw	3	; case 162
  6121  0616  1903               	skipnz
  6122  0617  2A4C               	goto	l4014
  6123  0618  3A01               	xorlw	1	; case 163
  6124  0619  1903               	skipnz
  6125  061A  2A51               	goto	l4020
  6126  061B  3A07               	xorlw	7	; case 164
  6127  061C  1903               	skipnz
  6128  061D  2A56               	goto	l4026
  6129  061E  3A01               	xorlw	1	; case 165
  6130  061F  1903               	skipnz
  6131  0620  2A5B               	goto	l4032
  6132  0621  3A03               	xorlw	3	; case 166
  6133  0622  1903               	skipnz
  6134  0623  2A60               	goto	l4038
  6135  0624  3A01               	xorlw	1	; case 167
  6136  0625  1903               	skipnz
  6137  0626  2A65               	goto	l4044
  6138  0627  3A0F               	xorlw	15	; case 168
  6139  0628  1903               	skipnz
  6140  0629  2A6A               	goto	l4050
  6141  062A  3A01               	xorlw	1	; case 169
  6142  062B  1903               	skipnz
  6143  062C  2A6F               	goto	l4056
  6144  062D  3A03               	xorlw	3	; case 170
  6145  062E  1903               	skipnz
  6146  062F  2A74               	goto	l4062
  6147  0630  3A01               	xorlw	1	; case 171
  6148  0631  1903               	skipnz
  6149  0632  2A79               	goto	l4068
  6150  0633  3A07               	xorlw	7	; case 172
  6151  0634  1903               	skipnz
  6152  0635  2A7E               	goto	l4074
  6153  0636  3A01               	xorlw	1	; case 173
  6154  0637  1903               	skipnz
  6155  0638  2A83               	goto	l4080
  6156  0639  3A03               	xorlw	3	; case 174
  6157  063A  1903               	skipnz
  6158  063B  2A88               	goto	l4086
  6159  063C  3A01               	xorlw	1	; case 175
  6160  063D  1903               	skipnz
  6161  063E  2A8D               	goto	l4092
  6162  063F  3A1F               	xorlw	31	; case 176
  6163  0640  1903               	skipnz
  6164  0641  2A92               	goto	l4098
  6165  0642  3A01               	xorlw	1	; case 177
  6166  0643  1903               	skipnz
  6167  0644  2A97               	goto	l4104
  6168  0645  3A03               	xorlw	3	; case 178
  6169  0646  1903               	skipnz
  6170  0647  2A9C               	goto	l4110
  6171  0648  3A01               	xorlw	1	; case 179
  6172  0649  1903               	skipnz
  6173  064A  2AA1               	goto	l4116
  6174  064B  3A07               	xorlw	7	; case 180
  6175  064C  1903               	skipnz
  6176  064D  2AA6               	goto	l4122
  6177  064E  3A01               	xorlw	1	; case 181
  6178  064F  1903               	skipnz
  6179  0650  2AAB               	goto	l4128
  6180  0651  3A03               	xorlw	3	; case 182
  6181  0652  1903               	skipnz
  6182  0653  2AB0               	goto	l4134
  6183  0654  3A01               	xorlw	1	; case 183
  6184  0655  1903               	skipnz
  6185  0656  2AB5               	goto	l4140
  6186  0657  3A0F               	xorlw	15	; case 184
  6187  0658  1903               	skipnz
  6188  0659  2ABA               	goto	l4146
  6189  065A  3A01               	xorlw	1	; case 185
  6190  065B  1903               	skipnz
  6191  065C  2ABF               	goto	l4152
  6192  065D  3A03               	xorlw	3	; case 186
  6193  065E  1903               	skipnz
  6194  065F  2AC4               	goto	l4158
  6195  0660  3A01               	xorlw	1	; case 187
  6196  0661  1903               	skipnz
  6197  0662  2AC9               	goto	l4164
  6198  0663  3A07               	xorlw	7	; case 188
  6199  0664  1903               	skipnz
  6200  0665  2ACE               	goto	l4170
  6201  0666  3A01               	xorlw	1	; case 189
  6202  0667  1903               	skipnz
  6203  0668  2AD3               	goto	l4176
  6204  0669  3A03               	xorlw	3	; case 190
  6205  066A  1903               	skipnz
  6206  066B  2AD8               	goto	l4182
  6207  066C  3A01               	xorlw	1	; case 191
  6208  066D  1903               	skipnz
  6209  066E  2ADD               	goto	l4188
  6210  066F  3A7F               	xorlw	127	; case 192
  6211  0670  1903               	skipnz
  6212  0671  2AE2               	goto	l4194
  6213  0672  3A01               	xorlw	1	; case 193
  6214  0673  1903               	skipnz
  6215  0674  2AE7               	goto	l4200
  6216  0675  3A03               	xorlw	3	; case 194
  6217  0676  1903               	skipnz
  6218  0677  2AEC               	goto	l4206
  6219  0678  3A01               	xorlw	1	; case 195
  6220  0679  1903               	skipnz
  6221  067A  2AF1               	goto	l4212
  6222  067B  3A07               	xorlw	7	; case 196
  6223  067C  1903               	skipnz
  6224  067D  2AF6               	goto	l4218
  6225  067E  3A01               	xorlw	1	; case 197
  6226  067F  1903               	skipnz
  6227  0680  2AFB               	goto	l4224
  6228  0681  3A03               	xorlw	3	; case 198
  6229  0682  1903               	skipnz
  6230  0683  2B00               	goto	l4230
  6231  0684  3A01               	xorlw	1	; case 199
  6232  0685  1903               	skipnz
  6233  0686  2B05               	goto	l4236
  6234  0687  3A0F               	xorlw	15	; case 200
  6235  0688  1903               	skipnz
  6236  0689  2B0A               	goto	l4242
  6237  068A  3A01               	xorlw	1	; case 201
  6238  068B  1903               	skipnz
  6239  068C  2B0F               	goto	l4248
  6240  068D  3A03               	xorlw	3	; case 202
  6241  068E  1903               	skipnz
  6242  068F  2B14               	goto	l4254
  6243  0690  3A01               	xorlw	1	; case 203
  6244  0691  1903               	skipnz
  6245  0692  2B19               	goto	l4260
  6246  0693  3A07               	xorlw	7	; case 204
  6247  0694  1903               	skipnz
  6248  0695  2B1E               	goto	l4266
  6249  0696  3A01               	xorlw	1	; case 205
  6250  0697  1903               	skipnz
  6251  0698  2B23               	goto	l4272
  6252  0699  3A03               	xorlw	3	; case 206
  6253  069A  1903               	skipnz
  6254  069B  2B28               	goto	l4278
  6255  069C  3A01               	xorlw	1	; case 207
  6256  069D  1903               	skipnz
  6257  069E  2B2D               	goto	l4284
  6258  069F  3A1F               	xorlw	31	; case 208
  6259  06A0  1903               	skipnz
  6260  06A1  2B32               	goto	l4290
  6261  06A2  3A01               	xorlw	1	; case 209
  6262  06A3  1903               	skipnz
  6263  06A4  2B37               	goto	l4296
  6264  06A5  3A03               	xorlw	3	; case 210
  6265  06A6  1903               	skipnz
  6266  06A7  2B3C               	goto	l4302
  6267  06A8  3A01               	xorlw	1	; case 211
  6268  06A9  1903               	skipnz
  6269  06AA  2B41               	goto	l4308
  6270  06AB  3A07               	xorlw	7	; case 212
  6271  06AC  1903               	skipnz
  6272  06AD  2B46               	goto	l4314
  6273  06AE  3A01               	xorlw	1	; case 213
  6274  06AF  1903               	skipnz
  6275  06B0  2B4B               	goto	l4320
  6276  06B1  3A03               	xorlw	3	; case 214
  6277  06B2  1903               	skipnz
  6278  06B3  2B50               	goto	l4326
  6279  06B4  3A01               	xorlw	1	; case 215
  6280  06B5  1903               	skipnz
  6281  06B6  2B55               	goto	l4332
  6282  06B7  3A0F               	xorlw	15	; case 216
  6283  06B8  1903               	skipnz
  6284  06B9  2B5A               	goto	l4338
  6285  06BA  3A01               	xorlw	1	; case 217
  6286  06BB  1903               	skipnz
  6287  06BC  2B5F               	goto	l4344
  6288  06BD  3A03               	xorlw	3	; case 218
  6289  06BE  1903               	skipnz
  6290  06BF  2B64               	goto	l4350
  6291  06C0  3A01               	xorlw	1	; case 219
  6292  06C1  1903               	skipnz
  6293  06C2  2B69               	goto	l4356
  6294  06C3  3A07               	xorlw	7	; case 220
  6295  06C4  1903               	skipnz
  6296  06C5  2B6E               	goto	l4362
  6297  06C6  3A01               	xorlw	1	; case 221
  6298  06C7  1903               	skipnz
  6299  06C8  2B73               	goto	l4368
  6300  06C9  3A03               	xorlw	3	; case 222
  6301  06CA  1903               	skipnz
  6302  06CB  2B78               	goto	l4374
  6303  06CC  3A01               	xorlw	1	; case 223
  6304  06CD  1903               	skipnz
  6305  06CE  2B7D               	goto	l4380
  6306  06CF  3A3F               	xorlw	63	; case 224
  6307  06D0  1903               	skipnz
  6308  06D1  2B82               	goto	l4386
  6309  06D2  3A01               	xorlw	1	; case 225
  6310  06D3  1903               	skipnz
  6311  06D4  2B87               	goto	l4392
  6312  06D5  3A03               	xorlw	3	; case 226
  6313  06D6  1903               	skipnz
  6314  06D7  2B8C               	goto	l4398
  6315  06D8  3A01               	xorlw	1	; case 227
  6316  06D9  1903               	skipnz
  6317  06DA  2B91               	goto	l4404
  6318  06DB  3A07               	xorlw	7	; case 228
  6319  06DC  1903               	skipnz
  6320  06DD  2B96               	goto	l4410
  6321  06DE  3A01               	xorlw	1	; case 229
  6322  06DF  1903               	skipnz
  6323  06E0  2B9B               	goto	l4416
  6324  06E1  3A03               	xorlw	3	; case 230
  6325  06E2  1903               	skipnz
  6326  06E3  2BA0               	goto	l4422
  6327  06E4  3A01               	xorlw	1	; case 231
  6328  06E5  1903               	skipnz
  6329  06E6  2BA5               	goto	l4428
  6330  06E7  3A0F               	xorlw	15	; case 232
  6331  06E8  1903               	skipnz
  6332  06E9  2BAA               	goto	l4434
  6333  06EA  3A01               	xorlw	1	; case 233
  6334  06EB  1903               	skipnz
  6335  06EC  2BAF               	goto	l4440
  6336  06ED  3A03               	xorlw	3	; case 234
  6337  06EE  1903               	skipnz
  6338  06EF  2BB4               	goto	l4446
  6339  06F0  3A01               	xorlw	1	; case 235
  6340  06F1  1903               	skipnz
  6341  06F2  2BB9               	goto	l4452
  6342  06F3  3A07               	xorlw	7	; case 236
  6343  06F4  1903               	skipnz
  6344  06F5  2BBE               	goto	l4458
  6345  06F6  3A01               	xorlw	1	; case 237
  6346  06F7  1903               	skipnz
  6347  06F8  2BC3               	goto	l4464
  6348  06F9  3A03               	xorlw	3	; case 238
  6349  06FA  1903               	skipnz
  6350  06FB  2BC8               	goto	l4470
  6351  06FC  3A01               	xorlw	1	; case 239
  6352  06FD  1903               	skipnz
  6353  06FE  2BCD               	goto	l4476
  6354  06FF  3A1F               	xorlw	31	; case 240
  6355  0700  1903               	skipnz
  6356  0701  2BD2               	goto	l4482
  6357  0702  3A01               	xorlw	1	; case 241
  6358  0703  1903               	skipnz
  6359  0704  2BD7               	goto	l4488
  6360  0705  3A03               	xorlw	3	; case 242
  6361  0706  1903               	skipnz
  6362  0707  2BDC               	goto	l4494
  6363  0708  3A01               	xorlw	1	; case 243
  6364  0709  1903               	skipnz
  6365  070A  2BE1               	goto	l4500
  6366  070B  3A07               	xorlw	7	; case 244
  6367  070C  1903               	skipnz
  6368  070D  2BE6               	goto	l4506
  6369  070E  3A01               	xorlw	1	; case 245
  6370  070F  1903               	skipnz
  6371  0710  2BEB               	goto	l4512
  6372  0711  3A03               	xorlw	3	; case 246
  6373  0712  1903               	skipnz
  6374  0713  2BF0               	goto	l4518
  6375  0714  3A01               	xorlw	1	; case 247
  6376  0715  1903               	skipnz
  6377  0716  2BF5               	goto	l4524
  6378  0717  3A0F               	xorlw	15	; case 248
  6379  0718  1903               	skipnz
  6380  0719  2BFA               	goto	l4530
  6381  071A  3A01               	xorlw	1	; case 249
  6382  071B  1903               	skipnz
  6383  071C  2BFF               	goto	l4536
  6384  071D  3A03               	xorlw	3	; case 250
  6385  071E  1903               	skipnz
  6386  071F  2C04               	goto	l4542
  6387  0720  3A01               	xorlw	1	; case 251
  6388  0721  1903               	skipnz
  6389  0722  2C09               	goto	l4548
  6390  0723  3A07               	xorlw	7	; case 252
  6391  0724  1903               	skipnz
  6392  0725  2C0E               	goto	l4554
  6393  0726  3A01               	xorlw	1	; case 253
  6394  0727  1903               	skipnz
  6395  0728  2C13               	goto	l4560
  6396  0729  3A03               	xorlw	3	; case 254
  6397  072A  1903               	skipnz
  6398  072B  2C18               	goto	l4566
  6399  072C  2C1D               	goto	l4572
  6400  072D                     l208:
  6401  072D  0008               	return
  6402  072E                     L2:
  6403  072E                     __end_of_CONV:
  6404  072E  120A  158A  2FFB   	ljmp	l3342

Data Sizes:
    Strings     1026
    Constant    0
    Data        0
    BSS         12
    Persistent  0
    Stack       0

Auto Spaces:
    Space          Size  Autos    Used
    COMMON           14     10      12
    BANK0            80      6      16
    BANK1            80      0       0
    BANK3            96      0       0
    BANK2            96      0       0

Pointer List with Targets:

    Lcd_Write_String@a	PTR unsigned char  size(2) Largest target is 5
		 -> NULL(NULL[0]), STR_259(CODE[4]), STR_258(CODE[4]), STR_257(CODE[4]), 
		 -> STR_256(CODE[4]), STR_255(CODE[4]), STR_254(CODE[4]), STR_253(CODE[4]), 
		 -> STR_252(CODE[4]), STR_251(CODE[4]), STR_250(CODE[4]), STR_249(CODE[4]), 
		 -> STR_248(CODE[4]), STR_247(CODE[4]), STR_246(CODE[4]), STR_245(CODE[4]), 
		 -> STR_244(CODE[4]), STR_243(CODE[4]), STR_242(CODE[4]), STR_241(CODE[4]), 
		 -> STR_240(CODE[4]), STR_239(CODE[4]), STR_238(CODE[4]), STR_237(CODE[4]), 
		 -> STR_236(CODE[4]), STR_235(CODE[4]), STR_234(CODE[4]), STR_233(CODE[4]), 
		 -> STR_232(CODE[4]), STR_231(CODE[4]), STR_230(CODE[4]), STR_229(CODE[4]), 
		 -> STR_228(CODE[4]), STR_227(CODE[4]), STR_226(CODE[4]), STR_225(CODE[4]), 
		 -> STR_224(CODE[4]), STR_223(CODE[4]), STR_222(CODE[4]), STR_221(CODE[4]), 
		 -> STR_220(CODE[4]), STR_219(CODE[4]), STR_218(CODE[4]), STR_217(CODE[4]), 
		 -> STR_216(CODE[4]), STR_215(CODE[4]), STR_214(CODE[4]), STR_213(CODE[4]), 
		 -> STR_212(CODE[4]), STR_211(CODE[4]), STR_210(CODE[4]), STR_209(CODE[4]), 
		 -> STR_208(CODE[4]), STR_207(CODE[4]), STR_206(CODE[4]), STR_205(CODE[4]), 
		 -> STR_204(CODE[3]), STR_203(CODE[4]), STR_202(CODE[4]), STR_201(CODE[4]), 
		 -> STR_200(CODE[4]), STR_199(CODE[4]), STR_198(CODE[4]), STR_197(CODE[4]), 
		 -> STR_196(CODE[4]), STR_195(CODE[4]), STR_194(CODE[4]), STR_193(CODE[4]), 
		 -> STR_192(CODE[4]), STR_191(CODE[4]), STR_190(CODE[4]), STR_189(CODE[4]), 
		 -> STR_188(CODE[4]), STR_187(CODE[4]), STR_186(CODE[4]), STR_185(CODE[4]), 
		 -> STR_184(CODE[4]), STR_183(CODE[4]), STR_182(CODE[4]), STR_181(CODE[4]), 
		 -> STR_180(CODE[4]), STR_179(CODE[4]), STR_178(CODE[4]), STR_177(CODE[4]), 
		 -> STR_176(CODE[4]), STR_175(CODE[4]), STR_174(CODE[4]), STR_173(CODE[4]), 
		 -> STR_172(CODE[4]), STR_171(CODE[4]), STR_170(CODE[4]), STR_169(CODE[4]), 
		 -> STR_168(CODE[4]), STR_167(CODE[4]), STR_166(CODE[4]), STR_165(CODE[4]), 
		 -> STR_164(CODE[4]), STR_163(CODE[4]), STR_162(CODE[4]), STR_161(CODE[4]), 
		 -> STR_160(CODE[4]), STR_159(CODE[4]), STR_158(CODE[4]), STR_157(CODE[2]), 
		 -> STR_156(CODE[2]), STR_155(CODE[4]), STR_154(CODE[4]), STR_153(CODE[4]), 
		 -> STR_152(CODE[4]), STR_151(CODE[4]), STR_150(CODE[4]), STR_149(CODE[4]), 
		 -> STR_148(CODE[4]), STR_147(CODE[4]), STR_146(CODE[4]), STR_145(CODE[4]), 
		 -> STR_144(CODE[4]), STR_143(CODE[4]), STR_142(CODE[4]), STR_141(CODE[4]), 
		 -> STR_140(CODE[4]), STR_139(CODE[4]), STR_138(CODE[4]), STR_137(CODE[4]), 
		 -> STR_136(CODE[4]), STR_135(CODE[4]), STR_134(CODE[4]), STR_133(CODE[4]), 
		 -> STR_132(CODE[4]), STR_131(CODE[4]), STR_130(CODE[4]), STR_129(CODE[4]), 
		 -> STR_128(CODE[4]), STR_127(CODE[4]), STR_126(CODE[4]), STR_125(CODE[4]), 
		 -> STR_124(CODE[4]), STR_123(CODE[4]), STR_122(CODE[4]), STR_121(CODE[4]), 
		 -> STR_120(CODE[4]), STR_119(CODE[4]), STR_118(CODE[4]), STR_117(CODE[4]), 
		 -> STR_116(CODE[4]), STR_115(CODE[4]), STR_114(CODE[4]), STR_113(CODE[4]), 
		 -> STR_112(CODE[4]), STR_111(CODE[4]), STR_110(CODE[4]), STR_109(CODE[4]), 
		 -> STR_108(CODE[4]), STR_107(CODE[4]), STR_106(CODE[4]), STR_105(CODE[4]), 
		 -> STR_104(CODE[4]), STR_103(CODE[4]), STR_102(CODE[4]), STR_101(CODE[4]), 
		 -> STR_100(CODE[4]), STR_99(CODE[4]), STR_98(CODE[4]), STR_97(CODE[4]), 
		 -> STR_96(CODE[4]), STR_95(CODE[4]), STR_94(CODE[4]), STR_93(CODE[4]), 
		 -> STR_92(CODE[4]), STR_91(CODE[4]), STR_90(CODE[4]), STR_89(CODE[4]), 
		 -> STR_88(CODE[4]), STR_87(CODE[4]), STR_86(CODE[4]), STR_85(CODE[4]), 
		 -> STR_84(CODE[4]), STR_83(CODE[4]), STR_82(CODE[4]), STR_81(CODE[4]), 
		 -> STR_80(CODE[4]), STR_79(CODE[4]), STR_78(CODE[4]), STR_77(CODE[4]), 
		 -> STR_76(CODE[4]), STR_75(CODE[4]), STR_74(CODE[4]), STR_73(CODE[4]), 
		 -> STR_72(CODE[4]), STR_71(CODE[4]), STR_70(CODE[4]), STR_69(CODE[4]), 
		 -> STR_68(CODE[4]), STR_67(CODE[4]), STR_66(CODE[4]), STR_65(CODE[4]), 
		 -> STR_64(CODE[4]), STR_63(CODE[4]), STR_62(CODE[4]), STR_61(CODE[4]), 
		 -> STR_60(CODE[4]), STR_59(CODE[4]), STR_58(CODE[4]), STR_57(CODE[4]), 
		 -> STR_56(CODE[4]), STR_55(CODE[4]), STR_54(CODE[4]), STR_53(CODE[4]), 
		 -> STR_52(CODE[4]), STR_51(CODE[4]), STR_50(CODE[4]), STR_49(CODE[4]), 
		 -> STR_48(CODE[4]), STR_47(CODE[4]), STR_46(CODE[4]), STR_45(CODE[4]), 
		 -> STR_44(CODE[4]), STR_43(CODE[4]), STR_42(CODE[4]), STR_41(CODE[4]), 
		 -> STR_40(CODE[4]), STR_39(CODE[4]), STR_38(CODE[4]), STR_37(CODE[4]), 
		 -> STR_36(CODE[4]), STR_35(CODE[4]), STR_34(CODE[4]), STR_33(CODE[4]), 
		 -> STR_32(CODE[4]), STR_31(CODE[4]), STR_30(CODE[4]), STR_29(CODE[4]), 
		 -> STR_28(CODE[4]), STR_27(CODE[4]), STR_26(CODE[4]), STR_25(CODE[4]), 
		 -> STR_24(CODE[4]), STR_23(CODE[4]), STR_22(CODE[4]), STR_21(CODE[4]), 
		 -> STR_20(CODE[4]), STR_19(CODE[4]), STR_18(CODE[4]), STR_17(CODE[4]), 
		 -> STR_16(CODE[4]), STR_15(CODE[4]), STR_14(CODE[4]), STR_13(CODE[4]), 
		 -> STR_12(CODE[4]), STR_11(CODE[4]), STR_10(CODE[4]), STR_9(CODE[4]), 
		 -> STR_8(CODE[4]), STR_7(CODE[4]), STR_6(CODE[4]), STR_5(CODE[4]), 
		 -> STR_4(CODE[4]), STR_3(CODE[5]), STR_2(CODE[5]), STR_1(CODE[4]), 

    TEMP_r	PTR const unsigned char  size(2) Largest target is 4
		 -> NULL(NULL[0]), STR_259(CODE[4]), STR_258(CODE[4]), STR_257(CODE[4]), 
		 -> STR_256(CODE[4]), STR_255(CODE[4]), STR_254(CODE[4]), STR_253(CODE[4]), 
		 -> STR_252(CODE[4]), STR_251(CODE[4]), STR_250(CODE[4]), STR_249(CODE[4]), 
		 -> STR_248(CODE[4]), STR_247(CODE[4]), STR_246(CODE[4]), STR_245(CODE[4]), 
		 -> STR_244(CODE[4]), STR_243(CODE[4]), STR_242(CODE[4]), STR_241(CODE[4]), 
		 -> STR_240(CODE[4]), STR_239(CODE[4]), STR_238(CODE[4]), STR_237(CODE[4]), 
		 -> STR_236(CODE[4]), STR_235(CODE[4]), STR_234(CODE[4]), STR_233(CODE[4]), 
		 -> STR_232(CODE[4]), STR_231(CODE[4]), STR_230(CODE[4]), STR_229(CODE[4]), 
		 -> STR_228(CODE[4]), STR_227(CODE[4]), STR_226(CODE[4]), STR_225(CODE[4]), 
		 -> STR_224(CODE[4]), STR_223(CODE[4]), STR_222(CODE[4]), STR_221(CODE[4]), 
		 -> STR_220(CODE[4]), STR_219(CODE[4]), STR_218(CODE[4]), STR_217(CODE[4]), 
		 -> STR_216(CODE[4]), STR_215(CODE[4]), STR_214(CODE[4]), STR_213(CODE[4]), 
		 -> STR_212(CODE[4]), STR_211(CODE[4]), STR_210(CODE[4]), STR_209(CODE[4]), 
		 -> STR_208(CODE[4]), STR_207(CODE[4]), STR_206(CODE[4]), STR_205(CODE[4]), 
		 -> STR_204(CODE[3]), STR_203(CODE[4]), STR_202(CODE[4]), STR_201(CODE[4]), 
		 -> STR_200(CODE[4]), STR_199(CODE[4]), STR_198(CODE[4]), STR_197(CODE[4]), 
		 -> STR_196(CODE[4]), STR_195(CODE[4]), STR_194(CODE[4]), STR_193(CODE[4]), 
		 -> STR_192(CODE[4]), STR_191(CODE[4]), STR_190(CODE[4]), STR_189(CODE[4]), 
		 -> STR_188(CODE[4]), STR_187(CODE[4]), STR_186(CODE[4]), STR_185(CODE[4]), 
		 -> STR_184(CODE[4]), STR_183(CODE[4]), STR_182(CODE[4]), STR_181(CODE[4]), 
		 -> STR_180(CODE[4]), STR_179(CODE[4]), STR_178(CODE[4]), STR_177(CODE[4]), 
		 -> STR_176(CODE[4]), STR_175(CODE[4]), STR_174(CODE[4]), STR_173(CODE[4]), 
		 -> STR_172(CODE[4]), STR_171(CODE[4]), STR_170(CODE[4]), STR_169(CODE[4]), 
		 -> STR_168(CODE[4]), STR_167(CODE[4]), STR_166(CODE[4]), STR_165(CODE[4]), 
		 -> STR_164(CODE[4]), STR_163(CODE[4]), STR_162(CODE[4]), STR_161(CODE[4]), 
		 -> STR_160(CODE[4]), STR_159(CODE[4]), STR_158(CODE[4]), STR_157(CODE[2]), 
		 -> STR_156(CODE[2]), STR_155(CODE[4]), STR_154(CODE[4]), STR_153(CODE[4]), 
		 -> STR_152(CODE[4]), STR_151(CODE[4]), STR_150(CODE[4]), STR_149(CODE[4]), 
		 -> STR_148(CODE[4]), STR_147(CODE[4]), STR_146(CODE[4]), STR_145(CODE[4]), 
		 -> STR_144(CODE[4]), STR_143(CODE[4]), STR_142(CODE[4]), STR_141(CODE[4]), 
		 -> STR_140(CODE[4]), STR_139(CODE[4]), STR_138(CODE[4]), STR_137(CODE[4]), 
		 -> STR_136(CODE[4]), STR_135(CODE[4]), STR_134(CODE[4]), STR_133(CODE[4]), 
		 -> STR_132(CODE[4]), STR_131(CODE[4]), STR_130(CODE[4]), STR_129(CODE[4]), 
		 -> STR_128(CODE[4]), STR_127(CODE[4]), STR_126(CODE[4]), STR_125(CODE[4]), 
		 -> STR_124(CODE[4]), STR_123(CODE[4]), STR_122(CODE[4]), STR_121(CODE[4]), 
		 -> STR_120(CODE[4]), STR_119(CODE[4]), STR_118(CODE[4]), STR_117(CODE[4]), 
		 -> STR_116(CODE[4]), STR_115(CODE[4]), STR_114(CODE[4]), STR_113(CODE[4]), 
		 -> STR_112(CODE[4]), STR_111(CODE[4]), STR_110(CODE[4]), STR_109(CODE[4]), 
		 -> STR_108(CODE[4]), STR_107(CODE[4]), STR_106(CODE[4]), STR_105(CODE[4]), 
		 -> STR_104(CODE[4]), STR_103(CODE[4]), STR_102(CODE[4]), STR_101(CODE[4]), 
		 -> STR_100(CODE[4]), STR_99(CODE[4]), STR_98(CODE[4]), STR_97(CODE[4]), 
		 -> STR_96(CODE[4]), STR_95(CODE[4]), STR_94(CODE[4]), STR_93(CODE[4]), 
		 -> STR_92(CODE[4]), STR_91(CODE[4]), STR_90(CODE[4]), STR_89(CODE[4]), 
		 -> STR_88(CODE[4]), STR_87(CODE[4]), STR_86(CODE[4]), STR_85(CODE[4]), 
		 -> STR_84(CODE[4]), STR_83(CODE[4]), STR_82(CODE[4]), STR_81(CODE[4]), 
		 -> STR_80(CODE[4]), STR_79(CODE[4]), STR_78(CODE[4]), STR_77(CODE[4]), 
		 -> STR_76(CODE[4]), STR_75(CODE[4]), STR_74(CODE[4]), STR_73(CODE[4]), 
		 -> STR_72(CODE[4]), STR_71(CODE[4]), STR_70(CODE[4]), STR_69(CODE[4]), 
		 -> STR_68(CODE[4]), STR_67(CODE[4]), STR_66(CODE[4]), STR_65(CODE[4]), 
		 -> STR_64(CODE[4]), STR_63(CODE[4]), STR_62(CODE[4]), STR_61(CODE[4]), 
		 -> STR_60(CODE[4]), STR_59(CODE[4]), STR_58(CODE[4]), STR_57(CODE[4]), 
		 -> STR_56(CODE[4]), STR_55(CODE[4]), STR_54(CODE[4]), STR_53(CODE[4]), 
		 -> STR_52(CODE[4]), STR_51(CODE[4]), STR_50(CODE[4]), STR_49(CODE[4]), 
		 -> STR_48(CODE[4]), STR_47(CODE[4]), STR_46(CODE[4]), STR_45(CODE[4]), 
		 -> STR_44(CODE[4]), STR_43(CODE[4]), STR_42(CODE[4]), STR_41(CODE[4]), 
		 -> STR_40(CODE[4]), STR_39(CODE[4]), STR_38(CODE[4]), STR_37(CODE[4]), 
		 -> STR_36(CODE[4]), STR_35(CODE[4]), STR_34(CODE[4]), STR_33(CODE[4]), 
		 -> STR_32(CODE[4]), STR_31(CODE[4]), STR_30(CODE[4]), STR_29(CODE[4]), 
		 -> STR_28(CODE[4]), STR_27(CODE[4]), STR_26(CODE[4]), STR_25(CODE[4]), 
		 -> STR_24(CODE[4]), STR_23(CODE[4]), STR_22(CODE[4]), STR_21(CODE[4]), 
		 -> STR_20(CODE[4]), STR_19(CODE[4]), STR_18(CODE[4]), STR_17(CODE[4]), 
		 -> STR_16(CODE[4]), STR_15(CODE[4]), STR_14(CODE[4]), STR_13(CODE[4]), 
		 -> STR_12(CODE[4]), STR_11(CODE[4]), STR_10(CODE[4]), STR_9(CODE[4]), 
		 -> STR_8(CODE[4]), STR_7(CODE[4]), STR_6(CODE[4]), STR_5(CODE[4]), 
		 -> STR_4(CODE[4]), 

    CONT_r	PTR const unsigned char  size(2) Largest target is 4
		 -> NULL(NULL[0]), STR_259(CODE[4]), STR_258(CODE[4]), STR_257(CODE[4]), 
		 -> STR_256(CODE[4]), STR_255(CODE[4]), STR_254(CODE[4]), STR_253(CODE[4]), 
		 -> STR_252(CODE[4]), STR_251(CODE[4]), STR_250(CODE[4]), STR_249(CODE[4]), 
		 -> STR_248(CODE[4]), STR_247(CODE[4]), STR_246(CODE[4]), STR_245(CODE[4]), 
		 -> STR_244(CODE[4]), STR_243(CODE[4]), STR_242(CODE[4]), STR_241(CODE[4]), 
		 -> STR_240(CODE[4]), STR_239(CODE[4]), STR_238(CODE[4]), STR_237(CODE[4]), 
		 -> STR_236(CODE[4]), STR_235(CODE[4]), STR_234(CODE[4]), STR_233(CODE[4]), 
		 -> STR_232(CODE[4]), STR_231(CODE[4]), STR_230(CODE[4]), STR_229(CODE[4]), 
		 -> STR_228(CODE[4]), STR_227(CODE[4]), STR_226(CODE[4]), STR_225(CODE[4]), 
		 -> STR_224(CODE[4]), STR_223(CODE[4]), STR_222(CODE[4]), STR_221(CODE[4]), 
		 -> STR_220(CODE[4]), STR_219(CODE[4]), STR_218(CODE[4]), STR_217(CODE[4]), 
		 -> STR_216(CODE[4]), STR_215(CODE[4]), STR_214(CODE[4]), STR_213(CODE[4]), 
		 -> STR_212(CODE[4]), STR_211(CODE[4]), STR_210(CODE[4]), STR_209(CODE[4]), 
		 -> STR_208(CODE[4]), STR_207(CODE[4]), STR_206(CODE[4]), STR_205(CODE[4]), 
		 -> STR_204(CODE[3]), STR_203(CODE[4]), STR_202(CODE[4]), STR_201(CODE[4]), 
		 -> STR_200(CODE[4]), STR_199(CODE[4]), STR_198(CODE[4]), STR_197(CODE[4]), 
		 -> STR_196(CODE[4]), STR_195(CODE[4]), STR_194(CODE[4]), STR_193(CODE[4]), 
		 -> STR_192(CODE[4]), STR_191(CODE[4]), STR_190(CODE[4]), STR_189(CODE[4]), 
		 -> STR_188(CODE[4]), STR_187(CODE[4]), STR_186(CODE[4]), STR_185(CODE[4]), 
		 -> STR_184(CODE[4]), STR_183(CODE[4]), STR_182(CODE[4]), STR_181(CODE[4]), 
		 -> STR_180(CODE[4]), STR_179(CODE[4]), STR_178(CODE[4]), STR_177(CODE[4]), 
		 -> STR_176(CODE[4]), STR_175(CODE[4]), STR_174(CODE[4]), STR_173(CODE[4]), 
		 -> STR_172(CODE[4]), STR_171(CODE[4]), STR_170(CODE[4]), STR_169(CODE[4]), 
		 -> STR_168(CODE[4]), STR_167(CODE[4]), STR_166(CODE[4]), STR_165(CODE[4]), 
		 -> STR_164(CODE[4]), STR_163(CODE[4]), STR_162(CODE[4]), STR_161(CODE[4]), 
		 -> STR_160(CODE[4]), STR_159(CODE[4]), STR_158(CODE[4]), STR_157(CODE[2]), 
		 -> STR_156(CODE[2]), STR_155(CODE[4]), STR_154(CODE[4]), STR_153(CODE[4]), 
		 -> STR_152(CODE[4]), STR_151(CODE[4]), STR_150(CODE[4]), STR_149(CODE[4]), 
		 -> STR_148(CODE[4]), STR_147(CODE[4]), STR_146(CODE[4]), STR_145(CODE[4]), 
		 -> STR_144(CODE[4]), STR_143(CODE[4]), STR_142(CODE[4]), STR_141(CODE[4]), 
		 -> STR_140(CODE[4]), STR_139(CODE[4]), STR_138(CODE[4]), STR_137(CODE[4]), 
		 -> STR_136(CODE[4]), STR_135(CODE[4]), STR_134(CODE[4]), STR_133(CODE[4]), 
		 -> STR_132(CODE[4]), STR_131(CODE[4]), STR_130(CODE[4]), STR_129(CODE[4]), 
		 -> STR_128(CODE[4]), STR_127(CODE[4]), STR_126(CODE[4]), STR_125(CODE[4]), 
		 -> STR_124(CODE[4]), STR_123(CODE[4]), STR_122(CODE[4]), STR_121(CODE[4]), 
		 -> STR_120(CODE[4]), STR_119(CODE[4]), STR_118(CODE[4]), STR_117(CODE[4]), 
		 -> STR_116(CODE[4]), STR_115(CODE[4]), STR_114(CODE[4]), STR_113(CODE[4]), 
		 -> STR_112(CODE[4]), STR_111(CODE[4]), STR_110(CODE[4]), STR_109(CODE[4]), 
		 -> STR_108(CODE[4]), STR_107(CODE[4]), STR_106(CODE[4]), STR_105(CODE[4]), 
		 -> STR_104(CODE[4]), STR_103(CODE[4]), STR_102(CODE[4]), STR_101(CODE[4]), 
		 -> STR_100(CODE[4]), STR_99(CODE[4]), STR_98(CODE[4]), STR_97(CODE[4]), 
		 -> STR_96(CODE[4]), STR_95(CODE[4]), STR_94(CODE[4]), STR_93(CODE[4]), 
		 -> STR_92(CODE[4]), STR_91(CODE[4]), STR_90(CODE[4]), STR_89(CODE[4]), 
		 -> STR_88(CODE[4]), STR_87(CODE[4]), STR_86(CODE[4]), STR_85(CODE[4]), 
		 -> STR_84(CODE[4]), STR_83(CODE[4]), STR_82(CODE[4]), STR_81(CODE[4]), 
		 -> STR_80(CODE[4]), STR_79(CODE[4]), STR_78(CODE[4]), STR_77(CODE[4]), 
		 -> STR_76(CODE[4]), STR_75(CODE[4]), STR_74(CODE[4]), STR_73(CODE[4]), 
		 -> STR_72(CODE[4]), STR_71(CODE[4]), STR_70(CODE[4]), STR_69(CODE[4]), 
		 -> STR_68(CODE[4]), STR_67(CODE[4]), STR_66(CODE[4]), STR_65(CODE[4]), 
		 -> STR_64(CODE[4]), STR_63(CODE[4]), STR_62(CODE[4]), STR_61(CODE[4]), 
		 -> STR_60(CODE[4]), STR_59(CODE[4]), STR_58(CODE[4]), STR_57(CODE[4]), 
		 -> STR_56(CODE[4]), STR_55(CODE[4]), STR_54(CODE[4]), STR_53(CODE[4]), 
		 -> STR_52(CODE[4]), STR_51(CODE[4]), STR_50(CODE[4]), STR_49(CODE[4]), 
		 -> STR_48(CODE[4]), STR_47(CODE[4]), STR_46(CODE[4]), STR_45(CODE[4]), 
		 -> STR_44(CODE[4]), STR_43(CODE[4]), STR_42(CODE[4]), STR_41(CODE[4]), 
		 -> STR_40(CODE[4]), STR_39(CODE[4]), STR_38(CODE[4]), STR_37(CODE[4]), 
		 -> STR_36(CODE[4]), STR_35(CODE[4]), STR_34(CODE[4]), STR_33(CODE[4]), 
		 -> STR_32(CODE[4]), STR_31(CODE[4]), STR_30(CODE[4]), STR_29(CODE[4]), 
		 -> STR_28(CODE[4]), STR_27(CODE[4]), STR_26(CODE[4]), STR_25(CODE[4]), 
		 -> STR_24(CODE[4]), STR_23(CODE[4]), STR_22(CODE[4]), STR_21(CODE[4]), 
		 -> STR_20(CODE[4]), STR_19(CODE[4]), STR_18(CODE[4]), STR_17(CODE[4]), 
		 -> STR_16(CODE[4]), STR_15(CODE[4]), STR_14(CODE[4]), STR_13(CODE[4]), 
		 -> STR_12(CODE[4]), STR_11(CODE[4]), STR_10(CODE[4]), STR_9(CODE[4]), 
		 -> STR_8(CODE[4]), STR_7(CODE[4]), STR_6(CODE[4]), STR_5(CODE[4]), 
		 -> STR_4(CODE[4]), 

    sp__CONV	PTR const unsigned char  size(2) Largest target is 4
		 -> STR_259(CODE[4]), STR_258(CODE[4]), STR_257(CODE[4]), STR_256(CODE[4]), 
		 -> STR_255(CODE[4]), STR_254(CODE[4]), STR_253(CODE[4]), STR_252(CODE[4]), 
		 -> STR_251(CODE[4]), STR_250(CODE[4]), STR_249(CODE[4]), STR_248(CODE[4]), 
		 -> STR_247(CODE[4]), STR_246(CODE[4]), STR_245(CODE[4]), STR_244(CODE[4]), 
		 -> STR_243(CODE[4]), STR_242(CODE[4]), STR_241(CODE[4]), STR_240(CODE[4]), 
		 -> STR_239(CODE[4]), STR_238(CODE[4]), STR_237(CODE[4]), STR_236(CODE[4]), 
		 -> STR_235(CODE[4]), STR_234(CODE[4]), STR_233(CODE[4]), STR_232(CODE[4]), 
		 -> STR_231(CODE[4]), STR_230(CODE[4]), STR_229(CODE[4]), STR_228(CODE[4]), 
		 -> STR_227(CODE[4]), STR_226(CODE[4]), STR_225(CODE[4]), STR_224(CODE[4]), 
		 -> STR_223(CODE[4]), STR_222(CODE[4]), STR_221(CODE[4]), STR_220(CODE[4]), 
		 -> STR_219(CODE[4]), STR_218(CODE[4]), STR_217(CODE[4]), STR_216(CODE[4]), 
		 -> STR_215(CODE[4]), STR_214(CODE[4]), STR_213(CODE[4]), STR_212(CODE[4]), 
		 -> STR_211(CODE[4]), STR_210(CODE[4]), STR_209(CODE[4]), STR_208(CODE[4]), 
		 -> STR_207(CODE[4]), STR_206(CODE[4]), STR_205(CODE[4]), STR_204(CODE[3]), 
		 -> STR_203(CODE[4]), STR_202(CODE[4]), STR_201(CODE[4]), STR_200(CODE[4]), 
		 -> STR_199(CODE[4]), STR_198(CODE[4]), STR_197(CODE[4]), STR_196(CODE[4]), 
		 -> STR_195(CODE[4]), STR_194(CODE[4]), STR_193(CODE[4]), STR_192(CODE[4]), 
		 -> STR_191(CODE[4]), STR_190(CODE[4]), STR_189(CODE[4]), STR_188(CODE[4]), 
		 -> STR_187(CODE[4]), STR_186(CODE[4]), STR_185(CODE[4]), STR_184(CODE[4]), 
		 -> STR_183(CODE[4]), STR_182(CODE[4]), STR_181(CODE[4]), STR_180(CODE[4]), 
		 -> STR_179(CODE[4]), STR_178(CODE[4]), STR_177(CODE[4]), STR_176(CODE[4]), 
		 -> STR_175(CODE[4]), STR_174(CODE[4]), STR_173(CODE[4]), STR_172(CODE[4]), 
		 -> STR_171(CODE[4]), STR_170(CODE[4]), STR_169(CODE[4]), STR_168(CODE[4]), 
		 -> STR_167(CODE[4]), STR_166(CODE[4]), STR_165(CODE[4]), STR_164(CODE[4]), 
		 -> STR_163(CODE[4]), STR_162(CODE[4]), STR_161(CODE[4]), STR_160(CODE[4]), 
		 -> STR_159(CODE[4]), STR_158(CODE[4]), STR_157(CODE[2]), STR_156(CODE[2]), 
		 -> STR_155(CODE[4]), STR_154(CODE[4]), STR_153(CODE[4]), STR_152(CODE[4]), 
		 -> STR_151(CODE[4]), STR_150(CODE[4]), STR_149(CODE[4]), STR_148(CODE[4]), 
		 -> STR_147(CODE[4]), STR_146(CODE[4]), STR_145(CODE[4]), STR_144(CODE[4]), 
		 -> STR_143(CODE[4]), STR_142(CODE[4]), STR_141(CODE[4]), STR_140(CODE[4]), 
		 -> STR_139(CODE[4]), STR_138(CODE[4]), STR_137(CODE[4]), STR_136(CODE[4]), 
		 -> STR_135(CODE[4]), STR_134(CODE[4]), STR_133(CODE[4]), STR_132(CODE[4]), 
		 -> STR_131(CODE[4]), STR_130(CODE[4]), STR_129(CODE[4]), STR_128(CODE[4]), 
		 -> STR_127(CODE[4]), STR_126(CODE[4]), STR_125(CODE[4]), STR_124(CODE[4]), 
		 -> STR_123(CODE[4]), STR_122(CODE[4]), STR_121(CODE[4]), STR_120(CODE[4]), 
		 -> STR_119(CODE[4]), STR_118(CODE[4]), STR_117(CODE[4]), STR_116(CODE[4]), 
		 -> STR_115(CODE[4]), STR_114(CODE[4]), STR_113(CODE[4]), STR_112(CODE[4]), 
		 -> STR_111(CODE[4]), STR_110(CODE[4]), STR_109(CODE[4]), STR_108(CODE[4]), 
		 -> STR_107(CODE[4]), STR_106(CODE[4]), STR_105(CODE[4]), STR_104(CODE[4]), 
		 -> STR_103(CODE[4]), STR_102(CODE[4]), STR_101(CODE[4]), STR_100(CODE[4]), 
		 -> STR_99(CODE[4]), STR_98(CODE[4]), STR_97(CODE[4]), STR_96(CODE[4]), 
		 -> STR_95(CODE[4]), STR_94(CODE[4]), STR_93(CODE[4]), STR_92(CODE[4]), 
		 -> STR_91(CODE[4]), STR_90(CODE[4]), STR_89(CODE[4]), STR_88(CODE[4]), 
		 -> STR_87(CODE[4]), STR_86(CODE[4]), STR_85(CODE[4]), STR_84(CODE[4]), 
		 -> STR_83(CODE[4]), STR_82(CODE[4]), STR_81(CODE[4]), STR_80(CODE[4]), 
		 -> STR_79(CODE[4]), STR_78(CODE[4]), STR_77(CODE[4]), STR_76(CODE[4]), 
		 -> STR_75(CODE[4]), STR_74(CODE[4]), STR_73(CODE[4]), STR_72(CODE[4]), 
		 -> STR_71(CODE[4]), STR_70(CODE[4]), STR_69(CODE[4]), STR_68(CODE[4]), 
		 -> STR_67(CODE[4]), STR_66(CODE[4]), STR_65(CODE[4]), STR_64(CODE[4]), 
		 -> STR_63(CODE[4]), STR_62(CODE[4]), STR_61(CODE[4]), STR_60(CODE[4]), 
		 -> STR_59(CODE[4]), STR_58(CODE[4]), STR_57(CODE[4]), STR_56(CODE[4]), 
		 -> STR_55(CODE[4]), STR_54(CODE[4]), STR_53(CODE[4]), STR_52(CODE[4]), 
		 -> STR_51(CODE[4]), STR_50(CODE[4]), STR_49(CODE[4]), STR_48(CODE[4]), 
		 -> STR_47(CODE[4]), STR_46(CODE[4]), STR_45(CODE[4]), STR_44(CODE[4]), 
		 -> STR_43(CODE[4]), STR_42(CODE[4]), STR_41(CODE[4]), STR_40(CODE[4]), 
		 -> STR_39(CODE[4]), STR_38(CODE[4]), STR_37(CODE[4]), STR_36(CODE[4]), 
		 -> STR_35(CODE[4]), STR_34(CODE[4]), STR_33(CODE[4]), STR_32(CODE[4]), 
		 -> STR_31(CODE[4]), STR_30(CODE[4]), STR_29(CODE[4]), STR_28(CODE[4]), 
		 -> STR_27(CODE[4]), STR_26(CODE[4]), STR_25(CODE[4]), STR_24(CODE[4]), 
		 -> STR_23(CODE[4]), STR_22(CODE[4]), STR_21(CODE[4]), STR_20(CODE[4]), 
		 -> STR_19(CODE[4]), STR_18(CODE[4]), STR_17(CODE[4]), STR_16(CODE[4]), 
		 -> STR_15(CODE[4]), STR_14(CODE[4]), STR_13(CODE[4]), STR_12(CODE[4]), 
		 -> STR_11(CODE[4]), STR_10(CODE[4]), STR_9(CODE[4]), STR_8(CODE[4]), 
		 -> STR_7(CODE[4]), STR_6(CODE[4]), STR_5(CODE[4]), STR_4(CODE[4]), 

    POT_r	PTR const unsigned char  size(2) Largest target is 4
		 -> NULL(NULL[0]), STR_259(CODE[4]), STR_258(CODE[4]), STR_257(CODE[4]), 
		 -> STR_256(CODE[4]), STR_255(CODE[4]), STR_254(CODE[4]), STR_253(CODE[4]), 
		 -> STR_252(CODE[4]), STR_251(CODE[4]), STR_250(CODE[4]), STR_249(CODE[4]), 
		 -> STR_248(CODE[4]), STR_247(CODE[4]), STR_246(CODE[4]), STR_245(CODE[4]), 
		 -> STR_244(CODE[4]), STR_243(CODE[4]), STR_242(CODE[4]), STR_241(CODE[4]), 
		 -> STR_240(CODE[4]), STR_239(CODE[4]), STR_238(CODE[4]), STR_237(CODE[4]), 
		 -> STR_236(CODE[4]), STR_235(CODE[4]), STR_234(CODE[4]), STR_233(CODE[4]), 
		 -> STR_232(CODE[4]), STR_231(CODE[4]), STR_230(CODE[4]), STR_229(CODE[4]), 
		 -> STR_228(CODE[4]), STR_227(CODE[4]), STR_226(CODE[4]), STR_225(CODE[4]), 
		 -> STR_224(CODE[4]), STR_223(CODE[4]), STR_222(CODE[4]), STR_221(CODE[4]), 
		 -> STR_220(CODE[4]), STR_219(CODE[4]), STR_218(CODE[4]), STR_217(CODE[4]), 
		 -> STR_216(CODE[4]), STR_215(CODE[4]), STR_214(CODE[4]), STR_213(CODE[4]), 
		 -> STR_212(CODE[4]), STR_211(CODE[4]), STR_210(CODE[4]), STR_209(CODE[4]), 
		 -> STR_208(CODE[4]), STR_207(CODE[4]), STR_206(CODE[4]), STR_205(CODE[4]), 
		 -> STR_204(CODE[3]), STR_203(CODE[4]), STR_202(CODE[4]), STR_201(CODE[4]), 
		 -> STR_200(CODE[4]), STR_199(CODE[4]), STR_198(CODE[4]), STR_197(CODE[4]), 
		 -> STR_196(CODE[4]), STR_195(CODE[4]), STR_194(CODE[4]), STR_193(CODE[4]), 
		 -> STR_192(CODE[4]), STR_191(CODE[4]), STR_190(CODE[4]), STR_189(CODE[4]), 
		 -> STR_188(CODE[4]), STR_187(CODE[4]), STR_186(CODE[4]), STR_185(CODE[4]), 
		 -> STR_184(CODE[4]), STR_183(CODE[4]), STR_182(CODE[4]), STR_181(CODE[4]), 
		 -> STR_180(CODE[4]), STR_179(CODE[4]), STR_178(CODE[4]), STR_177(CODE[4]), 
		 -> STR_176(CODE[4]), STR_175(CODE[4]), STR_174(CODE[4]), STR_173(CODE[4]), 
		 -> STR_172(CODE[4]), STR_171(CODE[4]), STR_170(CODE[4]), STR_169(CODE[4]), 
		 -> STR_168(CODE[4]), STR_167(CODE[4]), STR_166(CODE[4]), STR_165(CODE[4]), 
		 -> STR_164(CODE[4]), STR_163(CODE[4]), STR_162(CODE[4]), STR_161(CODE[4]), 
		 -> STR_160(CODE[4]), STR_159(CODE[4]), STR_158(CODE[4]), STR_157(CODE[2]), 
		 -> STR_156(CODE[2]), STR_155(CODE[4]), STR_154(CODE[4]), STR_153(CODE[4]), 
		 -> STR_152(CODE[4]), STR_151(CODE[4]), STR_150(CODE[4]), STR_149(CODE[4]), 
		 -> STR_148(CODE[4]), STR_147(CODE[4]), STR_146(CODE[4]), STR_145(CODE[4]), 
		 -> STR_144(CODE[4]), STR_143(CODE[4]), STR_142(CODE[4]), STR_141(CODE[4]), 
		 -> STR_140(CODE[4]), STR_139(CODE[4]), STR_138(CODE[4]), STR_137(CODE[4]), 
		 -> STR_136(CODE[4]), STR_135(CODE[4]), STR_134(CODE[4]), STR_133(CODE[4]), 
		 -> STR_132(CODE[4]), STR_131(CODE[4]), STR_130(CODE[4]), STR_129(CODE[4]), 
		 -> STR_128(CODE[4]), STR_127(CODE[4]), STR_126(CODE[4]), STR_125(CODE[4]), 
		 -> STR_124(CODE[4]), STR_123(CODE[4]), STR_122(CODE[4]), STR_121(CODE[4]), 
		 -> STR_120(CODE[4]), STR_119(CODE[4]), STR_118(CODE[4]), STR_117(CODE[4]), 
		 -> STR_116(CODE[4]), STR_115(CODE[4]), STR_114(CODE[4]), STR_113(CODE[4]), 
		 -> STR_112(CODE[4]), STR_111(CODE[4]), STR_110(CODE[4]), STR_109(CODE[4]), 
		 -> STR_108(CODE[4]), STR_107(CODE[4]), STR_106(CODE[4]), STR_105(CODE[4]), 
		 -> STR_104(CODE[4]), STR_103(CODE[4]), STR_102(CODE[4]), STR_101(CODE[4]), 
		 -> STR_100(CODE[4]), STR_99(CODE[4]), STR_98(CODE[4]), STR_97(CODE[4]), 
		 -> STR_96(CODE[4]), STR_95(CODE[4]), STR_94(CODE[4]), STR_93(CODE[4]), 
		 -> STR_92(CODE[4]), STR_91(CODE[4]), STR_90(CODE[4]), STR_89(CODE[4]), 
		 -> STR_88(CODE[4]), STR_87(CODE[4]), STR_86(CODE[4]), STR_85(CODE[4]), 
		 -> STR_84(CODE[4]), STR_83(CODE[4]), STR_82(CODE[4]), STR_81(CODE[4]), 
		 -> STR_80(CODE[4]), STR_79(CODE[4]), STR_78(CODE[4]), STR_77(CODE[4]), 
		 -> STR_76(CODE[4]), STR_75(CODE[4]), STR_74(CODE[4]), STR_73(CODE[4]), 
		 -> STR_72(CODE[4]), STR_71(CODE[4]), STR_70(CODE[4]), STR_69(CODE[4]), 
		 -> STR_68(CODE[4]), STR_67(CODE[4]), STR_66(CODE[4]), STR_65(CODE[4]), 
		 -> STR_64(CODE[4]), STR_63(CODE[4]), STR_62(CODE[4]), STR_61(CODE[4]), 
		 -> STR_60(CODE[4]), STR_59(CODE[4]), STR_58(CODE[4]), STR_57(CODE[4]), 
		 -> STR_56(CODE[4]), STR_55(CODE[4]), STR_54(CODE[4]), STR_53(CODE[4]), 
		 -> STR_52(CODE[4]), STR_51(CODE[4]), STR_50(CODE[4]), STR_49(CODE[4]), 
		 -> STR_48(CODE[4]), STR_47(CODE[4]), STR_46(CODE[4]), STR_45(CODE[4]), 
		 -> STR_44(CODE[4]), STR_43(CODE[4]), STR_42(CODE[4]), STR_41(CODE[4]), 
		 -> STR_40(CODE[4]), STR_39(CODE[4]), STR_38(CODE[4]), STR_37(CODE[4]), 
		 -> STR_36(CODE[4]), STR_35(CODE[4]), STR_34(CODE[4]), STR_33(CODE[4]), 
		 -> STR_32(CODE[4]), STR_31(CODE[4]), STR_30(CODE[4]), STR_29(CODE[4]), 
		 -> STR_28(CODE[4]), STR_27(CODE[4]), STR_26(CODE[4]), STR_25(CODE[4]), 
		 -> STR_24(CODE[4]), STR_23(CODE[4]), STR_22(CODE[4]), STR_21(CODE[4]), 
		 -> STR_20(CODE[4]), STR_19(CODE[4]), STR_18(CODE[4]), STR_17(CODE[4]), 
		 -> STR_16(CODE[4]), STR_15(CODE[4]), STR_14(CODE[4]), STR_13(CODE[4]), 
		 -> STR_12(CODE[4]), STR_11(CODE[4]), STR_10(CODE[4]), STR_9(CODE[4]), 
		 -> STR_8(CODE[4]), STR_7(CODE[4]), STR_6(CODE[4]), STR_5(CODE[4]), 
		 -> STR_4(CODE[4]), 


Critical Paths under _main in COMMON

    _SETUP->_Lcd_Set_Cursor
    _SETUP->_Lcd_Write_String
    _Lcd_Init->_Lcd_Cmd
    _LEER_S3->_READ_SPI
    _LEER_S2->_READ_SPI
    _LEER_S1->_READ_SPI
    _LCD->_Lcd_Set_Cursor
    _LCD->_Lcd_Write_String
    _Lcd_Write_String->_Lcd_Write_Char
    _Lcd_Write_Char->_Lcd_Port
    _Lcd_Set_Cursor->_Lcd_Cmd
    _Lcd_Cmd->_Lcd_Port

Critical Paths under _isr in COMMON

    None.

Critical Paths under _main in BANK0

    _main->_LCD
    _main->_SETUP
    _SETUP->_Lcd_Write_String
    _LCD->_Lcd_Write_String

Critical Paths under _isr in BANK0

    None.

Critical Paths under _main in BANK1

    None.

Critical Paths under _isr in BANK1

    None.

Critical Paths under _main in BANK3

    None.

Critical Paths under _isr in BANK3

    None.

Critical Paths under _main in BANK2

    None.

Critical Paths under _isr in BANK2

    None.

Call Graph Tables:

 ---------------------------------------------------------------------------------
 (Depth) Function   	        Calls       Base Space   Used Autos Params    Refs
 ---------------------------------------------------------------------------------
 (0) _main                                                 3     3      0    3205
                                              3 BANK0      3     3      0
                               _CONV
                                _LCD
                            _LEER_S1
                            _LEER_S2
                            _LEER_S3
                              _SETUP
 ---------------------------------------------------------------------------------
 (1) _SETUP                                                1     1      0    1588
                                              2 BANK0      1     1      0
                           _Lcd_Init
                     _Lcd_Set_Cursor
                   _Lcd_Write_String
 ---------------------------------------------------------------------------------
 (2) _Lcd_Init                                             0     0      0      62
                            _Lcd_Cmd
 ---------------------------------------------------------------------------------
 (1) _LEER_S3                                              2     2      0      23
                                              4 COMMON     2     2      0
                           _READ_SPI
 ---------------------------------------------------------------------------------
 (1) _LEER_S2                                              2     2      0      23
                                              4 COMMON     2     2      0
                           _READ_SPI
 ---------------------------------------------------------------------------------
 (1) _LEER_S1                                              2     2      0      23
                                              4 COMMON     2     2      0
                           _READ_SPI
 ---------------------------------------------------------------------------------
 (2) _READ_SPI                                             2     2      0      23
                                              2 COMMON     2     2      0
 ---------------------------------------------------------------------------------
 (1) _LCD                                                  1     1      0    1526
                                              2 BANK0      1     1      0
                     _Lcd_Set_Cursor
                   _Lcd_Write_String
 ---------------------------------------------------------------------------------
 (2) _Lcd_Write_String                                     7     5      2     732
                                              5 COMMON     5     3      2
                                              0 BANK0      2     2      0
                     _Lcd_Write_Char
 ---------------------------------------------------------------------------------
 (3) _Lcd_Write_Char                                       2     2      0      62
                                              3 COMMON     2     2      0
                           _Lcd_Port
 ---------------------------------------------------------------------------------
 (2) _Lcd_Set_Cursor                                       4     3      1     794
                                              6 COMMON     4     3      1
                            _Lcd_Cmd
 ---------------------------------------------------------------------------------
 (3) _Lcd_Cmd                                              3     3      0      62
                                              3 COMMON     3     3      0
                           _Lcd_Port
 ---------------------------------------------------------------------------------
 (4) _Lcd_Port                                             1     1      0      31
                                              2 COMMON     1     1      0
 ---------------------------------------------------------------------------------
 (1) _CONV                                                 4     3      1      22
                                              2 COMMON     4     3      1
 ---------------------------------------------------------------------------------
 Estimated maximum stack depth 4
 ---------------------------------------------------------------------------------
 (Depth) Function   	        Calls       Base Space   Used Autos Params    Refs
 ---------------------------------------------------------------------------------
 (5) _isr                                                  2     2      0       0
                                              0 COMMON     2     2      0
                    _TRANSMITIR_INFO
 ---------------------------------------------------------------------------------
 (6) _TRANSMITIR_INFO                                      0     0      0       0
 ---------------------------------------------------------------------------------
 Estimated maximum stack depth 6
 ---------------------------------------------------------------------------------

 Call Graph Graphs:

 _main (ROOT)
   _CONV
   _LCD
     _Lcd_Set_Cursor
       _Lcd_Cmd
         _Lcd_Port
     _Lcd_Write_String
       _Lcd_Write_Char
         _Lcd_Port
   _LEER_S1
     _READ_SPI
   _LEER_S2
     _READ_SPI
   _LEER_S3
     _READ_SPI
   _SETUP
     _Lcd_Init
       _Lcd_Cmd
         _Lcd_Port
     _Lcd_Set_Cursor
       _Lcd_Cmd
         _Lcd_Port
     _Lcd_Write_String
       _Lcd_Write_Char
         _Lcd_Port

 _isr (ROOT)
   _TRANSMITIR_INFO

 Address spaces:
Name               Size   Autos  Total    Cost      Usage
BITCOMMON            E      0       0       0        0.0%
EEDATA             100      0       0       0        0.0%
NULL                 0      0       0       0        0.0%
CODE                 0      0       0       0        0.0%
COMMON               E      A       C       1       85.7%
BITSFR0              0      0       0       1        0.0%
SFR0                 0      0       0       1        0.0%
BITSFR1              0      0       0       2        0.0%
SFR1                 0      0       0       2        0.0%
STACK                0      0       0       2        0.0%
ABS                  0      0      1C       3        0.0%
BITBANK0            50      0       0       4        0.0%
BITSFR3              0      0       0       4        0.0%
SFR3                 0      0       0       4        0.0%
BANK0               50      6      10       5       20.0%
BITSFR2              0      0       0       5        0.0%
SFR2                 0      0       0       5        0.0%
BITBANK1            50      0       0       6        0.0%
BANK1               50      0       0       7        0.0%
BITBANK3            60      0       0       8        0.0%
BANK3               60      0       0       9        0.0%
BITBANK2            60      0       0      10        0.0%
BANK2               60      0       0      11        0.0%
DATA                 0      0      1C      12        0.0%


Microchip Technology PIC Macro Assembler V2.31 build 20201012212115 
Symbol Table                                                                                   Thu Feb 18 18:19:58 2021

                        pc 0002                _SSPSTATbits 0094                         l30 07FE  
                       l27 07F5                         u90 07FB                         u91 07FA  
                       fsr 0004                        l208 072D                        l152 0E8A  
                      l161 0E24                        l155 0DBD                        l173 0D75  
                      l149 07A8                        l158 0DD6                        l191 0D8C  
                      l176 0DA4                        l185 0E48                        l188 0DEF  
                      l197 07EE                        _LCD 0E49                        u150 0E2B  
                      u151 0E2A                        u207 0E9D                        u160 0E3D  
                      u161 0E3C                        u217 0EBD                        u170 07B8  
                      u227 0EDD                        u180 07DC                        u237 0E1C  
                      u190 07EE                        u191 07ED                        u247 0DCE  
                      u257 0DB5                        u267 0D85                        u277 0D9C  
                      _isr 0DF0                        fsr0 0004                        indf 0000  
          __end_of_LEER_S1 0DBE            __end_of_LEER_S2 0DD7            __end_of_LEER_S3 0E25  
                     ?_LCD 0070                       l3102 0F33                       l3120 0F42  
                     l3040 0EFC                       l3032 0DA5                       l4002 0242  
                     l3210 0F8D                       l3114 0F3D                       l3042 0EFF  
                     l3034 0DA8                       l4020 0251                       l3300 0FD8  
                     l3204 0F88                       l3132 0F4C                       l3108 0F38  
                     l3060 0F10                       l3036 0DB1                       l4110 029C  
                     l4014 024C                       l3222 0F97                       l3150 0F5B  
                     l3126 0F47                       l3054 0F0B                       l3038 0DBA  
                     l4200 02E7                       l4104 0297                       l4032 025B  
                     l4008 0247                       l3312 0FE2                       l3240 0FA6  
                     l3216 0F92                       l3144 0F56                       l3072 0F1A  
                     l3048 0F06                       l4122 02A6                       l4050 026A  
                     l4026 0256                       l3402 004E                       l3330 0FF1  
                     l3306 0FDD                       l3234 0FA1                       l3162 0F65  
                     l3138 0F51                       l3090 0F29                       l3066 0F15  
                     l4212 02F1                       l4140 02B5                       l4116 02A1  
                     l4044 0265                       l3420 005D                       l3324 0FEC  
                     l3252 0FB0                       l3228 0F9C                       l3180 0F74  
                     l3156 0F60                       l3084 0F24                       l4302 033C  
                     l4230 0300                       l4206 02EC                       l4134 02B0  
                     l4062 0274                       l4038 0260                       l3510 00A8  
                     l3414 0058                       l3342 0FFB                       l3318 0FE7  
                     l3270 0FBF                       l3246 0FAB                       l3174 0F6F  
                     l3078 0F1F                       l4320 034B                       l4224 02FB  
                     l4152 02BF                       l4128 02AB                       l4080 0283  
                     l4056 026F                       l3600 00F3                       l3504 00A3  
                     l3432 0067                       l3408 0053                       l3360 002B  
                     l3336 0FF6                       l3264 0FBA                       l3192 0F7E  
                     l3168 0F6A                       l3096 0F2E                       l4410 0396  
                     l4314 0346                       l4242 030A                       l4218 02F6  
                     l4170 02CE                       l4146 02BA                       l4074 027E  
                     l3522 00B2                       l3450 0076                       l3426 0062  
                     l3354 0026                       l3282 0FC9                       l3258 0FB5  
                     l3186 0F79                       l4500 03E1                       l4404 0391  
                     l4332 0355                       l4308 0341                       l4260 0319  
                     l4236 0305                       l4164 02C9                       l4092 028D  
                     l4068 0279                       l3612 00FD                       l3540 00C1  
                     l3516 00AD                       l3444 0071                       l3372 0035  
                     l3348 0021                       l3276 0FC4                       l4422 03A0  
                     l4350 0364                       l4326 0350                       l4254 0314  
                     l4182 02D8                       l4158 02C4                       l4086 0288  
                     l3702 0148                       l3630 010C                       l3606 00F8  
                     l3534 00BC                       l3462 0080                       l3438 006C  
                     l3390 0044                       l3366 0030                       l3294 0FD3  
                     l3198 0F83                       l4512 03EB                       l4440 03AF  
                     l4416 039B                       l4344 035F                       l4272 0323  
                     l4248 030F                       l4176 02D3                       l3720 0157  
                     l3624 0107                       l3552 00CB                       l3528 00B7  
                     l3480 008F                       l3456 007B                       l3384 003F  
                     l3288 0FCE                       l4600 0E21                       l4530 03FA  
                     l4506 03E6                       l4434 03AA                       l4362 036E  
                     l4338 035A                       l4290 0332                       l4266 031E  
                     l4194 02E2                       l4098 0292                       l3810 01A2  
                     l3714 0152                       l3642 0116                       l3618 0102  
                     l3570 00DA                       l3546 00C6                       l3474 008A  
                     l3378 003A                       l4524 03F5                       l4452 03B9  
                     l4428 03A5                       l4380 037D                       l4356 0369  
                     l4284 032D                       l4188 02DD                       l3900 01ED  
                     l3804 019D                       l3732 0161                       l3708 014D  
                     l3660 0125                       l3636 0111                       l3564 00D5  
                     l3492 0099                       l3468 0085                       l3396 0049  
                     l4700 07AE                       l4542 0404                       l4518 03F0  
                     l4470 03C8                       l4446 03B4                       l4374 0378  
                     l4278 0328                       l3822 01AC                       l3750 0170  
                     l3726 015C                       l3654 0120                       l3582 00E4  
                     l3558 00D0                       l3486 0094                       l4702 07CA  
                     l4710 0739                       l4560 0413                       l4536 03FF  
                     l4464 03C3                       l4392 0387                       l4368 0373  
                     l4296 0337                       l3912 01F7                       l3840 01BB  
                     l3816 01A7                       l3744 016B                       l3672 012F  
                     l3648 011B                       l3576 00DF                       l4704 07D2  
                     l2944 07F0                       l4720 0742                       l4712 073C  
                     l4554 040E                       l4482 03D2                       l4458 03BE  
                     l4386 0382                       l3930 0206                       l3906 01F2  
                     l3834 01B6                       l3762 017A                       l3738 0166  
                     l3690 013E                       l3666 012A                       l3594 00EE  
                     l3498 009E                       l2946 07FB                       l4730 074C  
                     l4722 0743                       l4714 073D                       l4706 0731  
                     l4572 041D                       l4548 0409                       l4476 03CD  
                     l3924 0201                       l3852 01C5                       l3828 01B1  
                     l3780 0189                       l3756 0175                       l3684 0139  
                     l3588 00E9                       l4580 0422                       l4660 0D71  
                     l4740 075A                       l4732 0752                       l4724 0746  
                     l4716 0740                       l4708 0737                       l4566 0418  
                     l4494 03DC                       l4398 038C                       l3942 0210  
                     l3918 01FC                       l3870 01D4                       l3846 01C0  
                     l3774 0184                       l3678 0134                       l4670 0DA1  
                     l4662 0D8E                       l4590 0DCA                       l4750 0767  
                     l4742 075B                       l4734 0753                       l4726 0747  
                     l4718 0741                       l4824 042A                       l4488 03D7  
                     l3960 021F                       l3936 020B                       l3864 01CF  
                     l3792 0193                       l3768 017F                       l3696 0143  
                     l4664 0D94                       l4680 0D88                       l4672 0D77  
                     l4592 0DD3                       l4760 078A                       l4752 0768  
                     l4744 075E                       l4736 0756                       l4728 074B  
                     l3954 021A                       l3882 01DE                       l3858 01CA  
                     l3786 018E                       l4666 0D97                       l4690 0E30  
                     l4682 0D8B                       l4674 0D7A                       l4770 0E60  
                     l4586 0DBE                       l4594 0E0A                       l4762 0793  
                     l4754 076D                       l4746 075F                       l4738 0759  
                     l3972 0229                       l3948 0215                       l3876 01D9  
                     l4668 0D98                       l4692 0E37                       l4676 0D80  
                     l4772 0E77                       l4588 0DC1                       l4596 0E0D  
                     l4684 0DD7                       l4764 079F                       l4756 0775  
                     l4748 0763                       l4780 0E95                       l3990 0238  
                     l3966 0224                       l3894 01E8                       l3798 0198  
                     l4694 0E3D                       l4686 0E26                       l4678 0D83  
                     l4774 0E7F                       l4766 0E49                       l4598 0E18  
                     l4758 077E                       l4790 0ED0                       l4782 0EA4  
                     l3984 0233                       l3888 01E3                       l4696 0E42  
                     l4688 0E2B                       l4768 0E55                       l4792 0ED5  
                     l4784 0EB0                       l4776 0E8B                       l3978 022E  
                     l4698 07A9                       l4794 0EE4                       l4786 0EB5  
                     l4778 0E90                       l3996 023D                       l4796 0EF2  
                     l4788 0EC4                       ?_isr 0070                       STR_1 0BFE  
                     STR_2 0805                       STR_3 0800                       STR_4 080A  
                     STR_5 086E                       STR_6 08D6                       STR_7 093A  
                     STR_8 099E                       STR_9 0A06                       _CONT 007A  
                     _CONV 0EFB                       u8_20 0DF7                       u8_21 0DF6  
                     _data 0029          ?_Lcd_Write_String 0075                       _main 0E8B  
                     _temp 0028                       btemp 007E                       start 000C  
       ??_Lcd_Write_String 0077            __end_of_Lcd_Cmd 0DA5            _TRANSMITIR_INFO 07FF  
                    ??_LCD 002C                      ??_isr 0070                      ?_CONV 0072  
         __end_of_READ_SPI 07FF                      ?_main 0070                      STR_10 0A6E  
                    STR_11 0AD2                      STR_12 0B36                      STR_20 0A7A  
                    STR_13 0B9A                      STR_21 0ADE                      STR_22 0B42  
                    STR_30 0A86                      STR_14 0812                      STR_23 0BA6  
                    STR_31 0AEA                      STR_15 087A                      STR_32 0B4E  
                    STR_40 0A92                      STR_16 08E2                      STR_24 081E  
                    STR_33 0BB2                      STR_41 0AF6                      STR_17 0946  
                    STR_25 0886                      STR_42 0B5A                      STR_50 0A9E  
                    STR_18 09AA                      STR_26 08EE                      STR_34 082A  
                    STR_43 0BBE                      STR_51 0B02                      STR_19 0A12  
                    STR_27 0952                      STR_35 0892                      STR_52 0B66  
                    STR_60 0AAA                      STR_28 09B6                      STR_36 08FA  
                    STR_44 0836                      STR_53 0BCA                      STR_61 0B0E  
                    STR_29 0A1E                      STR_37 095E                      STR_45 089E  
                    STR_62 0B72                      STR_70 0AB2                      STR_38 09C2  
                    STR_46 0906                      STR_54 0842                      STR_63 0BD6  
                    STR_71 0B16                      STR_39 0A2A                      STR_47 096A  
                    STR_55 08AA                      STR_72 0B7A                      STR_80 0ABA  
                    STR_48 09CE                      STR_56 0912                      STR_64 084E  
                    STR_73 0BDE                      STR_81 0B1E                      STR_49 0A36  
                    STR_57 0976                      STR_65 08B6                      STR_82 0B82  
                    STR_90 0AC2                      STR_58 09DA                      STR_66 091A  
                    STR_74 0856                      STR_83 0BE6                      STR_91 0B26  
                    STR_59 0A42                      STR_67 097E                      STR_75 08BE  
                    STR_92 0B8A                      STR_68 09E6                      STR_76 0922  
                    STR_84 085E                      STR_93 0BEE                      STR_69 0A4E  
                    STR_77 0986                      STR_85 08C6                      STR_78 09EE  
                    STR_86 092A                      STR_94 0866                      STR_79 0A56  
                    STR_87 098E                      STR_95 08CE                      STR_88 09F6  
                    STR_96 0932                      STR_89 0A5E                      STR_97 0996  
                    STR_98 09FE                      STR_99 0A66                      _ANSEL 0188  
                    i1l138 0E03                      i1l164 07FF                      _SETUP 0731  
                    _SPBRG 0099                      _PORTA 0005                      _PORTB 0006  
                    _PORTC 0007                      _PORTD 0008                      _PORTE 0009  
  __size_of_Lcd_Set_Cursor 0024                      _TRISA 0085                      _TRISB 0086  
                    _TRISC 0087                      _TRISD 0088                      _TRISE 0089  
                    _POT_r 0024                      _TXREG 0019                      pclath 000A  
                    status 0003                      wtemp0 007E           __end_of_Lcd_Init 0DF0  
             __end_of_CONV 072E           __end_of_Lcd_Port 0D76            __initialization 000F  
             __end_of_main 0EFB                     ??_CONV 0073                     ??_main 002D  
                ??_LEER_S1 0074                  ??_LEER_S2 0074                  ??_LEER_S3 0074  
                   ?_SETUP 0070                     STR_100 0ACA                     STR_101 0B2E  
                   STR_102 0B92                     STR_110 0A72                     STR_103 0BF6  
                   STR_111 0AD6                     STR_112 0B3A                     STR_200 0ACE  
                   STR_120 0A7E                     STR_104 080E                     STR_113 0B9E  
                   STR_201 0B32                     STR_121 0AE2                     STR_105 0872  
                   STR_202 0B96                     STR_122 0B46                     STR_130 0A8A  
                   STR_210 0A76                     STR_106 08DA                     STR_114 0816  
                   STR_203 0BFA                     STR_123 0BAA                     STR_131 0AEE  
                   STR_211 0ADA                     STR_107 093E                     STR_115 087E  
                   STR_204 081F                     STR_132 0B52                     STR_212 0B3E  
                   STR_140 0A96                     STR_220 0A82                     STR_108 09A2  
                   STR_116 08E6                     STR_124 0822                     STR_133 0BB6  
                   STR_213 0BA2                     STR_141 0AFA                     STR_221 0AE6  
                   STR_109 0A0A                     STR_117 094A                     STR_125 088A  
                   STR_205 0876                     STR_142 0B5E                     STR_222 0B4A  
                   STR_150 0AA2                     STR_230 0A8E                     STR_118 09AE  
                   STR_126 08F2                     STR_206 08DE                     STR_134 082E  
                   STR_214 081A                     STR_143 0BC2                     STR_223 0BAE  
                   STR_151 0B06                     STR_231 0AF2                     STR_119 0A16  
                   STR_127 0956                     STR_207 0942                     STR_135 0896  
                   STR_215 0882                     STR_152 0B6A                     STR_232 0B56  
                   STR_160 0AAE                     STR_240 0A9A                     STR_128 09BA  
                   STR_208 09A6                     STR_136 08FE                     STR_216 08EA  
                   STR_144 083A                     STR_224 0826                     STR_153 0BCE  
                   STR_233 0BBA                     STR_161 0B12                     STR_241 0AFE  
                   STR_129 0A22                     STR_209 0A0E                     STR_137 0962  
                   STR_217 094E                     STR_145 08A2                     STR_225 088E  
                   STR_162 0B76                     STR_242 0B62                     STR_170 0AB6  
                   STR_250 0AA6                     STR_138 09C6                     STR_218 09B2  
                   STR_146 090A                     STR_226 08F6                     STR_154 0846  
                   STR_234 0832                     STR_163 0BDA                     STR_243 0BC6  
                   STR_171 0B1A                     STR_251 0B0A                     STR_139 0A2E  
                   STR_219 0A1A                     STR_147 096E                     STR_227 095A  
                   STR_155 08AE                     STR_235 089A                     STR_156 08D8  
                   STR_172 0B7E                     STR_252 0B6E                     STR_180 0ABE  
                   STR_148 09D2                     STR_228 09BE                     STR_236 0902  
                   STR_164 0852                     STR_244 083E                     STR_157 093C  
                   STR_173 0BE2                     STR_253 0BD2                     STR_181 0B22  
                   STR_149 0A3A                     STR_229 0A26                     STR_237 0966  
                   STR_165 08BA                     STR_245 08A6                     STR_182 0B86  
                   STR_190 0AC6                     STR_158 09DE                     STR_238 09CA  
                   STR_166 091E                     STR_246 090E                     STR_174 085A  
                   STR_254 084A                     STR_183 0BEA                     STR_191 0B2A  
                   STR_159 0A46                     STR_239 0A32                     STR_167 0982  
                   STR_247 0972                     STR_175 08C2                     STR_255 08B2  
                   STR_192 0B8E                     STR_168 09EA                     STR_248 09D6  
                   STR_176 0926                     STR_256 0916                     STR_184 0862  
                   STR_193 0BF2                     STR_169 0A52                     STR_249 0A3E  
                   STR_177 098A                     STR_257 097A                     STR_185 08CA  
                   STR_178 09F2                     STR_258 09E2                     STR_186 092E  
                   STR_194 086A                     STR_179 0A5A                     STR_259 0A4A  
                   STR_187 0992                     STR_195 08D2                     STR_188 09FA  
                   STR_196 0936                     STR_189 0A62                     STR_197 099A  
                   STR_198 0A02                     STR_199 0A6A                     _ANSELH 0189  
                   _CONT_r 0022                     i1l2810 0DF7                     i1l2812 0DFF  
                   i1l2814 0E02                     i1l2808 0DF0    __end_of_TRANSMITIR_INFO 0800  
                ??_Lcd_Cmd 0073                     _SPBRGH 009A                     _TEMP_r 0020  
  __size_of_Lcd_Write_Char 0017                     _SSPCON 0014                     _SSPBUF 0013  
                   saved_w 007E            Lcd_Set_Cursor@a 0078            Lcd_Set_Cursor@b 0076  
  __end_of__initialization 001D                  ?_READ_SPI 0070              __end_of_SETUP 07A9  
           __pcstackCOMMON 0070             _Lcd_Set_Cursor 0E25                    ??_SETUP 002C  
                ?_Lcd_Init 0070                  ?_Lcd_Port 0070               READ_SPI@data 0073  
               __pbssBANK0 0020           ?_TRANSMITIR_INFO 0070                 ??_READ_SPI 0072  
               __pmaintext 0E8B                 __pintentry 0004  __size_of_Lcd_Write_String 0046  
   __end_of_Lcd_Set_Cursor 0E49                    _LEER_S1 0DA5                    _LEER_S2 0DBE  
                  _LEER_S3 0E0A                 ??_Lcd_Init 0076                 ??_Lcd_Port 0072  
                  _SSPSTAT 0094                 __stringtab 0C02             _Lcd_Write_Char 0D76  
                  _Lcd_Cmd 0D8D            ?_Lcd_Set_Cursor 0076                    __ptext1 0731  
                  __ptext2 0DD7                    __ptext3 0E0A                    __ptext4 0DBE  
                  __ptext5 0DA5                    __ptext6 07EF                    __ptext7 0E49  
                  __ptext8 07A9                    __ptext9 0D76               __size_of_LCD 0042  
             __size_of_isr 001A     __end_of_Lcd_Write_Char 0D8D       end_of_initialization 001D  
                _RCSTAbits 0018                    psplit$0 16001B                  Lcd_Port@a 0072  
             __pstringtext 0800                  _PORTCbits 0007                  _PORTEbits 0009  
                _TRISCbits 0087                 CONV@numero 0075            ?_Lcd_Write_Char 0070  
        Lcd_Write_String@a 0075          Lcd_Write_String@i 002A                  _TXSTAbits 0098  
        __size_of_READ_SPI 0010           _Lcd_Write_String 07A9                _BAUDCTLbits 0187  
      start_initialization 000F                __end_of_LCD 0E8B                __end_of_isr 0E0A  
        __size_of_Lcd_Init 0019          __size_of_Lcd_Port 0006              _POTENCIOMETRO 007B  
          Lcd_Write_Char@a 0074                   ?_LEER_S1 0070                   ?_LEER_S2 0070  
                 ?_LEER_S3 0070                __pbssCOMMON 007A                  ___latbits 0002  
            __pcstackBANK0 002A                   ?_Lcd_Cmd 0070           ??_Lcd_Set_Cursor 0077  
 __size_of_TRANSMITIR_INFO 0001                  __pstrings 0C02             __size_of_SETUP 0078  
               pnum$text13 0016          interrupt_function 0004                   _READ_SPI 07EF  
                 _PIE1bits 008C                   Lcd_Cmd@a 0075                   _PIR1bits 000C  
              __stringbase 0C14           ??_Lcd_Write_Char 0073           __size_of_LEER_S1 0019  
         __size_of_LEER_S2 0019           __size_of_LEER_S3 001B                   _Lcd_Init 0DD7  
                 _Lcd_Port 0D70   __end_of_Lcd_Write_String 07EF           __size_of_Lcd_Cmd 0018  
       __end_of__stringtab 0C14          ??_TRANSMITIR_INFO 0070                   __ptext10 0E25  
                 __ptext11 0D8D                   __ptext12 0D70                   __ptext13 0EFB  
                 __ptext14 0DF0                   __ptext15 07FF                   _contador 0027  
            __size_of_CONV F833              __size_of_main 0070                _TEMPERATURA 0026  
       pnum$text13_split_1 001B                 _INTCONbits 000B                   intlevel1 0000  
                stringcode 0C0C         Lcd_Set_Cursor@temp 0079                   stringtab 0C02  
               _SSPCONbits 0014  
