

Microchip MPLAB XC8 Assembler V2.31 build 20201012212115 
                                                                                               Thu Feb 18 22:34:34 2021

Microchip MPLAB XC8 C Compiler v2.31 (Free license) build 20201012212115 Og1 
     1                           	processor	16F887
     2                           	pagewidth 120
     3                           	opt	flic
     4                           	psect	strings,global,class=STRING,delta=2,noexec
     5                           	psect	stringtext,global,reloc=256,class=STRCODE,delta=2,noexec
     6                           	psect	cinit,global,class=CODE,merge=1,delta=2
     7                           	psect	bssCOMMON,global,class=COMMON,space=1,delta=1,noexec
     8                           	psect	bssBANK0,global,class=BANK0,space=1,delta=1,noexec
     9                           	psect	clrtext,global,class=CODE,delta=2
    10                           	psect	cstackCOMMON,global,class=COMMON,space=1,delta=1,noexec
    11                           	psect	cstackBANK0,global,class=BANK0,space=1,delta=1,noexec
    12                           	psect	maintext,global,class=CODE,split=1,delta=2
    13                           	psect	text1,local,class=CODE,merge=1,delta=2
    14                           	psect	text2,local,class=CODE,merge=1,delta=2
    15                           	psect	text3,local,class=CODE,merge=1,delta=2
    16                           	psect	text4,local,class=CODE,merge=1,delta=2
    17                           	psect	text5,local,class=CODE,merge=1,delta=2
    18                           	psect	text6,local,class=CODE,merge=1,delta=2
    19                           	psect	text7,local,class=CODE,merge=1,delta=2
    20                           	psect	text8,local,class=CODE,merge=1,delta=2
    21                           	psect	text9,local,class=CODE,merge=1,delta=2
    22                           	psect	text10,local,class=CODE,merge=1,delta=2
    23                           	psect	text11,local,class=CODE,merge=1,delta=2
    24                           	psect	text12,local,class=CODE,merge=1,delta=2
    25                           	psect	text13,local,class=CODE,merge=1,delta=2
    26                           	psect	text14,local,class=CODE,merge=1,delta=2
    27                           	psect	text15,local,class=CODE,merge=1,delta=2
    28                           	psect	intentry,global,class=CODE,delta=2
    29                           	psect	text16,local,class=CODE,merge=1,delta=2
    30                           	psect	text17,local,class=CODE,merge=1,delta=2
    31                           	psect	text18,local,class=CODE,merge=1,delta=2
    32                           	psect	text19,local,class=CODE,merge=1,delta=2
    33                           	psect	text20,local,class=CODE,merge=1,delta=2,group=1
    34                           	psect	text21,local,class=CODE,merge=1,delta=2,group=1
    35                           	psect	config,global,abs,ovrld,class=CONFIG,space=4,delta=2,noexec
    36                           	psect	text14_split_1,local,class=CODE,merge=1,delta=2
    37                           	dabs	1,0x7E,2
    38  0000                     
    39                           ; Version 2.31
    40                           ; Generated 13/10/2020 GMT
    41                           ; 
    42                           ; Copyright © 2020, Microchip Technology Inc. and its subsidiaries ("Microchip")
    43                           ; All rights reserved.
    44                           ; 
    45                           ; This software is developed by Microchip Technology Inc. and its subsidiaries ("Microch
      +                          ip").
    46                           ; 
    47                           ; Redistribution and use in source and binary forms, with or without modification, are
    48                           ; permitted provided that the following conditions are met:
    49                           ; 
    50                           ;     1. Redistributions of source code must retain the above copyright notice, this lis
      +                          t of
    51                           ;        conditions and the following disclaimer.
    52                           ; 
    53                           ;     2. Redistributions in binary form must reproduce the above copyright notice, this 
      +                          list
    54                           ;        of conditions and the following disclaimer in the documentation and/or other
    55                           ;        materials provided with the distribution. Publication is not required when
    56                           ;        this file is used in an embedded application.
    57                           ; 
    58                           ;     3. Microchip's name may not be used to endorse or promote products derived from th
      +                          is
    59                           ;        software without specific prior written permission.
    60                           ; 
    61                           ; THIS SOFTWARE IS PROVIDED BY MICROCHIP "AS IS" AND ANY EXPRESS OR IMPLIED WARRANTIES,
    62                           ; INCLUDING, BUT NOT LIMITED TO, THE IMPLIED WARRANTIES OF MERCHANTABILITY AND FITNESS F
      +                          OR
    63                           ; PURPOSE ARE DISCLAIMED.  IN NO EVENT SHALL MICROCHIP BE LIABLE FOR ANY DIRECT, INDIREC
      +                          T,
    64                           ; INCIDENTAL, SPECIAL, EXEMPLARY, OR CONSEQUENTIAL DAMAGES (INCLUDING BUT NOT LIMITED TO
    65                           ; PROCUREMENT OF SUBSTITUTE GOODS OR SERVICES; LOSS OF USE, DATA OR PROFITS; OR BUSINESS
    66                           ; INTERRUPTION) HOWSOEVER CAUSED AND ON ANY THEORY OF LIABILITY, WHETHER IN CONTRACT, ST
      +                          RICT
    67                           ; LIABILITY, OR TORT (INCLUDING NEGLIGENCE OR OTHERWISE) ARISING IN ANY WAY OUT OF THE U
      +                          SE OF
    68                           ; THIS SOFTWARE, EVEN IF ADVISED OF THE POSSIBILITY OF SUCH DAMAGE.
    69                           ; 
    70                           ; 
    71                           ; Code-generator required, PIC16F887 Definitions
    72                           ; 
    73                           ; SFR Addresses
    74  0000                     	;# 
    75  0001                     	;# 
    76  0002                     	;# 
    77  0003                     	;# 
    78  0004                     	;# 
    79  0005                     	;# 
    80  0006                     	;# 
    81  0007                     	;# 
    82  0008                     	;# 
    83  0009                     	;# 
    84  000A                     	;# 
    85  000B                     	;# 
    86  000C                     	;# 
    87  000D                     	;# 
    88  000E                     	;# 
    89  000E                     	;# 
    90  000F                     	;# 
    91  0010                     	;# 
    92  0011                     	;# 
    93  0012                     	;# 
    94  0013                     	;# 
    95  0014                     	;# 
    96  0015                     	;# 
    97  0015                     	;# 
    98  0016                     	;# 
    99  0017                     	;# 
   100  0018                     	;# 
   101  0019                     	;# 
   102  001A                     	;# 
   103  001B                     	;# 
   104  001B                     	;# 
   105  001C                     	;# 
   106  001D                     	;# 
   107  001E                     	;# 
   108  001F                     	;# 
   109  0081                     	;# 
   110  0085                     	;# 
   111  0086                     	;# 
   112  0087                     	;# 
   113  0088                     	;# 
   114  0089                     	;# 
   115  008C                     	;# 
   116  008D                     	;# 
   117  008E                     	;# 
   118  008F                     	;# 
   119  0090                     	;# 
   120  0091                     	;# 
   121  0092                     	;# 
   122  0093                     	;# 
   123  0093                     	;# 
   124  0093                     	;# 
   125  0094                     	;# 
   126  0095                     	;# 
   127  0096                     	;# 
   128  0097                     	;# 
   129  0098                     	;# 
   130  0099                     	;# 
   131  009A                     	;# 
   132  009B                     	;# 
   133  009C                     	;# 
   134  009D                     	;# 
   135  009E                     	;# 
   136  009F                     	;# 
   137  0105                     	;# 
   138  0107                     	;# 
   139  0108                     	;# 
   140  0109                     	;# 
   141  010C                     	;# 
   142  010C                     	;# 
   143  010D                     	;# 
   144  010E                     	;# 
   145  010F                     	;# 
   146  0185                     	;# 
   147  0187                     	;# 
   148  0188                     	;# 
   149  0189                     	;# 
   150  018C                     	;# 
   151  018D                     	;# 
   152  0000                     	;# 
   153  0001                     	;# 
   154  0002                     	;# 
   155  0003                     	;# 
   156  0004                     	;# 
   157  0005                     	;# 
   158  0006                     	;# 
   159  0007                     	;# 
   160  0008                     	;# 
   161  0009                     	;# 
   162  000A                     	;# 
   163  000B                     	;# 
   164  000C                     	;# 
   165  000D                     	;# 
   166  000E                     	;# 
   167  000E                     	;# 
   168  000F                     	;# 
   169  0010                     	;# 
   170  0011                     	;# 
   171  0012                     	;# 
   172  0013                     	;# 
   173  0014                     	;# 
   174  0015                     	;# 
   175  0015                     	;# 
   176  0016                     	;# 
   177  0017                     	;# 
   178  0018                     	;# 
   179  0019                     	;# 
   180  001A                     	;# 
   181  001B                     	;# 
   182  001B                     	;# 
   183  001C                     	;# 
   184  001D                     	;# 
   185  001E                     	;# 
   186  001F                     	;# 
   187  0081                     	;# 
   188  0085                     	;# 
   189  0086                     	;# 
   190  0087                     	;# 
   191  0088                     	;# 
   192  0089                     	;# 
   193  008C                     	;# 
   194  008D                     	;# 
   195  008E                     	;# 
   196  008F                     	;# 
   197  0090                     	;# 
   198  0091                     	;# 
   199  0092                     	;# 
   200  0093                     	;# 
   201  0093                     	;# 
   202  0093                     	;# 
   203  0094                     	;# 
   204  0095                     	;# 
   205  0096                     	;# 
   206  0097                     	;# 
   207  0098                     	;# 
   208  0099                     	;# 
   209  009A                     	;# 
   210  009B                     	;# 
   211  009C                     	;# 
   212  009D                     	;# 
   213  009E                     	;# 
   214  009F                     	;# 
   215  0105                     	;# 
   216  0107                     	;# 
   217  0108                     	;# 
   218  0109                     	;# 
   219  010C                     	;# 
   220  010C                     	;# 
   221  010D                     	;# 
   222  010E                     	;# 
   223  010F                     	;# 
   224  0185                     	;# 
   225  0187                     	;# 
   226  0188                     	;# 
   227  0189                     	;# 
   228  018C                     	;# 
   229  018D                     	;# 
   230  0000                     	;# 
   231  0001                     	;# 
   232  0002                     	;# 
   233  0003                     	;# 
   234  0004                     	;# 
   235  0005                     	;# 
   236  0006                     	;# 
   237  0007                     	;# 
   238  0008                     	;# 
   239  0009                     	;# 
   240  000A                     	;# 
   241  000B                     	;# 
   242  000C                     	;# 
   243  000D                     	;# 
   244  000E                     	;# 
   245  000E                     	;# 
   246  000F                     	;# 
   247  0010                     	;# 
   248  0011                     	;# 
   249  0012                     	;# 
   250  0013                     	;# 
   251  0014                     	;# 
   252  0015                     	;# 
   253  0015                     	;# 
   254  0016                     	;# 
   255  0017                     	;# 
   256  0018                     	;# 
   257  0019                     	;# 
   258  001A                     	;# 
   259  001B                     	;# 
   260  001B                     	;# 
   261  001C                     	;# 
   262  001D                     	;# 
   263  001E                     	;# 
   264  001F                     	;# 
   265  0081                     	;# 
   266  0085                     	;# 
   267  0086                     	;# 
   268  0087                     	;# 
   269  0088                     	;# 
   270  0089                     	;# 
   271  008C                     	;# 
   272  008D                     	;# 
   273  008E                     	;# 
   274  008F                     	;# 
   275  0090                     	;# 
   276  0091                     	;# 
   277  0092                     	;# 
   278  0093                     	;# 
   279  0093                     	;# 
   280  0093                     	;# 
   281  0094                     	;# 
   282  0095                     	;# 
   283  0096                     	;# 
   284  0097                     	;# 
   285  0098                     	;# 
   286  0099                     	;# 
   287  009A                     	;# 
   288  009B                     	;# 
   289  009C                     	;# 
   290  009D                     	;# 
   291  009E                     	;# 
   292  009F                     	;# 
   293  0105                     	;# 
   294  0107                     	;# 
   295  0108                     	;# 
   296  0109                     	;# 
   297  010C                     	;# 
   298  010C                     	;# 
   299  010D                     	;# 
   300  010E                     	;# 
   301  010F                     	;# 
   302  0185                     	;# 
   303  0187                     	;# 
   304  0188                     	;# 
   305  0189                     	;# 
   306  018C                     	;# 
   307  018D                     	;# 
   308  0000                     	;# 
   309  0001                     	;# 
   310  0002                     	;# 
   311  0003                     	;# 
   312  0004                     	;# 
   313  0005                     	;# 
   314  0006                     	;# 
   315  0007                     	;# 
   316  0008                     	;# 
   317  0009                     	;# 
   318  000A                     	;# 
   319  000B                     	;# 
   320  000C                     	;# 
   321  000D                     	;# 
   322  000E                     	;# 
   323  000E                     	;# 
   324  000F                     	;# 
   325  0010                     	;# 
   326  0011                     	;# 
   327  0012                     	;# 
   328  0013                     	;# 
   329  0014                     	;# 
   330  0015                     	;# 
   331  0015                     	;# 
   332  0016                     	;# 
   333  0017                     	;# 
   334  0018                     	;# 
   335  0019                     	;# 
   336  001A                     	;# 
   337  001B                     	;# 
   338  001B                     	;# 
   339  001C                     	;# 
   340  001D                     	;# 
   341  001E                     	;# 
   342  001F                     	;# 
   343  0081                     	;# 
   344  0085                     	;# 
   345  0086                     	;# 
   346  0087                     	;# 
   347  0088                     	;# 
   348  0089                     	;# 
   349  008C                     	;# 
   350  008D                     	;# 
   351  008E                     	;# 
   352  008F                     	;# 
   353  0090                     	;# 
   354  0091                     	;# 
   355  0092                     	;# 
   356  0093                     	;# 
   357  0093                     	;# 
   358  0093                     	;# 
   359  0094                     	;# 
   360  0095                     	;# 
   361  0096                     	;# 
   362  0097                     	;# 
   363  0098                     	;# 
   364  0099                     	;# 
   365  009A                     	;# 
   366  009B                     	;# 
   367  009C                     	;# 
   368  009D                     	;# 
   369  009E                     	;# 
   370  009F                     	;# 
   371  0105                     	;# 
   372  0107                     	;# 
   373  0108                     	;# 
   374  0109                     	;# 
   375  010C                     	;# 
   376  010C                     	;# 
   377  010D                     	;# 
   378  010E                     	;# 
   379  010F                     	;# 
   380  0185                     	;# 
   381  0187                     	;# 
   382  0188                     	;# 
   383  0189                     	;# 
   384  018C                     	;# 
   385  018D                     	;# 
   386  0000                     	;# 
   387  0001                     	;# 
   388  0002                     	;# 
   389  0003                     	;# 
   390  0004                     	;# 
   391  0005                     	;# 
   392  0006                     	;# 
   393  0007                     	;# 
   394  0008                     	;# 
   395  0009                     	;# 
   396  000A                     	;# 
   397  000B                     	;# 
   398  000C                     	;# 
   399  000D                     	;# 
   400  000E                     	;# 
   401  000E                     	;# 
   402  000F                     	;# 
   403  0010                     	;# 
   404  0011                     	;# 
   405  0012                     	;# 
   406  0013                     	;# 
   407  0014                     	;# 
   408  0015                     	;# 
   409  0015                     	;# 
   410  0016                     	;# 
   411  0017                     	;# 
   412  0018                     	;# 
   413  0019                     	;# 
   414  001A                     	;# 
   415  001B                     	;# 
   416  001B                     	;# 
   417  001C                     	;# 
   418  001D                     	;# 
   419  001E                     	;# 
   420  001F                     	;# 
   421  0081                     	;# 
   422  0085                     	;# 
   423  0086                     	;# 
   424  0087                     	;# 
   425  0088                     	;# 
   426  0089                     	;# 
   427  008C                     	;# 
   428  008D                     	;# 
   429  008E                     	;# 
   430  008F                     	;# 
   431  0090                     	;# 
   432  0091                     	;# 
   433  0092                     	;# 
   434  0093                     	;# 
   435  0093                     	;# 
   436  0093                     	;# 
   437  0094                     	;# 
   438  0095                     	;# 
   439  0096                     	;# 
   440  0097                     	;# 
   441  0098                     	;# 
   442  0099                     	;# 
   443  009A                     	;# 
   444  009B                     	;# 
   445  009C                     	;# 
   446  009D                     	;# 
   447  009E                     	;# 
   448  009F                     	;# 
   449  0105                     	;# 
   450  0107                     	;# 
   451  0108                     	;# 
   452  0109                     	;# 
   453  010C                     	;# 
   454  010C                     	;# 
   455  010D                     	;# 
   456  010E                     	;# 
   457  010F                     	;# 
   458  0185                     	;# 
   459  0187                     	;# 
   460  0188                     	;# 
   461  0189                     	;# 
   462  018C                     	;# 
   463  018D                     	;# 
   464  0007                     _PORTCbits	set	7
   465  0009                     _PORTEbits	set	9
   466  0018                     _RCSTAbits	set	24
   467  0009                     _PORTE	set	9
   468  0008                     _PORTD	set	8
   469  0007                     _PORTC	set	7
   470  0006                     _PORTB	set	6
   471  0005                     _PORTA	set	5
   472  0019                     _TXREG	set	25
   473  000C                     _PIR1bits	set	12
   474  000B                     _INTCONbits	set	11
   475  0013                     _SSPBUF	set	19
   476  0014                     _SSPCON	set	20
   477  0014                     _SSPCONbits	set	20
   478  008C                     _PIE1bits	set	140
   479  009A                     _SPBRGH	set	154
   480  0098                     _TXSTAbits	set	152
   481  0099                     _SPBRG	set	153
   482  0089                     _TRISE	set	137
   483  0087                     _TRISCbits	set	135
   484  0087                     _TRISC	set	135
   485  0086                     _TRISB	set	134
   486  0088                     _TRISD	set	136
   487  0085                     _TRISA	set	133
   488  0094                     _SSPSTATbits	set	148
   489  0094                     _SSPSTAT	set	148
   490  0187                     _BAUDCTLbits	set	391
   491  0189                     _ANSELH	set	393
   492  0188                     _ANSEL	set	392
   493                           
   494                           	psect	strings
   495  1000                     __pstrings:
   496  1000                     stringtab:
   497  1000                     __stringtab:
   498                           
   499                           ;	String table - string pointers are 2 bytes each
   500  1000  1BFF               	btfsc	btemp+1,7
   501  1001  280A               	ljmp	stringcode
   502  1002  1383               	bcf	3,7
   503  1003  187F               	btfsc	btemp+1,0
   504  1004  1783               	bsf	3,7
   505  1005  0800               	movf	0,w
   506  1006  0A84               	incf	4,f
   507  1007  1903               	skipnz
   508  1008  0AFF               	incf	btemp+1,f
   509  1009  0008               	return
   510  100A                     stringcode:
   511  100A  087F               	movf	btemp+1,w
   512  100B  397F               	andlw	127
   513  100C  008A               	movwf	10
   514  100D  0804               	movf	4,w
   515  100E  0A84               	incf	4,f
   516  100F  1903               	skipnz
   517  1010  0AFF               	incf	btemp+1,f
   518  1011  0082               	movwf	2
   519  1012                     __stringbase:
   520  1012                     __end_of__stringtab:
   521                           
   522                           	psect	stringtext
   523  0800                     __pstringtext:
   524  0800                     STR_3:
   525  0800  3454               	retlw	84	;'T'
   526  0801  3445               	retlw	69	;'E'
   527  0802  344D               	retlw	77	;'M'
   528  0803  3450               	retlw	80	;'P'
   529  0804  3400               	retlw	0
   530  0805                     STR_2:
   531  0805  3443               	retlw	67	;'C'
   532  0806  344F               	retlw	79	;'O'
   533  0807  344E               	retlw	78	;'N'
   534  0808  3454               	retlw	84	;'T'
   535  0809  3400               	retlw	0
   536  080A                     STR_4:
   537  080A  3430               	retlw	48	;'0'
   538  080B  3430               	retlw	48	;'0'
   539  080C  3430               	retlw	48	;'0'
   540  080D  3400               	retlw	0
   541  080E                     STR_104:
   542  080E  3431               	retlw	49	;'1'
   543  080F  3430               	retlw	48	;'0'
   544  0810  3430               	retlw	48	;'0'
   545  0811  3400               	retlw	0
   546  0812                     STR_14:
   547  0812  3430               	retlw	48	;'0'
   548  0813  3431               	retlw	49	;'1'
   549  0814  3430               	retlw	48	;'0'
   550  0815  3400               	retlw	0
   551  0816                     STR_114:
   552  0816  3431               	retlw	49	;'1'
   553  0817  3431               	retlw	49	;'1'
   554  0818  3430               	retlw	48	;'0'
   555  0819  3400               	retlw	0
   556  081A                     STR_214:
   557  081A  3432               	retlw	50	;'2'
   558  081B  3431               	retlw	49	;'1'
   559  081C  3430               	retlw	48	;'0'
   560  081D  3400               	retlw	0
   561  081E                     STR_24:
   562  081E  3430               	retlw	48	;'0'
   563  081F  3432               	retlw	50	;'2'
   564  0820  3430               	retlw	48	;'0'
   565  0821  3400               	retlw	0
   566  0822                     STR_124:
   567  0822  3431               	retlw	49	;'1'
   568  0823  3432               	retlw	50	;'2'
   569  0824  3430               	retlw	48	;'0'
   570  0825  3400               	retlw	0
   571  0826                     STR_224:
   572  0826  3432               	retlw	50	;'2'
   573  0827  3432               	retlw	50	;'2'
   574  0828  3430               	retlw	48	;'0'
   575  0829  3400               	retlw	0
   576  082A                     STR_34:
   577  082A  3430               	retlw	48	;'0'
   578  082B  3433               	retlw	51	;'3'
   579  082C  3430               	retlw	48	;'0'
   580  082D  3400               	retlw	0
   581  082E                     STR_134:
   582  082E  3431               	retlw	49	;'1'
   583  082F  3433               	retlw	51	;'3'
   584  0830  3430               	retlw	48	;'0'
   585  0831  3400               	retlw	0
   586  0832                     STR_234:
   587  0832  3432               	retlw	50	;'2'
   588  0833  3433               	retlw	51	;'3'
   589  0834  3430               	retlw	48	;'0'
   590  0835  3400               	retlw	0
   591  0836                     STR_44:
   592  0836  3430               	retlw	48	;'0'
   593  0837  3434               	retlw	52	;'4'
   594  0838  3430               	retlw	48	;'0'
   595  0839  3400               	retlw	0
   596  083A                     STR_144:
   597  083A  3431               	retlw	49	;'1'
   598  083B  3434               	retlw	52	;'4'
   599  083C  3430               	retlw	48	;'0'
   600  083D  3400               	retlw	0
   601  083E                     STR_244:
   602  083E  3432               	retlw	50	;'2'
   603  083F  3434               	retlw	52	;'4'
   604  0840  3430               	retlw	48	;'0'
   605  0841  3400               	retlw	0
   606  0842                     STR_54:
   607  0842  3430               	retlw	48	;'0'
   608  0843  3435               	retlw	53	;'5'
   609  0844  3430               	retlw	48	;'0'
   610  0845  3400               	retlw	0
   611  0846                     STR_154:
   612  0846  3431               	retlw	49	;'1'
   613  0847  3435               	retlw	53	;'5'
   614  0848  3430               	retlw	48	;'0'
   615  0849  3400               	retlw	0
   616  084A                     STR_254:
   617  084A  3432               	retlw	50	;'2'
   618  084B  3435               	retlw	53	;'5'
   619  084C  3430               	retlw	48	;'0'
   620  084D  3400               	retlw	0
   621  084E                     STR_64:
   622  084E  3430               	retlw	48	;'0'
   623  084F  3436               	retlw	54	;'6'
   624  0850  3430               	retlw	48	;'0'
   625  0851  3400               	retlw	0
   626  0852                     STR_164:
   627  0852  3431               	retlw	49	;'1'
   628  0853  3436               	retlw	54	;'6'
   629  0854  3430               	retlw	48	;'0'
   630  0855  3400               	retlw	0
   631  0856                     STR_74:
   632  0856  3430               	retlw	48	;'0'
   633  0857  3437               	retlw	55	;'7'
   634  0858  3430               	retlw	48	;'0'
   635  0859  3400               	retlw	0
   636  085A                     STR_174:
   637  085A  3431               	retlw	49	;'1'
   638  085B  3437               	retlw	55	;'7'
   639  085C  3430               	retlw	48	;'0'
   640  085D  3400               	retlw	0
   641  085E                     STR_84:
   642  085E  3430               	retlw	48	;'0'
   643  085F  3438               	retlw	56	;'8'
   644  0860  3430               	retlw	48	;'0'
   645  0861  3400               	retlw	0
   646  0862                     STR_184:
   647  0862  3431               	retlw	49	;'1'
   648  0863  3438               	retlw	56	;'8'
   649  0864  3430               	retlw	48	;'0'
   650  0865  3400               	retlw	0
   651  0866                     STR_94:
   652  0866  3430               	retlw	48	;'0'
   653  0867  3439               	retlw	57	;'9'
   654  0868  3430               	retlw	48	;'0'
   655  0869  3400               	retlw	0
   656  086A                     STR_194:
   657  086A  3431               	retlw	49	;'1'
   658  086B  3439               	retlw	57	;'9'
   659  086C  3430               	retlw	48	;'0'
   660  086D  3400               	retlw	0
   661  086E                     STR_5:
   662  086E  3430               	retlw	48	;'0'
   663  086F  3430               	retlw	48	;'0'
   664  0870  3431               	retlw	49	;'1'
   665  0871  3400               	retlw	0
   666  0872                     STR_105:
   667  0872  3431               	retlw	49	;'1'
   668  0873  3430               	retlw	48	;'0'
   669  0874  3431               	retlw	49	;'1'
   670  0875  3400               	retlw	0
   671  0876                     STR_205:
   672  0876  3432               	retlw	50	;'2'
   673  0877  3430               	retlw	48	;'0'
   674  0878  3431               	retlw	49	;'1'
   675  0879  3400               	retlw	0
   676  087A                     STR_15:
   677  087A  3430               	retlw	48	;'0'
   678  087B  3431               	retlw	49	;'1'
   679  087C  3431               	retlw	49	;'1'
   680  087D  3400               	retlw	0
   681  087E                     STR_115:
   682  087E  3431               	retlw	49	;'1'
   683  087F  3431               	retlw	49	;'1'
   684  0880  3431               	retlw	49	;'1'
   685  0881  3400               	retlw	0
   686  0882                     STR_215:
   687  0882  3432               	retlw	50	;'2'
   688  0883  3431               	retlw	49	;'1'
   689  0884  3431               	retlw	49	;'1'
   690  0885  3400               	retlw	0
   691  0886                     STR_25:
   692  0886  3430               	retlw	48	;'0'
   693  0887  3432               	retlw	50	;'2'
   694  0888  3431               	retlw	49	;'1'
   695  0889  3400               	retlw	0
   696  088A                     STR_125:
   697  088A  3431               	retlw	49	;'1'
   698  088B  3432               	retlw	50	;'2'
   699  088C  3431               	retlw	49	;'1'
   700  088D  3400               	retlw	0
   701  088E                     STR_225:
   702  088E  3432               	retlw	50	;'2'
   703  088F  3432               	retlw	50	;'2'
   704  0890  3431               	retlw	49	;'1'
   705  0891  3400               	retlw	0
   706  0892                     STR_35:
   707  0892  3430               	retlw	48	;'0'
   708  0893  3433               	retlw	51	;'3'
   709  0894  3431               	retlw	49	;'1'
   710  0895  3400               	retlw	0
   711  0896                     STR_135:
   712  0896  3431               	retlw	49	;'1'
   713  0897  3433               	retlw	51	;'3'
   714  0898  3431               	retlw	49	;'1'
   715  0899  3400               	retlw	0
   716  089A                     STR_235:
   717  089A  3432               	retlw	50	;'2'
   718  089B  3433               	retlw	51	;'3'
   719  089C  3431               	retlw	49	;'1'
   720  089D  3400               	retlw	0
   721  089E                     STR_45:
   722  089E  3430               	retlw	48	;'0'
   723  089F  3434               	retlw	52	;'4'
   724  08A0  3431               	retlw	49	;'1'
   725  08A1  3400               	retlw	0
   726  08A2                     STR_145:
   727  08A2  3431               	retlw	49	;'1'
   728  08A3  3434               	retlw	52	;'4'
   729  08A4  3431               	retlw	49	;'1'
   730  08A5  3400               	retlw	0
   731  08A6                     STR_245:
   732  08A6  3432               	retlw	50	;'2'
   733  08A7  3434               	retlw	52	;'4'
   734  08A8  3431               	retlw	49	;'1'
   735  08A9  3400               	retlw	0
   736  08AA                     STR_55:
   737  08AA  3430               	retlw	48	;'0'
   738  08AB  3435               	retlw	53	;'5'
   739  08AC  3431               	retlw	49	;'1'
   740  08AD  3400               	retlw	0
   741  08AE                     STR_155:
   742  08AE  3431               	retlw	49	;'1'
   743  08AF  3435               	retlw	53	;'5'
   744  08B0  3431               	retlw	49	;'1'
   745  08B1  3400               	retlw	0
   746  08B2                     STR_255:
   747  08B2  3432               	retlw	50	;'2'
   748  08B3  3435               	retlw	53	;'5'
   749  08B4  3431               	retlw	49	;'1'
   750  08B5  3400               	retlw	0
   751  08B6                     STR_65:
   752  08B6  3430               	retlw	48	;'0'
   753  08B7  3436               	retlw	54	;'6'
   754  08B8  3431               	retlw	49	;'1'
   755  08B9  3400               	retlw	0
   756  08BA                     STR_165:
   757  08BA  3431               	retlw	49	;'1'
   758  08BB  3436               	retlw	54	;'6'
   759  08BC  3431               	retlw	49	;'1'
   760  08BD  3400               	retlw	0
   761  08BE                     STR_75:
   762  08BE  3430               	retlw	48	;'0'
   763  08BF  3437               	retlw	55	;'7'
   764  08C0  3431               	retlw	49	;'1'
   765  08C1  3400               	retlw	0
   766  08C2                     STR_175:
   767  08C2  3431               	retlw	49	;'1'
   768  08C3  3437               	retlw	55	;'7'
   769  08C4  3431               	retlw	49	;'1'
   770  08C5  3400               	retlw	0
   771  08C6                     STR_85:
   772  08C6  3430               	retlw	48	;'0'
   773  08C7  3438               	retlw	56	;'8'
   774  08C8  3431               	retlw	49	;'1'
   775  08C9  3400               	retlw	0
   776  08CA                     STR_185:
   777  08CA  3431               	retlw	49	;'1'
   778  08CB  3438               	retlw	56	;'8'
   779  08CC  3431               	retlw	49	;'1'
   780  08CD  3400               	retlw	0
   781  08CE                     STR_95:
   782  08CE  3430               	retlw	48	;'0'
   783  08CF  3439               	retlw	57	;'9'
   784  08D0  3431               	retlw	49	;'1'
   785  08D1  3400               	retlw	0
   786  08D2                     STR_195:
   787  08D2  3431               	retlw	49	;'1'
   788  08D3  3439               	retlw	57	;'9'
   789  08D4  3431               	retlw	49	;'1'
   790  08D5  3400               	retlw	0
   791  08D6                     STR_6:
   792  08D6  3430               	retlw	48	;'0'
   793  08D7  3430               	retlw	48	;'0'
   794  08D8  3432               	retlw	50	;'2'
   795  08D9  3400               	retlw	0
   796  08DA                     STR_106:
   797  08DA  3431               	retlw	49	;'1'
   798  08DB  3430               	retlw	48	;'0'
   799  08DC  3432               	retlw	50	;'2'
   800  08DD  3400               	retlw	0
   801  08DE                     STR_206:
   802  08DE  3432               	retlw	50	;'2'
   803  08DF  3430               	retlw	48	;'0'
   804  08E0  3432               	retlw	50	;'2'
   805  08E1  3400               	retlw	0
   806  08E2                     STR_16:
   807  08E2  3430               	retlw	48	;'0'
   808  08E3  3431               	retlw	49	;'1'
   809  08E4  3432               	retlw	50	;'2'
   810  08E5  3400               	retlw	0
   811  08E6                     STR_116:
   812  08E6  3431               	retlw	49	;'1'
   813  08E7  3431               	retlw	49	;'1'
   814  08E8  3432               	retlw	50	;'2'
   815  08E9  3400               	retlw	0
   816  08EA                     STR_216:
   817  08EA  3432               	retlw	50	;'2'
   818  08EB  3431               	retlw	49	;'1'
   819  08EC  3432               	retlw	50	;'2'
   820  08ED  3400               	retlw	0
   821  08EE                     STR_26:
   822  08EE  3430               	retlw	48	;'0'
   823  08EF  3432               	retlw	50	;'2'
   824  08F0  3432               	retlw	50	;'2'
   825  08F1  3400               	retlw	0
   826  08F2                     STR_126:
   827  08F2  3431               	retlw	49	;'1'
   828  08F3  3432               	retlw	50	;'2'
   829  08F4  3432               	retlw	50	;'2'
   830  08F5  3400               	retlw	0
   831  08F6                     STR_226:
   832  08F6  3432               	retlw	50	;'2'
   833  08F7  3432               	retlw	50	;'2'
   834  08F8  3432               	retlw	50	;'2'
   835  08F9  3400               	retlw	0
   836  08FA                     STR_36:
   837  08FA  3430               	retlw	48	;'0'
   838  08FB  3433               	retlw	51	;'3'
   839  08FC  3432               	retlw	50	;'2'
   840  08FD  3400               	retlw	0
   841  08FE                     STR_136:
   842  08FE  3431               	retlw	49	;'1'
   843  08FF  3433               	retlw	51	;'3'
   844  0900  3432               	retlw	50	;'2'
   845  0901  3400               	retlw	0
   846  0902                     STR_236:
   847  0902  3432               	retlw	50	;'2'
   848  0903  3433               	retlw	51	;'3'
   849  0904  3432               	retlw	50	;'2'
   850  0905  3400               	retlw	0
   851  0906                     STR_46:
   852  0906  3430               	retlw	48	;'0'
   853  0907  3434               	retlw	52	;'4'
   854  0908  3432               	retlw	50	;'2'
   855  0909  3400               	retlw	0
   856  090A                     STR_146:
   857  090A  3431               	retlw	49	;'1'
   858  090B  3434               	retlw	52	;'4'
   859  090C  3432               	retlw	50	;'2'
   860  090D  3400               	retlw	0
   861  090E                     STR_246:
   862  090E  3432               	retlw	50	;'2'
   863  090F  3434               	retlw	52	;'4'
   864  0910  3432               	retlw	50	;'2'
   865  0911  3400               	retlw	0
   866  0912                     STR_56:
   867  0912  3430               	retlw	48	;'0'
   868  0913  3435               	retlw	53	;'5'
   869  0914  3432               	retlw	50	;'2'
   870  0915  3400               	retlw	0
   871  0916                     STR_256:
   872  0916  3432               	retlw	50	;'2'
   873  0917  3435               	retlw	53	;'5'
   874  0918  3432               	retlw	50	;'2'
   875  0919  3400               	retlw	0
   876  091A                     STR_66:
   877  091A  3430               	retlw	48	;'0'
   878  091B  3436               	retlw	54	;'6'
   879  091C  3432               	retlw	50	;'2'
   880  091D  3400               	retlw	0
   881  091E                     STR_166:
   882  091E  3431               	retlw	49	;'1'
   883  091F  3436               	retlw	54	;'6'
   884  0920  3432               	retlw	50	;'2'
   885  0921  3400               	retlw	0
   886  0922                     STR_76:
   887  0922  3430               	retlw	48	;'0'
   888  0923  3437               	retlw	55	;'7'
   889  0924  3432               	retlw	50	;'2'
   890  0925  3400               	retlw	0
   891  0926                     STR_176:
   892  0926  3431               	retlw	49	;'1'
   893  0927  3437               	retlw	55	;'7'
   894  0928  3432               	retlw	50	;'2'
   895  0929  3400               	retlw	0
   896  092A                     STR_86:
   897  092A  3430               	retlw	48	;'0'
   898  092B  3438               	retlw	56	;'8'
   899  092C  3432               	retlw	50	;'2'
   900  092D  3400               	retlw	0
   901  092E                     STR_186:
   902  092E  3431               	retlw	49	;'1'
   903  092F  3438               	retlw	56	;'8'
   904  0930  3432               	retlw	50	;'2'
   905  0931  3400               	retlw	0
   906  0932                     STR_96:
   907  0932  3430               	retlw	48	;'0'
   908  0933  3439               	retlw	57	;'9'
   909  0934  3432               	retlw	50	;'2'
   910  0935  3400               	retlw	0
   911  0936                     STR_196:
   912  0936  3431               	retlw	49	;'1'
   913  0937  3439               	retlw	57	;'9'
   914  0938  3432               	retlw	50	;'2'
   915  0939  3400               	retlw	0
   916  093A                     STR_7:
   917  093A  3430               	retlw	48	;'0'
   918  093B  3430               	retlw	48	;'0'
   919  093C  3433               	retlw	51	;'3'
   920  093D  3400               	retlw	0
   921  093E                     STR_107:
   922  093E  3431               	retlw	49	;'1'
   923  093F  3430               	retlw	48	;'0'
   924  0940  3433               	retlw	51	;'3'
   925  0941  3400               	retlw	0
   926  0942                     STR_207:
   927  0942  3432               	retlw	50	;'2'
   928  0943  3430               	retlw	48	;'0'
   929  0944  3433               	retlw	51	;'3'
   930  0945  3400               	retlw	0
   931  0946                     STR_17:
   932  0946  3430               	retlw	48	;'0'
   933  0947  3431               	retlw	49	;'1'
   934  0948  3433               	retlw	51	;'3'
   935  0949  3400               	retlw	0
   936  094A                     STR_117:
   937  094A  3431               	retlw	49	;'1'
   938  094B  3431               	retlw	49	;'1'
   939  094C  3433               	retlw	51	;'3'
   940  094D  3400               	retlw	0
   941  094E                     STR_217:
   942  094E  3432               	retlw	50	;'2'
   943  094F  3431               	retlw	49	;'1'
   944  0950  3433               	retlw	51	;'3'
   945  0951  3400               	retlw	0
   946  0952                     STR_27:
   947  0952  3430               	retlw	48	;'0'
   948  0953  3432               	retlw	50	;'2'
   949  0954  3433               	retlw	51	;'3'
   950  0955  3400               	retlw	0
   951  0956                     STR_127:
   952  0956  3431               	retlw	49	;'1'
   953  0957  3432               	retlw	50	;'2'
   954  0958  3433               	retlw	51	;'3'
   955  0959  3400               	retlw	0
   956  095A                     STR_227:
   957  095A  3432               	retlw	50	;'2'
   958  095B  3432               	retlw	50	;'2'
   959  095C  3433               	retlw	51	;'3'
   960  095D  3400               	retlw	0
   961  095E                     STR_37:
   962  095E  3430               	retlw	48	;'0'
   963  095F  3433               	retlw	51	;'3'
   964  0960  3433               	retlw	51	;'3'
   965  0961  3400               	retlw	0
   966  0962                     STR_137:
   967  0962  3431               	retlw	49	;'1'
   968  0963  3433               	retlw	51	;'3'
   969  0964  3433               	retlw	51	;'3'
   970  0965  3400               	retlw	0
   971  0966                     STR_237:
   972  0966  3432               	retlw	50	;'2'
   973  0967  3433               	retlw	51	;'3'
   974  0968  3433               	retlw	51	;'3'
   975  0969  3400               	retlw	0
   976  096A                     STR_47:
   977  096A  3430               	retlw	48	;'0'
   978  096B  3434               	retlw	52	;'4'
   979  096C  3433               	retlw	51	;'3'
   980  096D  3400               	retlw	0
   981  096E                     STR_147:
   982  096E  3431               	retlw	49	;'1'
   983  096F  3434               	retlw	52	;'4'
   984  0970  3433               	retlw	51	;'3'
   985  0971  3400               	retlw	0
   986  0972                     STR_247:
   987  0972  3432               	retlw	50	;'2'
   988  0973  3434               	retlw	52	;'4'
   989  0974  3433               	retlw	51	;'3'
   990  0975  3400               	retlw	0
   991  0976                     STR_57:
   992  0976  3430               	retlw	48	;'0'
   993  0977  3435               	retlw	53	;'5'
   994  0978  3433               	retlw	51	;'3'
   995  0979  3400               	retlw	0
   996  097A                     STR_257:
   997  097A  3432               	retlw	50	;'2'
   998  097B  3435               	retlw	53	;'5'
   999  097C  3433               	retlw	51	;'3'
  1000  097D  3400               	retlw	0
  1001  097E                     STR_67:
  1002  097E  3430               	retlw	48	;'0'
  1003  097F  3436               	retlw	54	;'6'
  1004  0980  3433               	retlw	51	;'3'
  1005  0981  3400               	retlw	0
  1006  0982                     STR_167:
  1007  0982  3431               	retlw	49	;'1'
  1008  0983  3436               	retlw	54	;'6'
  1009  0984  3433               	retlw	51	;'3'
  1010  0985  3400               	retlw	0
  1011  0986                     STR_77:
  1012  0986  3430               	retlw	48	;'0'
  1013  0987  3437               	retlw	55	;'7'
  1014  0988  3433               	retlw	51	;'3'
  1015  0989  3400               	retlw	0
  1016  098A                     STR_177:
  1017  098A  3431               	retlw	49	;'1'
  1018  098B  3437               	retlw	55	;'7'
  1019  098C  3433               	retlw	51	;'3'
  1020  098D  3400               	retlw	0
  1021  098E                     STR_87:
  1022  098E  3430               	retlw	48	;'0'
  1023  098F  3438               	retlw	56	;'8'
  1024  0990  3433               	retlw	51	;'3'
  1025  0991  3400               	retlw	0
  1026  0992                     STR_187:
  1027  0992  3431               	retlw	49	;'1'
  1028  0993  3438               	retlw	56	;'8'
  1029  0994  3433               	retlw	51	;'3'
  1030  0995  3400               	retlw	0
  1031  0996                     STR_97:
  1032  0996  3430               	retlw	48	;'0'
  1033  0997  3439               	retlw	57	;'9'
  1034  0998  3433               	retlw	51	;'3'
  1035  0999  3400               	retlw	0
  1036  099A                     STR_197:
  1037  099A  3431               	retlw	49	;'1'
  1038  099B  3439               	retlw	57	;'9'
  1039  099C  3433               	retlw	51	;'3'
  1040  099D  3400               	retlw	0
  1041  099E                     STR_8:
  1042  099E  3430               	retlw	48	;'0'
  1043  099F  3430               	retlw	48	;'0'
  1044  09A0  3434               	retlw	52	;'4'
  1045  09A1  3400               	retlw	0
  1046  09A2                     STR_108:
  1047  09A2  3431               	retlw	49	;'1'
  1048  09A3  3430               	retlw	48	;'0'
  1049  09A4  3434               	retlw	52	;'4'
  1050  09A5  3400               	retlw	0
  1051  09A6                     STR_208:
  1052  09A6  3432               	retlw	50	;'2'
  1053  09A7  3430               	retlw	48	;'0'
  1054  09A8  3434               	retlw	52	;'4'
  1055  09A9  3400               	retlw	0
  1056  09AA                     STR_18:
  1057  09AA  3430               	retlw	48	;'0'
  1058  09AB  3431               	retlw	49	;'1'
  1059  09AC  3434               	retlw	52	;'4'
  1060  09AD  3400               	retlw	0
  1061  09AE                     STR_118:
  1062  09AE  3431               	retlw	49	;'1'
  1063  09AF  3431               	retlw	49	;'1'
  1064  09B0  3434               	retlw	52	;'4'
  1065  09B1  3400               	retlw	0
  1066  09B2                     STR_218:
  1067  09B2  3432               	retlw	50	;'2'
  1068  09B3  3431               	retlw	49	;'1'
  1069  09B4  3434               	retlw	52	;'4'
  1070  09B5  3400               	retlw	0
  1071  09B6                     STR_28:
  1072  09B6  3430               	retlw	48	;'0'
  1073  09B7  3432               	retlw	50	;'2'
  1074  09B8  3434               	retlw	52	;'4'
  1075  09B9  3400               	retlw	0
  1076  09BA                     STR_128:
  1077  09BA  3431               	retlw	49	;'1'
  1078  09BB  3432               	retlw	50	;'2'
  1079  09BC  3434               	retlw	52	;'4'
  1080  09BD  3400               	retlw	0
  1081  09BE                     STR_228:
  1082  09BE  3432               	retlw	50	;'2'
  1083  09BF  3432               	retlw	50	;'2'
  1084  09C0  3434               	retlw	52	;'4'
  1085  09C1  3400               	retlw	0
  1086  09C2                     STR_38:
  1087  09C2  3430               	retlw	48	;'0'
  1088  09C3  3433               	retlw	51	;'3'
  1089  09C4  3434               	retlw	52	;'4'
  1090  09C5  3400               	retlw	0
  1091  09C6                     STR_138:
  1092  09C6  3431               	retlw	49	;'1'
  1093  09C7  3433               	retlw	51	;'3'
  1094  09C8  3434               	retlw	52	;'4'
  1095  09C9  3400               	retlw	0
  1096  09CA                     STR_238:
  1097  09CA  3432               	retlw	50	;'2'
  1098  09CB  3433               	retlw	51	;'3'
  1099  09CC  3434               	retlw	52	;'4'
  1100  09CD  3400               	retlw	0
  1101  09CE                     STR_48:
  1102  09CE  3430               	retlw	48	;'0'
  1103  09CF  3434               	retlw	52	;'4'
  1104  09D0  3434               	retlw	52	;'4'
  1105  09D1  3400               	retlw	0
  1106  09D2                     STR_148:
  1107  09D2  3431               	retlw	49	;'1'
  1108  09D3  3434               	retlw	52	;'4'
  1109  09D4  3434               	retlw	52	;'4'
  1110  09D5  3400               	retlw	0
  1111  09D6                     STR_248:
  1112  09D6  3432               	retlw	50	;'2'
  1113  09D7  3434               	retlw	52	;'4'
  1114  09D8  3434               	retlw	52	;'4'
  1115  09D9  3400               	retlw	0
  1116  09DA                     STR_58:
  1117  09DA  3430               	retlw	48	;'0'
  1118  09DB  3435               	retlw	53	;'5'
  1119  09DC  3434               	retlw	52	;'4'
  1120  09DD  3400               	retlw	0
  1121  09DE                     STR_158:
  1122  09DE  3431               	retlw	49	;'1'
  1123  09DF  3435               	retlw	53	;'5'
  1124  09E0  3434               	retlw	52	;'4'
  1125  09E1  3400               	retlw	0
  1126  09E2                     STR_258:
  1127  09E2  3432               	retlw	50	;'2'
  1128  09E3  3435               	retlw	53	;'5'
  1129  09E4  3434               	retlw	52	;'4'
  1130  09E5  3400               	retlw	0
  1131  09E6                     STR_68:
  1132  09E6  3430               	retlw	48	;'0'
  1133  09E7  3436               	retlw	54	;'6'
  1134  09E8  3434               	retlw	52	;'4'
  1135  09E9  3400               	retlw	0
  1136  09EA                     STR_168:
  1137  09EA  3431               	retlw	49	;'1'
  1138  09EB  3436               	retlw	54	;'6'
  1139  09EC  3434               	retlw	52	;'4'
  1140  09ED  3400               	retlw	0
  1141  09EE                     STR_78:
  1142  09EE  3430               	retlw	48	;'0'
  1143  09EF  3437               	retlw	55	;'7'
  1144  09F0  3434               	retlw	52	;'4'
  1145  09F1  3400               	retlw	0
  1146  09F2                     STR_178:
  1147  09F2  3431               	retlw	49	;'1'
  1148  09F3  3437               	retlw	55	;'7'
  1149  09F4  3434               	retlw	52	;'4'
  1150  09F5  3400               	retlw	0
  1151  09F6                     STR_88:
  1152  09F6  3430               	retlw	48	;'0'
  1153  09F7  3438               	retlw	56	;'8'
  1154  09F8  3434               	retlw	52	;'4'
  1155  09F9  3400               	retlw	0
  1156  09FA                     STR_188:
  1157  09FA  3431               	retlw	49	;'1'
  1158  09FB  3438               	retlw	56	;'8'
  1159  09FC  3434               	retlw	52	;'4'
  1160  09FD  3400               	retlw	0
  1161  09FE                     STR_98:
  1162  09FE  3430               	retlw	48	;'0'
  1163  09FF  3439               	retlw	57	;'9'
  1164  0A00  3434               	retlw	52	;'4'
  1165  0A01  3400               	retlw	0
  1166  0A02                     STR_198:
  1167  0A02  3431               	retlw	49	;'1'
  1168  0A03  3439               	retlw	57	;'9'
  1169  0A04  3434               	retlw	52	;'4'
  1170  0A05  3400               	retlw	0
  1171  0A06                     STR_9:
  1172  0A06  3430               	retlw	48	;'0'
  1173  0A07  3430               	retlw	48	;'0'
  1174  0A08  3435               	retlw	53	;'5'
  1175  0A09  3400               	retlw	0
  1176  0A0A                     STR_109:
  1177  0A0A  3431               	retlw	49	;'1'
  1178  0A0B  3430               	retlw	48	;'0'
  1179  0A0C  3435               	retlw	53	;'5'
  1180  0A0D  3400               	retlw	0
  1181  0A0E                     STR_209:
  1182  0A0E  3432               	retlw	50	;'2'
  1183  0A0F  3430               	retlw	48	;'0'
  1184  0A10  3435               	retlw	53	;'5'
  1185  0A11  3400               	retlw	0
  1186  0A12                     STR_19:
  1187  0A12  3430               	retlw	48	;'0'
  1188  0A13  3431               	retlw	49	;'1'
  1189  0A14  3435               	retlw	53	;'5'
  1190  0A15  3400               	retlw	0
  1191  0A16                     STR_119:
  1192  0A16  3431               	retlw	49	;'1'
  1193  0A17  3431               	retlw	49	;'1'
  1194  0A18  3435               	retlw	53	;'5'
  1195  0A19  3400               	retlw	0
  1196  0A1A                     STR_219:
  1197  0A1A  3432               	retlw	50	;'2'
  1198  0A1B  3431               	retlw	49	;'1'
  1199  0A1C  3435               	retlw	53	;'5'
  1200  0A1D  3400               	retlw	0
  1201  0A1E                     STR_29:
  1202  0A1E  3430               	retlw	48	;'0'
  1203  0A1F  3432               	retlw	50	;'2'
  1204  0A20  3435               	retlw	53	;'5'
  1205  0A21  3400               	retlw	0
  1206  0A22                     STR_129:
  1207  0A22  3431               	retlw	49	;'1'
  1208  0A23  3432               	retlw	50	;'2'
  1209  0A24  3435               	retlw	53	;'5'
  1210  0A25  3400               	retlw	0
  1211  0A26                     STR_229:
  1212  0A26  3432               	retlw	50	;'2'
  1213  0A27  3432               	retlw	50	;'2'
  1214  0A28  3435               	retlw	53	;'5'
  1215  0A29  3400               	retlw	0
  1216  0A2A                     STR_39:
  1217  0A2A  3430               	retlw	48	;'0'
  1218  0A2B  3433               	retlw	51	;'3'
  1219  0A2C  3435               	retlw	53	;'5'
  1220  0A2D  3400               	retlw	0
  1221  0A2E                     STR_139:
  1222  0A2E  3431               	retlw	49	;'1'
  1223  0A2F  3433               	retlw	51	;'3'
  1224  0A30  3435               	retlw	53	;'5'
  1225  0A31  3400               	retlw	0
  1226  0A32                     STR_239:
  1227  0A32  3432               	retlw	50	;'2'
  1228  0A33  3433               	retlw	51	;'3'
  1229  0A34  3435               	retlw	53	;'5'
  1230  0A35  3400               	retlw	0
  1231  0A36                     STR_49:
  1232  0A36  3430               	retlw	48	;'0'
  1233  0A37  3434               	retlw	52	;'4'
  1234  0A38  3435               	retlw	53	;'5'
  1235  0A39  3400               	retlw	0
  1236  0A3A                     STR_149:
  1237  0A3A  3431               	retlw	49	;'1'
  1238  0A3B  3434               	retlw	52	;'4'
  1239  0A3C  3435               	retlw	53	;'5'
  1240  0A3D  3400               	retlw	0
  1241  0A3E                     STR_249:
  1242  0A3E  3432               	retlw	50	;'2'
  1243  0A3F  3434               	retlw	52	;'4'
  1244  0A40  3435               	retlw	53	;'5'
  1245  0A41  3400               	retlw	0
  1246  0A42                     STR_59:
  1247  0A42  3430               	retlw	48	;'0'
  1248  0A43  3435               	retlw	53	;'5'
  1249  0A44  3435               	retlw	53	;'5'
  1250  0A45  3400               	retlw	0
  1251  0A46                     STR_159:
  1252  0A46  3431               	retlw	49	;'1'
  1253  0A47  3435               	retlw	53	;'5'
  1254  0A48  3435               	retlw	53	;'5'
  1255  0A49  3400               	retlw	0
  1256  0A4A                     STR_259:
  1257  0A4A  3432               	retlw	50	;'2'
  1258  0A4B  3435               	retlw	53	;'5'
  1259  0A4C  3435               	retlw	53	;'5'
  1260  0A4D  3400               	retlw	0
  1261  0A4E                     STR_69:
  1262  0A4E  3430               	retlw	48	;'0'
  1263  0A4F  3436               	retlw	54	;'6'
  1264  0A50  3435               	retlw	53	;'5'
  1265  0A51  3400               	retlw	0
  1266  0A52                     STR_169:
  1267  0A52  3431               	retlw	49	;'1'
  1268  0A53  3436               	retlw	54	;'6'
  1269  0A54  3435               	retlw	53	;'5'
  1270  0A55  3400               	retlw	0
  1271  0A56                     STR_79:
  1272  0A56  3430               	retlw	48	;'0'
  1273  0A57  3437               	retlw	55	;'7'
  1274  0A58  3435               	retlw	53	;'5'
  1275  0A59  3400               	retlw	0
  1276  0A5A                     STR_179:
  1277  0A5A  3431               	retlw	49	;'1'
  1278  0A5B  3437               	retlw	55	;'7'
  1279  0A5C  3435               	retlw	53	;'5'
  1280  0A5D  3400               	retlw	0
  1281  0A5E                     STR_89:
  1282  0A5E  3430               	retlw	48	;'0'
  1283  0A5F  3438               	retlw	56	;'8'
  1284  0A60  3435               	retlw	53	;'5'
  1285  0A61  3400               	retlw	0
  1286  0A62                     STR_189:
  1287  0A62  3431               	retlw	49	;'1'
  1288  0A63  3438               	retlw	56	;'8'
  1289  0A64  3435               	retlw	53	;'5'
  1290  0A65  3400               	retlw	0
  1291  0A66                     STR_99:
  1292  0A66  3430               	retlw	48	;'0'
  1293  0A67  3439               	retlw	57	;'9'
  1294  0A68  3435               	retlw	53	;'5'
  1295  0A69  3400               	retlw	0
  1296  0A6A                     STR_199:
  1297  0A6A  3431               	retlw	49	;'1'
  1298  0A6B  3439               	retlw	57	;'9'
  1299  0A6C  3435               	retlw	53	;'5'
  1300  0A6D  3400               	retlw	0
  1301  0A6E                     STR_10:
  1302  0A6E  3430               	retlw	48	;'0'
  1303  0A6F  3430               	retlw	48	;'0'
  1304  0A70  3436               	retlw	54	;'6'
  1305  0A71  3400               	retlw	0
  1306  0A72                     STR_110:
  1307  0A72  3431               	retlw	49	;'1'
  1308  0A73  3430               	retlw	48	;'0'
  1309  0A74  3436               	retlw	54	;'6'
  1310  0A75  3400               	retlw	0
  1311  0A76                     STR_210:
  1312  0A76  3432               	retlw	50	;'2'
  1313  0A77  3430               	retlw	48	;'0'
  1314  0A78  3436               	retlw	54	;'6'
  1315  0A79  3400               	retlw	0
  1316  0A7A                     STR_20:
  1317  0A7A  3430               	retlw	48	;'0'
  1318  0A7B  3431               	retlw	49	;'1'
  1319  0A7C  3436               	retlw	54	;'6'
  1320  0A7D  3400               	retlw	0
  1321  0A7E                     STR_120:
  1322  0A7E  3431               	retlw	49	;'1'
  1323  0A7F  3431               	retlw	49	;'1'
  1324  0A80  3436               	retlw	54	;'6'
  1325  0A81  3400               	retlw	0
  1326  0A82                     STR_220:
  1327  0A82  3432               	retlw	50	;'2'
  1328  0A83  3431               	retlw	49	;'1'
  1329  0A84  3436               	retlw	54	;'6'
  1330  0A85  3400               	retlw	0
  1331  0A86                     STR_30:
  1332  0A86  3430               	retlw	48	;'0'
  1333  0A87  3432               	retlw	50	;'2'
  1334  0A88  3436               	retlw	54	;'6'
  1335  0A89  3400               	retlw	0
  1336  0A8A                     STR_130:
  1337  0A8A  3431               	retlw	49	;'1'
  1338  0A8B  3432               	retlw	50	;'2'
  1339  0A8C  3436               	retlw	54	;'6'
  1340  0A8D  3400               	retlw	0
  1341  0A8E                     STR_230:
  1342  0A8E  3432               	retlw	50	;'2'
  1343  0A8F  3432               	retlw	50	;'2'
  1344  0A90  3436               	retlw	54	;'6'
  1345  0A91  3400               	retlw	0
  1346  0A92                     STR_40:
  1347  0A92  3430               	retlw	48	;'0'
  1348  0A93  3433               	retlw	51	;'3'
  1349  0A94  3436               	retlw	54	;'6'
  1350  0A95  3400               	retlw	0
  1351  0A96                     STR_140:
  1352  0A96  3431               	retlw	49	;'1'
  1353  0A97  3433               	retlw	51	;'3'
  1354  0A98  3436               	retlw	54	;'6'
  1355  0A99  3400               	retlw	0
  1356  0A9A                     STR_240:
  1357  0A9A  3432               	retlw	50	;'2'
  1358  0A9B  3433               	retlw	51	;'3'
  1359  0A9C  3436               	retlw	54	;'6'
  1360  0A9D  3400               	retlw	0
  1361  0A9E                     STR_50:
  1362  0A9E  3430               	retlw	48	;'0'
  1363  0A9F  3434               	retlw	52	;'4'
  1364  0AA0  3436               	retlw	54	;'6'
  1365  0AA1  3400               	retlw	0
  1366  0AA2                     STR_150:
  1367  0AA2  3431               	retlw	49	;'1'
  1368  0AA3  3434               	retlw	52	;'4'
  1369  0AA4  3436               	retlw	54	;'6'
  1370  0AA5  3400               	retlw	0
  1371  0AA6                     STR_250:
  1372  0AA6  3432               	retlw	50	;'2'
  1373  0AA7  3434               	retlw	52	;'4'
  1374  0AA8  3436               	retlw	54	;'6'
  1375  0AA9  3400               	retlw	0
  1376  0AAA                     STR_60:
  1377  0AAA  3430               	retlw	48	;'0'
  1378  0AAB  3435               	retlw	53	;'5'
  1379  0AAC  3436               	retlw	54	;'6'
  1380  0AAD  3400               	retlw	0
  1381  0AAE                     STR_160:
  1382  0AAE  3431               	retlw	49	;'1'
  1383  0AAF  3435               	retlw	53	;'5'
  1384  0AB0  3436               	retlw	54	;'6'
  1385  0AB1  3400               	retlw	0
  1386  0AB2                     STR_70:
  1387  0AB2  3430               	retlw	48	;'0'
  1388  0AB3  3436               	retlw	54	;'6'
  1389  0AB4  3436               	retlw	54	;'6'
  1390  0AB5  3400               	retlw	0
  1391  0AB6                     STR_170:
  1392  0AB6  3431               	retlw	49	;'1'
  1393  0AB7  3436               	retlw	54	;'6'
  1394  0AB8  3436               	retlw	54	;'6'
  1395  0AB9  3400               	retlw	0
  1396  0ABA                     STR_80:
  1397  0ABA  3430               	retlw	48	;'0'
  1398  0ABB  3437               	retlw	55	;'7'
  1399  0ABC  3436               	retlw	54	;'6'
  1400  0ABD  3400               	retlw	0
  1401  0ABE                     STR_180:
  1402  0ABE  3431               	retlw	49	;'1'
  1403  0ABF  3437               	retlw	55	;'7'
  1404  0AC0  3436               	retlw	54	;'6'
  1405  0AC1  3400               	retlw	0
  1406  0AC2                     STR_90:
  1407  0AC2  3430               	retlw	48	;'0'
  1408  0AC3  3438               	retlw	56	;'8'
  1409  0AC4  3436               	retlw	54	;'6'
  1410  0AC5  3400               	retlw	0
  1411  0AC6                     STR_190:
  1412  0AC6  3431               	retlw	49	;'1'
  1413  0AC7  3438               	retlw	56	;'8'
  1414  0AC8  3436               	retlw	54	;'6'
  1415  0AC9  3400               	retlw	0
  1416  0ACA                     STR_100:
  1417  0ACA  3430               	retlw	48	;'0'
  1418  0ACB  3439               	retlw	57	;'9'
  1419  0ACC  3436               	retlw	54	;'6'
  1420  0ACD  3400               	retlw	0
  1421  0ACE                     STR_200:
  1422  0ACE  3431               	retlw	49	;'1'
  1423  0ACF  3439               	retlw	57	;'9'
  1424  0AD0  3436               	retlw	54	;'6'
  1425  0AD1  3400               	retlw	0
  1426  0AD2                     STR_11:
  1427  0AD2  3430               	retlw	48	;'0'
  1428  0AD3  3430               	retlw	48	;'0'
  1429  0AD4  3437               	retlw	55	;'7'
  1430  0AD5  3400               	retlw	0
  1431  0AD6                     STR_111:
  1432  0AD6  3431               	retlw	49	;'1'
  1433  0AD7  3430               	retlw	48	;'0'
  1434  0AD8  3437               	retlw	55	;'7'
  1435  0AD9  3400               	retlw	0
  1436  0ADA                     STR_211:
  1437  0ADA  3432               	retlw	50	;'2'
  1438  0ADB  3430               	retlw	48	;'0'
  1439  0ADC  3437               	retlw	55	;'7'
  1440  0ADD  3400               	retlw	0
  1441  0ADE                     STR_21:
  1442  0ADE  3430               	retlw	48	;'0'
  1443  0ADF  3431               	retlw	49	;'1'
  1444  0AE0  3437               	retlw	55	;'7'
  1445  0AE1  3400               	retlw	0
  1446  0AE2                     STR_121:
  1447  0AE2  3431               	retlw	49	;'1'
  1448  0AE3  3431               	retlw	49	;'1'
  1449  0AE4  3437               	retlw	55	;'7'
  1450  0AE5  3400               	retlw	0
  1451  0AE6                     STR_221:
  1452  0AE6  3432               	retlw	50	;'2'
  1453  0AE7  3431               	retlw	49	;'1'
  1454  0AE8  3437               	retlw	55	;'7'
  1455  0AE9  3400               	retlw	0
  1456  0AEA                     STR_31:
  1457  0AEA  3430               	retlw	48	;'0'
  1458  0AEB  3432               	retlw	50	;'2'
  1459  0AEC  3437               	retlw	55	;'7'
  1460  0AED  3400               	retlw	0
  1461  0AEE                     STR_131:
  1462  0AEE  3431               	retlw	49	;'1'
  1463  0AEF  3432               	retlw	50	;'2'
  1464  0AF0  3437               	retlw	55	;'7'
  1465  0AF1  3400               	retlw	0
  1466  0AF2                     STR_231:
  1467  0AF2  3432               	retlw	50	;'2'
  1468  0AF3  3432               	retlw	50	;'2'
  1469  0AF4  3437               	retlw	55	;'7'
  1470  0AF5  3400               	retlw	0
  1471  0AF6                     STR_41:
  1472  0AF6  3430               	retlw	48	;'0'
  1473  0AF7  3433               	retlw	51	;'3'
  1474  0AF8  3437               	retlw	55	;'7'
  1475  0AF9  3400               	retlw	0
  1476  0AFA                     STR_141:
  1477  0AFA  3431               	retlw	49	;'1'
  1478  0AFB  3433               	retlw	51	;'3'
  1479  0AFC  3437               	retlw	55	;'7'
  1480  0AFD  3400               	retlw	0
  1481  0AFE                     STR_241:
  1482  0AFE  3432               	retlw	50	;'2'
  1483  0AFF  3433               	retlw	51	;'3'
  1484  0B00  3437               	retlw	55	;'7'
  1485  0B01  3400               	retlw	0
  1486  0B02                     STR_51:
  1487  0B02  3430               	retlw	48	;'0'
  1488  0B03  3434               	retlw	52	;'4'
  1489  0B04  3437               	retlw	55	;'7'
  1490  0B05  3400               	retlw	0
  1491  0B06                     STR_151:
  1492  0B06  3431               	retlw	49	;'1'
  1493  0B07  3434               	retlw	52	;'4'
  1494  0B08  3437               	retlw	55	;'7'
  1495  0B09  3400               	retlw	0
  1496  0B0A                     STR_251:
  1497  0B0A  3432               	retlw	50	;'2'
  1498  0B0B  3434               	retlw	52	;'4'
  1499  0B0C  3437               	retlw	55	;'7'
  1500  0B0D  3400               	retlw	0
  1501  0B0E                     STR_61:
  1502  0B0E  3430               	retlw	48	;'0'
  1503  0B0F  3435               	retlw	53	;'5'
  1504  0B10  3437               	retlw	55	;'7'
  1505  0B11  3400               	retlw	0
  1506  0B12                     STR_161:
  1507  0B12  3431               	retlw	49	;'1'
  1508  0B13  3435               	retlw	53	;'5'
  1509  0B14  3437               	retlw	55	;'7'
  1510  0B15  3400               	retlw	0
  1511  0B16                     STR_71:
  1512  0B16  3430               	retlw	48	;'0'
  1513  0B17  3436               	retlw	54	;'6'
  1514  0B18  3437               	retlw	55	;'7'
  1515  0B19  3400               	retlw	0
  1516  0B1A                     STR_171:
  1517  0B1A  3431               	retlw	49	;'1'
  1518  0B1B  3436               	retlw	54	;'6'
  1519  0B1C  3437               	retlw	55	;'7'
  1520  0B1D  3400               	retlw	0
  1521  0B1E                     STR_81:
  1522  0B1E  3430               	retlw	48	;'0'
  1523  0B1F  3437               	retlw	55	;'7'
  1524  0B20  3437               	retlw	55	;'7'
  1525  0B21  3400               	retlw	0
  1526  0B22                     STR_181:
  1527  0B22  3431               	retlw	49	;'1'
  1528  0B23  3437               	retlw	55	;'7'
  1529  0B24  3437               	retlw	55	;'7'
  1530  0B25  3400               	retlw	0
  1531  0B26                     STR_91:
  1532  0B26  3430               	retlw	48	;'0'
  1533  0B27  3438               	retlw	56	;'8'
  1534  0B28  3437               	retlw	55	;'7'
  1535  0B29  3400               	retlw	0
  1536  0B2A                     STR_191:
  1537  0B2A  3431               	retlw	49	;'1'
  1538  0B2B  3438               	retlw	56	;'8'
  1539  0B2C  3437               	retlw	55	;'7'
  1540  0B2D  3400               	retlw	0
  1541  0B2E                     STR_101:
  1542  0B2E  3430               	retlw	48	;'0'
  1543  0B2F  3439               	retlw	57	;'9'
  1544  0B30  3437               	retlw	55	;'7'
  1545  0B31  3400               	retlw	0
  1546  0B32                     STR_201:
  1547  0B32  3431               	retlw	49	;'1'
  1548  0B33  3439               	retlw	57	;'9'
  1549  0B34  3437               	retlw	55	;'7'
  1550  0B35  3400               	retlw	0
  1551  0B36                     STR_12:
  1552  0B36  3430               	retlw	48	;'0'
  1553  0B37  3430               	retlw	48	;'0'
  1554  0B38  3438               	retlw	56	;'8'
  1555  0B39  3400               	retlw	0
  1556  0B3A                     STR_112:
  1557  0B3A  3431               	retlw	49	;'1'
  1558  0B3B  3430               	retlw	48	;'0'
  1559  0B3C  3438               	retlw	56	;'8'
  1560  0B3D  3400               	retlw	0
  1561  0B3E                     STR_212:
  1562  0B3E  3432               	retlw	50	;'2'
  1563  0B3F  3430               	retlw	48	;'0'
  1564  0B40  3438               	retlw	56	;'8'
  1565  0B41  3400               	retlw	0
  1566  0B42                     STR_22:
  1567  0B42  3430               	retlw	48	;'0'
  1568  0B43  3431               	retlw	49	;'1'
  1569  0B44  3438               	retlw	56	;'8'
  1570  0B45  3400               	retlw	0
  1571  0B46                     STR_122:
  1572  0B46  3431               	retlw	49	;'1'
  1573  0B47  3431               	retlw	49	;'1'
  1574  0B48  3438               	retlw	56	;'8'
  1575  0B49  3400               	retlw	0
  1576  0B4A                     STR_222:
  1577  0B4A  3432               	retlw	50	;'2'
  1578  0B4B  3431               	retlw	49	;'1'
  1579  0B4C  3438               	retlw	56	;'8'
  1580  0B4D  3400               	retlw	0
  1581  0B4E                     STR_32:
  1582  0B4E  3430               	retlw	48	;'0'
  1583  0B4F  3432               	retlw	50	;'2'
  1584  0B50  3438               	retlw	56	;'8'
  1585  0B51  3400               	retlw	0
  1586  0B52                     STR_132:
  1587  0B52  3431               	retlw	49	;'1'
  1588  0B53  3432               	retlw	50	;'2'
  1589  0B54  3438               	retlw	56	;'8'
  1590  0B55  3400               	retlw	0
  1591  0B56                     STR_232:
  1592  0B56  3432               	retlw	50	;'2'
  1593  0B57  3432               	retlw	50	;'2'
  1594  0B58  3438               	retlw	56	;'8'
  1595  0B59  3400               	retlw	0
  1596  0B5A                     STR_42:
  1597  0B5A  3430               	retlw	48	;'0'
  1598  0B5B  3433               	retlw	51	;'3'
  1599  0B5C  3438               	retlw	56	;'8'
  1600  0B5D  3400               	retlw	0
  1601  0B5E                     STR_142:
  1602  0B5E  3431               	retlw	49	;'1'
  1603  0B5F  3433               	retlw	51	;'3'
  1604  0B60  3438               	retlw	56	;'8'
  1605  0B61  3400               	retlw	0
  1606  0B62                     STR_242:
  1607  0B62  3432               	retlw	50	;'2'
  1608  0B63  3433               	retlw	51	;'3'
  1609  0B64  3438               	retlw	56	;'8'
  1610  0B65  3400               	retlw	0
  1611  0B66                     STR_52:
  1612  0B66  3430               	retlw	48	;'0'
  1613  0B67  3434               	retlw	52	;'4'
  1614  0B68  3438               	retlw	56	;'8'
  1615  0B69  3400               	retlw	0
  1616  0B6A                     STR_152:
  1617  0B6A  3431               	retlw	49	;'1'
  1618  0B6B  3434               	retlw	52	;'4'
  1619  0B6C  3438               	retlw	56	;'8'
  1620  0B6D  3400               	retlw	0
  1621  0B6E                     STR_252:
  1622  0B6E  3432               	retlw	50	;'2'
  1623  0B6F  3434               	retlw	52	;'4'
  1624  0B70  3438               	retlw	56	;'8'
  1625  0B71  3400               	retlw	0
  1626  0B72                     STR_62:
  1627  0B72  3430               	retlw	48	;'0'
  1628  0B73  3435               	retlw	53	;'5'
  1629  0B74  3438               	retlw	56	;'8'
  1630  0B75  3400               	retlw	0
  1631  0B76                     STR_162:
  1632  0B76  3431               	retlw	49	;'1'
  1633  0B77  3435               	retlw	53	;'5'
  1634  0B78  3438               	retlw	56	;'8'
  1635  0B79  3400               	retlw	0
  1636  0B7A                     STR_72:
  1637  0B7A  3430               	retlw	48	;'0'
  1638  0B7B  3436               	retlw	54	;'6'
  1639  0B7C  3438               	retlw	56	;'8'
  1640  0B7D  3400               	retlw	0
  1641  0B7E                     STR_172:
  1642  0B7E  3431               	retlw	49	;'1'
  1643  0B7F  3436               	retlw	54	;'6'
  1644  0B80  3438               	retlw	56	;'8'
  1645  0B81  3400               	retlw	0
  1646  0B82                     STR_82:
  1647  0B82  3430               	retlw	48	;'0'
  1648  0B83  3437               	retlw	55	;'7'
  1649  0B84  3438               	retlw	56	;'8'
  1650  0B85  3400               	retlw	0
  1651  0B86                     STR_182:
  1652  0B86  3431               	retlw	49	;'1'
  1653  0B87  3437               	retlw	55	;'7'
  1654  0B88  3438               	retlw	56	;'8'
  1655  0B89  3400               	retlw	0
  1656  0B8A                     STR_92:
  1657  0B8A  3430               	retlw	48	;'0'
  1658  0B8B  3438               	retlw	56	;'8'
  1659  0B8C  3438               	retlw	56	;'8'
  1660  0B8D  3400               	retlw	0
  1661  0B8E                     STR_192:
  1662  0B8E  3431               	retlw	49	;'1'
  1663  0B8F  3438               	retlw	56	;'8'
  1664  0B90  3438               	retlw	56	;'8'
  1665  0B91  3400               	retlw	0
  1666  0B92                     STR_102:
  1667  0B92  3430               	retlw	48	;'0'
  1668  0B93  3439               	retlw	57	;'9'
  1669  0B94  3438               	retlw	56	;'8'
  1670  0B95  3400               	retlw	0
  1671  0B96                     STR_202:
  1672  0B96  3431               	retlw	49	;'1'
  1673  0B97  3439               	retlw	57	;'9'
  1674  0B98  3438               	retlw	56	;'8'
  1675  0B99  3400               	retlw	0
  1676  0B9A                     STR_13:
  1677  0B9A  3430               	retlw	48	;'0'
  1678  0B9B  3430               	retlw	48	;'0'
  1679  0B9C  3439               	retlw	57	;'9'
  1680  0B9D  3400               	retlw	0
  1681  0B9E                     STR_113:
  1682  0B9E  3431               	retlw	49	;'1'
  1683  0B9F  3430               	retlw	48	;'0'
  1684  0BA0  3439               	retlw	57	;'9'
  1685  0BA1  3400               	retlw	0
  1686  0BA2                     STR_213:
  1687  0BA2  3432               	retlw	50	;'2'
  1688  0BA3  3430               	retlw	48	;'0'
  1689  0BA4  3439               	retlw	57	;'9'
  1690  0BA5  3400               	retlw	0
  1691  0BA6                     STR_23:
  1692  0BA6  3430               	retlw	48	;'0'
  1693  0BA7  3431               	retlw	49	;'1'
  1694  0BA8  3439               	retlw	57	;'9'
  1695  0BA9  3400               	retlw	0
  1696  0BAA                     STR_123:
  1697  0BAA  3431               	retlw	49	;'1'
  1698  0BAB  3431               	retlw	49	;'1'
  1699  0BAC  3439               	retlw	57	;'9'
  1700  0BAD  3400               	retlw	0
  1701  0BAE                     STR_223:
  1702  0BAE  3432               	retlw	50	;'2'
  1703  0BAF  3431               	retlw	49	;'1'
  1704  0BB0  3439               	retlw	57	;'9'
  1705  0BB1  3400               	retlw	0
  1706  0BB2                     STR_33:
  1707  0BB2  3430               	retlw	48	;'0'
  1708  0BB3  3432               	retlw	50	;'2'
  1709  0BB4  3439               	retlw	57	;'9'
  1710  0BB5  3400               	retlw	0
  1711  0BB6                     STR_133:
  1712  0BB6  3431               	retlw	49	;'1'
  1713  0BB7  3432               	retlw	50	;'2'
  1714  0BB8  3439               	retlw	57	;'9'
  1715  0BB9  3400               	retlw	0
  1716  0BBA                     STR_233:
  1717  0BBA  3432               	retlw	50	;'2'
  1718  0BBB  3432               	retlw	50	;'2'
  1719  0BBC  3439               	retlw	57	;'9'
  1720  0BBD  3400               	retlw	0
  1721  0BBE                     STR_43:
  1722  0BBE  3430               	retlw	48	;'0'
  1723  0BBF  3433               	retlw	51	;'3'
  1724  0BC0  3439               	retlw	57	;'9'
  1725  0BC1  3400               	retlw	0
  1726  0BC2                     STR_143:
  1727  0BC2  3431               	retlw	49	;'1'
  1728  0BC3  3433               	retlw	51	;'3'
  1729  0BC4  3439               	retlw	57	;'9'
  1730  0BC5  3400               	retlw	0
  1731  0BC6                     STR_243:
  1732  0BC6  3432               	retlw	50	;'2'
  1733  0BC7  3433               	retlw	51	;'3'
  1734  0BC8  3439               	retlw	57	;'9'
  1735  0BC9  3400               	retlw	0
  1736  0BCA                     STR_53:
  1737  0BCA  3430               	retlw	48	;'0'
  1738  0BCB  3434               	retlw	52	;'4'
  1739  0BCC  3439               	retlw	57	;'9'
  1740  0BCD  3400               	retlw	0
  1741  0BCE                     STR_153:
  1742  0BCE  3431               	retlw	49	;'1'
  1743  0BCF  3434               	retlw	52	;'4'
  1744  0BD0  3439               	retlw	57	;'9'
  1745  0BD1  3400               	retlw	0
  1746  0BD2                     STR_253:
  1747  0BD2  3432               	retlw	50	;'2'
  1748  0BD3  3434               	retlw	52	;'4'
  1749  0BD4  3439               	retlw	57	;'9'
  1750  0BD5  3400               	retlw	0
  1751  0BD6                     STR_63:
  1752  0BD6  3430               	retlw	48	;'0'
  1753  0BD7  3435               	retlw	53	;'5'
  1754  0BD8  3439               	retlw	57	;'9'
  1755  0BD9  3400               	retlw	0
  1756  0BDA                     STR_163:
  1757  0BDA  3431               	retlw	49	;'1'
  1758  0BDB  3435               	retlw	53	;'5'
  1759  0BDC  3439               	retlw	57	;'9'
  1760  0BDD  3400               	retlw	0
  1761  0BDE                     STR_73:
  1762  0BDE  3430               	retlw	48	;'0'
  1763  0BDF  3436               	retlw	54	;'6'
  1764  0BE0  3439               	retlw	57	;'9'
  1765  0BE1  3400               	retlw	0
  1766  0BE2                     STR_173:
  1767  0BE2  3431               	retlw	49	;'1'
  1768  0BE3  3436               	retlw	54	;'6'
  1769  0BE4  3439               	retlw	57	;'9'
  1770  0BE5  3400               	retlw	0
  1771  0BE6                     STR_83:
  1772  0BE6  3430               	retlw	48	;'0'
  1773  0BE7  3437               	retlw	55	;'7'
  1774  0BE8  3439               	retlw	57	;'9'
  1775  0BE9  3400               	retlw	0
  1776  0BEA                     STR_183:
  1777  0BEA  3431               	retlw	49	;'1'
  1778  0BEB  3437               	retlw	55	;'7'
  1779  0BEC  3439               	retlw	57	;'9'
  1780  0BED  3400               	retlw	0
  1781  0BEE                     STR_93:
  1782  0BEE  3430               	retlw	48	;'0'
  1783  0BEF  3438               	retlw	56	;'8'
  1784  0BF0  3439               	retlw	57	;'9'
  1785  0BF1  3400               	retlw	0
  1786  0BF2                     STR_193:
  1787  0BF2  3431               	retlw	49	;'1'
  1788  0BF3  3438               	retlw	56	;'8'
  1789  0BF4  3439               	retlw	57	;'9'
  1790  0BF5  3400               	retlw	0
  1791  0BF6                     STR_103:
  1792  0BF6  3430               	retlw	48	;'0'
  1793  0BF7  3439               	retlw	57	;'9'
  1794  0BF8  3439               	retlw	57	;'9'
  1795  0BF9  3400               	retlw	0
  1796  0BFA                     STR_203:
  1797  0BFA  3431               	retlw	49	;'1'
  1798  0BFB  3439               	retlw	57	;'9'
  1799  0BFC  3439               	retlw	57	;'9'
  1800  0BFD  3400               	retlw	0
  1801  0BFE                     STR_1:
  1802  0BFE  3450               	retlw	80	;'P'
  1803  0BFF  344F               	retlw	79	;'O'
  1804  0C00  3454               	retlw	84	;'T'
  1805  0C01  3400               	retlw	0
  1806  081F                     
  1807                           	psect	cinit
  1808  0013                     start_initialization:	
  1809                           ; #config settings
  1810                           
  1811  0013                     __initialization:
  1812                           
  1813                           ; Clear objects allocated to COMMON
  1814  0013  01FD               	clrf	__pbssCOMMON& (0+127)
  1815                           
  1816                           ; Clear objects allocated to BANK0
  1817  0014  1383               	bcf	3,7	;select IRP bank0
  1818  0015  3020               	movlw	low __pbssBANK0
  1819  0016  0084               	movwf	4
  1820  0017  3035               	movlw	low (__pbssBANK0+21)
  1821  0018  160A  118A  26C2  120A  118A  	fcall	clear_ram0
  1822  001D                     end_of_initialization:	
  1823                           ;End of C runtime variable initialization code
  1824                           
  1825  001D                     __end_of__initialization:
  1826  001D  0183               	clrf	3
  1827  001E  120A  158A  2DFB   	ljmp	_main	;jump to C main() function
  1828                           
  1829                           	psect	bssCOMMON
  1830  007D                     __pbssCOMMON:
  1831  007D                     _BANDERA_T:
  1832  007D                     	ds	1
  1833                           
  1834                           	psect	bssBANK0
  1835  0020                     __pbssBANK0:
  1836  0020                     _TEMP_r:
  1837  0020                     	ds	2
  1838  0022                     _CONT_r:
  1839  0022                     	ds	2
  1840  0024                     _POT_r:
  1841  0024                     	ds	2
  1842  0026                     _cont_cents:
  1843  0026                     	ds	1
  1844  0027                     _cont_decs:
  1845  0027                     	ds	1
  1846  0028                     _cont_units:
  1847  0028                     	ds	1
  1848  0029                     _Pot_decs:
  1849  0029                     	ds	1
  1850  002A                     _Pot_units:
  1851  002A                     	ds	1
  1852  002B                     _Pot_cents:
  1853  002B                     	ds	1
  1854  002C                     _Temp_units:
  1855  002C                     	ds	1
  1856  002D                     _Temp_cents:
  1857  002D                     	ds	1
  1858  002E                     _Temp_decs:
  1859  002E                     	ds	1
  1860  002F                     _TEMPERATURA:
  1861  002F                     	ds	1
  1862  0030                     _CONT:
  1863  0030                     	ds	1
  1864  0031                     _contador:
  1865  0031                     	ds	1
  1866  0032                     _POTENCIOMETRO:
  1867  0032                     	ds	1
  1868  0033                     _temp:
  1869  0033                     	ds	1
  1870  0034                     _data:
  1871  0034                     	ds	1
  1872                           
  1873                           	psect	clrtext
  1874  16C2                     clear_ram0:	
  1875                           ;	Called with FSR containing the base address, and
  1876                           ;	W with the last address+1
  1877                           
  1878  16C2  0064               	clrwdt	;clear the watchdog before getting into this loop
  1879  16C3                     clrloop0:
  1880  16C3  0180               	clrf	0	;clear RAM location pointed to by FSR
  1881  16C4  0A84               	incf	4,f	;increment pointer
  1882  16C5  0604               	xorwf	4,w	;XOR with final address
  1883  16C6  1903               	btfsc	3,2	;have we reached the end yet?
  1884  16C7  3400               	retlw	0	;all done for this memory range, return
  1885  16C8  0604               	xorwf	4,w	;XOR again to restore value
  1886  16C9  2EC3               	goto	clrloop0	;do the next byte
  1887                           
  1888                           	psect	cstackCOMMON
  1889  0070                     __pcstackCOMMON:
  1890  0070                     ?_TX:
  1891  0070                     ?_SETUP:	
  1892                           ; 1 bytes @ 0x0
  1893                           
  1894  0070                     ?_LEER_S1:	
  1895                           ; 1 bytes @ 0x0
  1896                           
  1897  0070                     ?_LEER_S2:	
  1898                           ; 1 bytes @ 0x0
  1899                           
  1900  0070                     ?_LEER_S3:	
  1901                           ; 1 bytes @ 0x0
  1902                           
  1903  0070                     ?_LCD:	
  1904                           ; 1 bytes @ 0x0
  1905                           
  1906  0070                     ?_CONFIG_USART:	
  1907                           ; 1 bytes @ 0x0
  1908                           
  1909  0070                     ?_Lcd_Init:	
  1910                           ; 1 bytes @ 0x0
  1911                           
  1912  0070                     ?_READ_SPI:	
  1913                           ; 1 bytes @ 0x0
  1914                           
  1915  0070                     ?_isr:	
  1916                           ; 1 bytes @ 0x0
  1917                           
  1918  0070                     ?_main:	
  1919                           ; 1 bytes @ 0x0
  1920                           
  1921  0070                     ?_POT_TO_CHARS:	
  1922                           ; 1 bytes @ 0x0
  1923                           
  1924  0070                     ?_CONT_TO_CHARS:	
  1925                           ; 1 bytes @ 0x0
  1926                           
  1927  0070                     ?_TEMP_TO_CHARS:	
  1928                           ; 1 bytes @ 0x0
  1929                           
  1930  0070                     ?_Lcd_Port:	
  1931                           ; 1 bytes @ 0x0
  1932                           
  1933  0070                     ?_Lcd_Cmd:	
  1934                           ; 1 bytes @ 0x0
  1935                           
  1936  0070                     ?_Lcd_Write_Char:	
  1937                           ; 1 bytes @ 0x0
  1938                           
  1939  0070                     ?___awdiv:	
  1940                           ; 1 bytes @ 0x0
  1941                           
  1942  0070                     ?___awmod:	
  1943                           ; 2 bytes @ 0x0
  1944                           
  1945  0070                     ___awdiv@divisor:	
  1946                           ; 2 bytes @ 0x0
  1947                           
  1948  0070                     ___awmod@divisor:	
  1949                           ; 2 bytes @ 0x0
  1950                           
  1951                           
  1952                           ; 2 bytes @ 0x0
  1953  0070                     	ds	2
  1954  0072                     ___awdiv@dividend:
  1955  0072                     ___awmod@dividend:	
  1956                           ; 2 bytes @ 0x2
  1957                           
  1958                           
  1959                           ; 2 bytes @ 0x2
  1960  0072                     	ds	2
  1961  0074                     ??___awdiv:
  1962  0074                     ??___awmod:	
  1963                           ; 1 bytes @ 0x4
  1964                           
  1965                           
  1966                           ; 1 bytes @ 0x4
  1967  0074                     	ds	1
  1968  0075                     ___awdiv@counter:
  1969  0075                     ___awmod@counter:	
  1970                           ; 1 bytes @ 0x5
  1971                           
  1972                           
  1973                           ; 1 bytes @ 0x5
  1974  0075                     	ds	1
  1975  0076                     ___awdiv@sign:
  1976  0076                     ___awmod@sign:	
  1977                           ; 1 bytes @ 0x6
  1978                           
  1979                           
  1980                           ; 1 bytes @ 0x6
  1981  0076                     	ds	1
  1982  0077                     ___awdiv@quotient:
  1983                           
  1984                           ; 2 bytes @ 0x7
  1985  0077                     	ds	2
  1986  0079                     ??_POT_TO_CHARS:
  1987  0079                     ??_CONT_TO_CHARS:	
  1988                           ; 1 bytes @ 0x9
  1989                           
  1990  0079                     ??_TEMP_TO_CHARS:	
  1991                           ; 1 bytes @ 0x9
  1992                           
  1993                           
  1994                           ; 1 bytes @ 0x9
  1995  0079                     	ds	3
  1996  007C                     POT_TO_CHARS@valor:
  1997  007C                     CONT_TO_CHARS@valor:	
  1998                           ; 1 bytes @ 0xC
  1999                           
  2000  007C                     TEMP_TO_CHARS@valor:	
  2001                           ; 1 bytes @ 0xC
  2002                           
  2003                           
  2004                           ; 1 bytes @ 0xC
  2005  007C                     	ds	1
  2006                           
  2007                           	psect	cstackBANK0
  2008  0035                     __pcstackBANK0:
  2009  0035                     ??_TX:
  2010                           
  2011                           ; 1 bytes @ 0x0
  2012  0035                     	ds	2
  2013  0037                     ??_isr:
  2014                           
  2015                           ; 1 bytes @ 0x2
  2016  0037                     	ds	3
  2017  003A                     ??_CONFIG_USART:
  2018  003A                     ??_READ_SPI:	
  2019                           ; 1 bytes @ 0x5
  2020                           
  2021  003A                     ??_Lcd_Port:	
  2022                           ; 1 bytes @ 0x5
  2023                           
  2024  003A                     ?_CONV:	
  2025                           ; 1 bytes @ 0x5
  2026                           
  2027  003A                     Lcd_Port@a:	
  2028                           ; 2 bytes @ 0x5
  2029                           
  2030                           
  2031                           ; 1 bytes @ 0x5
  2032  003A                     	ds	1
  2033  003B                     ??_CONV:
  2034  003B                     ??_Lcd_Cmd:	
  2035                           ; 1 bytes @ 0x6
  2036                           
  2037  003B                     ??_Lcd_Write_Char:	
  2038                           ; 1 bytes @ 0x6
  2039                           
  2040  003B                     READ_SPI@data:	
  2041                           ; 1 bytes @ 0x6
  2042                           
  2043                           
  2044                           ; 1 bytes @ 0x6
  2045  003B                     	ds	1
  2046  003C                     ??_LEER_S1:
  2047  003C                     ??_LEER_S2:	
  2048                           ; 1 bytes @ 0x7
  2049                           
  2050  003C                     ??_LEER_S3:	
  2051                           ; 1 bytes @ 0x7
  2052                           
  2053  003C                     Lcd_Write_Char@a:	
  2054                           ; 1 bytes @ 0x7
  2055                           
  2056                           
  2057                           ; 1 bytes @ 0x7
  2058  003C                     	ds	1
  2059  003D                     ?_Lcd_Write_String:
  2060  003D                     Lcd_Cmd@a:	
  2061                           ; 1 bytes @ 0x8
  2062                           
  2063  003D                     CONV@numero:	
  2064                           ; 1 bytes @ 0x8
  2065                           
  2066  003D                     Lcd_Write_String@a:	
  2067                           ; 1 bytes @ 0x8
  2068                           
  2069                           
  2070                           ; 2 bytes @ 0x8
  2071  003D                     	ds	1
  2072  003E                     ??_Lcd_Init:
  2073  003E                     ?_Lcd_Set_Cursor:	
  2074                           ; 1 bytes @ 0x9
  2075                           
  2076  003E                     Lcd_Set_Cursor@b:	
  2077                           ; 1 bytes @ 0x9
  2078                           
  2079                           
  2080                           ; 1 bytes @ 0x9
  2081  003E                     	ds	1
  2082  003F                     ??_Lcd_Set_Cursor:
  2083  003F                     ??_Lcd_Write_String:	
  2084                           ; 1 bytes @ 0xA
  2085                           
  2086                           
  2087                           ; 1 bytes @ 0xA
  2088  003F                     	ds	1
  2089  0040                     Lcd_Set_Cursor@a:
  2090                           
  2091                           ; 1 bytes @ 0xB
  2092  0040                     	ds	1
  2093  0041                     Lcd_Set_Cursor@temp:
  2094                           
  2095                           ; 1 bytes @ 0xC
  2096  0041                     	ds	1
  2097  0042                     Lcd_Write_String@i:
  2098                           
  2099                           ; 2 bytes @ 0xD
  2100  0042                     	ds	2
  2101  0044                     ??_SETUP:
  2102  0044                     ??_LCD:	
  2103                           ; 1 bytes @ 0xF
  2104                           
  2105                           
  2106                           ; 1 bytes @ 0xF
  2107  0044                     	ds	1
  2108  0045                     ??_main:
  2109                           
  2110                           ; 1 bytes @ 0x10
  2111  0045                     	ds	3
  2112                           
  2113                           	psect	maintext
  2114  0DFB                     __pmaintext:	
  2115 ;;
  2116 ;;Main: autosize = 0, tempsize = 3, incstack = 0, save=0
  2117 ;;
  2118 ;; *************** function _main *****************
  2119 ;; Defined at:
  2120 ;;		line 83 in file "Principal_Master.c"
  2121 ;; Parameters:    Size  Location     Type
  2122 ;;		None
  2123 ;; Auto vars:     Size  Location     Type
  2124 ;;		None
  2125 ;; Return value:  Size  Location     Type
  2126 ;;                  1    wreg      void 
  2127 ;; Registers used:
  2128 ;;		wreg, fsr0l, fsr0h, status,2, status,0, btemp+1, pclath, cstack
  2129 ;; Tracked objects:
  2130 ;;		On entry : B00/0
  2131 ;;		On exit  : 0/0
  2132 ;;		Unchanged: 0/0
  2133 ;; Data sizes:     COMMON   BANK0   BANK1   BANK3   BANK2
  2134 ;;      Params:         0       0       0       0       0
  2135 ;;      Locals:         0       0       0       0       0
  2136 ;;      Temps:          0       3       0       0       0
  2137 ;;      Totals:         0       3       0       0       0
  2138 ;;Total ram usage:        3 bytes
  2139 ;; Hardware stack levels required when called:    8
  2140 ;; This function calls:
  2141 ;;		_CONV
  2142 ;;		_LCD
  2143 ;;		_LEER_S1
  2144 ;;		_LEER_S2
  2145 ;;		_LEER_S3
  2146 ;;		_SETUP
  2147 ;; This function is called by:
  2148 ;;		Startup code after reset
  2149 ;; This function uses a non-reentrant model
  2150 ;;
  2151                           
  2152                           
  2153                           ;psect for function _main
  2154  0DFB                     _main:
  2155  0DFB                     l5157:	
  2156                           ;incstack = 0
  2157                           ; Regs used in _main: [wreg-fsr0h+status,2+status,0+btemp+1+pclath+cstack]
  2158                           
  2159                           
  2160                           ;Principal_Master.c: 85:  SETUP();
  2161  0DFB  120A  158A  266F  120A  158A  	fcall	_SETUP
  2162  0E00                     l5159:
  2163                           
  2164                           ;Principal_Master.c: 88:  {;Principal_Master.c: 90:     LEER_S1();
  2165  0E00  160A  118A  273C  120A  158A  	fcall	_LEER_S1
  2166  0E05                     l5161:
  2167                           
  2168                           ;Principal_Master.c: 91:     _delay((unsigned long)((100)*(8000000/4000.0)));
  2169  0E05  3002               	movlw	2
  2170  0E06  1283               	bcf	3,5	;RP0=0, select bank0
  2171  0E07  1303               	bcf	3,6	;RP1=0, select bank0
  2172  0E08  00C7               	movwf	??_main+2
  2173  0E09  3004               	movlw	4
  2174  0E0A  00C6               	movwf	??_main+1
  2175  0E0B  30B9               	movlw	185
  2176  0E0C  00C5               	movwf	??_main
  2177  0E0D                     u547:
  2178  0E0D  0BC5               	decfsz	??_main,f
  2179  0E0E  2E0D               	goto	u547
  2180  0E0F  0BC6               	decfsz	??_main+1,f
  2181  0E10  2E0D               	goto	u547
  2182  0E11  0BC7               	decfsz	??_main+2,f
  2183  0E12  2E0D               	goto	u547
  2184  0E13  2E14               	nop2
  2185  0E14                     l5163:
  2186                           
  2187                           ;Principal_Master.c: 92:     POT_r = CONV(POTENCIOMETRO);
  2188  0E14  1283               	bcf	3,5	;RP0=0, select bank0
  2189  0E15  1303               	bcf	3,6	;RP1=0, select bank0
  2190  0E16  0832               	movf	_POTENCIOMETRO,w
  2191  0E17  120A  158A  26F9  120A  158A  	fcall	_CONV
  2192  0E1C  1283               	bcf	3,5	;RP0=0, select bank0
  2193  0E1D  1303               	bcf	3,6	;RP1=0, select bank0
  2194  0E1E  083A               	movf	?_CONV,w
  2195  0E1F  00A4               	movwf	_POT_r
  2196  0E20  083B               	movf	?_CONV+1,w
  2197  0E21  00A5               	movwf	_POT_r+1
  2198  0E22                     l5165:
  2199                           
  2200                           ;Principal_Master.c: 94:     LEER_S2();
  2201  0E22  160A  118A  2759  120A  158A  	fcall	_LEER_S2
  2202  0E27                     l5167:
  2203                           
  2204                           ;Principal_Master.c: 95:     _delay((unsigned long)((100)*(8000000/4000.0)));
  2205  0E27  3002               	movlw	2
  2206  0E28  1283               	bcf	3,5	;RP0=0, select bank0
  2207  0E29  1303               	bcf	3,6	;RP1=0, select bank0
  2208  0E2A  00C7               	movwf	??_main+2
  2209  0E2B  3004               	movlw	4
  2210  0E2C  00C6               	movwf	??_main+1
  2211  0E2D  30B9               	movlw	185
  2212  0E2E  00C5               	movwf	??_main
  2213  0E2F                     u557:
  2214  0E2F  0BC5               	decfsz	??_main,f
  2215  0E30  2E2F               	goto	u557
  2216  0E31  0BC6               	decfsz	??_main+1,f
  2217  0E32  2E2F               	goto	u557
  2218  0E33  0BC7               	decfsz	??_main+2,f
  2219  0E34  2E2F               	goto	u557
  2220  0E35  2E36               	nop2
  2221  0E36                     l5169:
  2222                           
  2223                           ;Principal_Master.c: 96:     CONT_r = CONV(CONT);
  2224  0E36  1283               	bcf	3,5	;RP0=0, select bank0
  2225  0E37  1303               	bcf	3,6	;RP1=0, select bank0
  2226  0E38  0830               	movf	_CONT,w
  2227  0E39  120A  158A  26F9  120A  158A  	fcall	_CONV
  2228  0E3E  1283               	bcf	3,5	;RP0=0, select bank0
  2229  0E3F  1303               	bcf	3,6	;RP1=0, select bank0
  2230  0E40  083A               	movf	?_CONV,w
  2231  0E41  00A2               	movwf	_CONT_r
  2232  0E42  083B               	movf	?_CONV+1,w
  2233  0E43  00A3               	movwf	_CONT_r+1
  2234  0E44                     l5171:
  2235                           
  2236                           ;Principal_Master.c: 98:      LEER_S3();
  2237  0E44  120A  158A  2407  120A  158A  	fcall	_LEER_S3
  2238  0E49                     l5173:
  2239                           
  2240                           ;Principal_Master.c: 99:     _delay((unsigned long)((100)*(8000000/4000.0)));
  2241  0E49  3002               	movlw	2
  2242  0E4A  1283               	bcf	3,5	;RP0=0, select bank0
  2243  0E4B  1303               	bcf	3,6	;RP1=0, select bank0
  2244  0E4C  00C7               	movwf	??_main+2
  2245  0E4D  3004               	movlw	4
  2246  0E4E  00C6               	movwf	??_main+1
  2247  0E4F  30B9               	movlw	185
  2248  0E50  00C5               	movwf	??_main
  2249  0E51                     u567:
  2250  0E51  0BC5               	decfsz	??_main,f
  2251  0E52  2E51               	goto	u567
  2252  0E53  0BC6               	decfsz	??_main+1,f
  2253  0E54  2E51               	goto	u567
  2254  0E55  0BC7               	decfsz	??_main+2,f
  2255  0E56  2E51               	goto	u567
  2256  0E57  2E58               	nop2
  2257  0E58                     l5175:
  2258                           
  2259                           ;Principal_Master.c: 100:     TEMP_r = CONV(TEMPERATURA);
  2260  0E58  1283               	bcf	3,5	;RP0=0, select bank0
  2261  0E59  1303               	bcf	3,6	;RP1=0, select bank0
  2262  0E5A  082F               	movf	_TEMPERATURA,w
  2263  0E5B  120A  158A  26F9  120A  158A  	fcall	_CONV
  2264  0E60  1283               	bcf	3,5	;RP0=0, select bank0
  2265  0E61  1303               	bcf	3,6	;RP1=0, select bank0
  2266  0E62  083A               	movf	?_CONV,w
  2267  0E63  00A0               	movwf	_TEMP_r
  2268  0E64  083B               	movf	?_CONV+1,w
  2269  0E65  00A1               	movwf	_TEMP_r+1
  2270  0E66                     l5177:
  2271                           
  2272                           ;Principal_Master.c: 102:     LCD();
  2273  0E66  160A  118A  2776  120A  158A  	fcall	_LCD
  2274  0E6B  2E00               	goto	l5159
  2275  0E6C  120A  118A  2810   	ljmp	start
  2276  0E6F                     __end_of_main:
  2277                           
  2278                           	psect	text1
  2279  0E6F                     __ptext1:	
  2280 ;; *************** function _SETUP *****************
  2281 ;; Defined at:
  2282 ;;		line 112 in file "Principal_Master.c"
  2283 ;; Parameters:    Size  Location     Type
  2284 ;;		None
  2285 ;; Auto vars:     Size  Location     Type
  2286 ;;		None
  2287 ;; Return value:  Size  Location     Type
  2288 ;;                  1    wreg      void 
  2289 ;; Registers used:
  2290 ;;		wreg, fsr0l, fsr0h, status,2, status,0, btemp+1, pclath, cstack
  2291 ;; Tracked objects:
  2292 ;;		On entry : 0/0
  2293 ;;		On exit  : 0/0
  2294 ;;		Unchanged: 0/0
  2295 ;; Data sizes:     COMMON   BANK0   BANK1   BANK3   BANK2
  2296 ;;      Params:         0       0       0       0       0
  2297 ;;      Locals:         0       0       0       0       0
  2298 ;;      Temps:          0       1       0       0       0
  2299 ;;      Totals:         0       1       0       0       0
  2300 ;;Total ram usage:        1 bytes
  2301 ;; Hardware stack levels used:    1
  2302 ;; Hardware stack levels required when called:    7
  2303 ;; This function calls:
  2304 ;;		_CONFIG_USART
  2305 ;;		_Lcd_Init
  2306 ;;		_Lcd_Set_Cursor
  2307 ;;		_Lcd_Write_String
  2308 ;; This function is called by:
  2309 ;;		_main
  2310 ;; This function uses a non-reentrant model
  2311 ;;
  2312                           
  2313                           
  2314                           ;psect for function _SETUP
  2315  0E6F                     _SETUP:
  2316  0E6F                     l3499:	
  2317                           ;incstack = 0
  2318                           ; Regs used in _SETUP: [wreg-fsr0h+status,2+status,0+btemp+1+pclath+cstack]
  2319                           
  2320                           
  2321                           ;Principal_Master.c: 114:     PORTA = 0;
  2322  0E6F  1283               	bcf	3,5	;RP0=0, select bank0
  2323  0E70  1303               	bcf	3,6	;RP1=0, select bank0
  2324  0E71  0185               	clrf	5	;volatile
  2325                           
  2326                           ;Principal_Master.c: 115:     PORTB = 0;
  2327  0E72  0186               	clrf	6	;volatile
  2328                           
  2329                           ;Principal_Master.c: 116:     PORTC = 0;
  2330  0E73  0187               	clrf	7	;volatile
  2331                           
  2332                           ;Principal_Master.c: 117:     PORTD = 0;
  2333  0E74  0188               	clrf	8	;volatile
  2334  0E75                     l3501:
  2335                           
  2336                           ;Principal_Master.c: 118:     PORTE = 0x07;
  2337  0E75  3007               	movlw	7
  2338  0E76  0089               	movwf	9	;volatile
  2339  0E77                     l3503:
  2340                           
  2341                           ;Principal_Master.c: 120:     TRISA = 0;
  2342  0E77  1683               	bsf	3,5	;RP0=1, select bank1
  2343  0E78  1303               	bcf	3,6	;RP1=0, select bank1
  2344  0E79  0185               	clrf	5	;volatile
  2345  0E7A                     l3505:
  2346                           
  2347                           ;Principal_Master.c: 121:     TRISD = 0;
  2348  0E7A  0188               	clrf	8	;volatile
  2349  0E7B                     l3507:
  2350                           
  2351                           ;Principal_Master.c: 122:     TRISB = 0;
  2352  0E7B  0186               	clrf	6	;volatile
  2353                           
  2354                           ;Principal_Master.c: 123:     TRISC = 0b00010000;
  2355  0E7C  3010               	movlw	16
  2356  0E7D  0087               	movwf	7	;volatile
  2357  0E7E                     l3509:
  2358                           
  2359                           ;Principal_Master.c: 124:     TRISCbits.TRISC6 = 0;
  2360  0E7E  1307               	bcf	7,6	;volatile
  2361  0E7F                     l3511:
  2362                           
  2363                           ;Principal_Master.c: 125:     TRISCbits.TRISC7 = 1;
  2364  0E7F  1787               	bsf	7,7	;volatile
  2365  0E80                     l3513:
  2366                           
  2367                           ;Principal_Master.c: 126:     TRISE = 0;
  2368  0E80  0189               	clrf	9	;volatile
  2369  0E81                     l3515:
  2370                           
  2371                           ;Principal_Master.c: 128:     ANSEL = 0;
  2372  0E81  1683               	bsf	3,5	;RP0=1, select bank3
  2373  0E82  1703               	bsf	3,6	;RP1=1, select bank3
  2374  0E83  0188               	clrf	8	;volatile
  2375  0E84                     l3517:
  2376                           
  2377                           ;Principal_Master.c: 129:     ANSELH = 0;
  2378  0E84  0189               	clrf	9	;volatile
  2379  0E85                     l3519:
  2380                           
  2381                           ;Principal_Master.c: 131:     SPBRG = 25;
  2382  0E85  3019               	movlw	25
  2383  0E86  1683               	bsf	3,5	;RP0=1, select bank1
  2384  0E87  1303               	bcf	3,6	;RP1=0, select bank1
  2385  0E88  0099               	movwf	25	;volatile
  2386  0E89                     l3521:
  2387                           
  2388                           ;Principal_Master.c: 132:     TXSTAbits.BRGH = 1;
  2389  0E89  1518               	bsf	24,2	;volatile
  2390  0E8A                     l3523:
  2391                           
  2392                           ;Principal_Master.c: 133:     BAUDCTLbits.BRG16 = 0;
  2393  0E8A  1683               	bsf	3,5	;RP0=1, select bank3
  2394  0E8B  1703               	bsf	3,6	;RP1=1, select bank3
  2395  0E8C  1187               	bcf	7,3	;volatile
  2396                           
  2397                           ;Principal_Master.c: 134:     SPBRGH = 0;
  2398  0E8D  1683               	bsf	3,5	;RP0=1, select bank1
  2399  0E8E  1303               	bcf	3,6	;RP1=0, select bank1
  2400  0E8F  019A               	clrf	26	;volatile
  2401  0E90                     l3525:
  2402                           
  2403                           ;Principal_Master.c: 136:     TXSTAbits.SYNC = 0;
  2404  0E90  1218               	bcf	24,4	;volatile
  2405  0E91                     l3527:
  2406                           
  2407                           ;Principal_Master.c: 137:     RCSTAbits.SPEN = 1;
  2408  0E91  1283               	bcf	3,5	;RP0=0, select bank0
  2409  0E92  1303               	bcf	3,6	;RP1=0, select bank0
  2410  0E93  1798               	bsf	24,7	;volatile
  2411  0E94                     l3529:
  2412                           
  2413                           ;Principal_Master.c: 138:     TXSTAbits.TX9 = 0;
  2414  0E94  1683               	bsf	3,5	;RP0=1, select bank1
  2415  0E95  1303               	bcf	3,6	;RP1=0, select bank1
  2416  0E96  1318               	bcf	24,6	;volatile
  2417  0E97                     l3531:
  2418                           
  2419                           ;Principal_Master.c: 139:     TXSTAbits.TXEN = 1;
  2420  0E97  1698               	bsf	24,5	;volatile
  2421  0E98                     l3533:
  2422                           
  2423                           ;Principal_Master.c: 141:     PIE1bits.RCIE = 1;
  2424  0E98  168C               	bsf	12,5	;volatile
  2425  0E99                     l3535:
  2426                           
  2427                           ;Principal_Master.c: 142:     RCSTAbits.RX9 = 0;
  2428  0E99  1283               	bcf	3,5	;RP0=0, select bank0
  2429  0E9A  1303               	bcf	3,6	;RP1=0, select bank0
  2430  0E9B  1318               	bcf	24,6	;volatile
  2431  0E9C                     l3537:
  2432                           
  2433                           ;Principal_Master.c: 143:     RCSTAbits.CREN = 1;
  2434  0E9C  1618               	bsf	24,4	;volatile
  2435  0E9D                     l3539:
  2436                           
  2437                           ;Principal_Master.c: 145:     SSPCONbits.SSPEN = 0;
  2438  0E9D  1294               	bcf	20,5	;volatile
  2439                           
  2440                           ;Principal_Master.c: 146:     SSPSTAT = 0X00;
  2441  0E9E  1683               	bsf	3,5	;RP0=1, select bank1
  2442  0E9F  1303               	bcf	3,6	;RP1=0, select bank1
  2443  0EA0  0194               	clrf	20	;volatile
  2444  0EA1                     l3541:
  2445                           
  2446                           ;Principal_Master.c: 147:     SSPCON= 0X11;
  2447  0EA1  3011               	movlw	17
  2448  0EA2  1283               	bcf	3,5	;RP0=0, select bank0
  2449  0EA3  1303               	bcf	3,6	;RP1=0, select bank0
  2450  0EA4  0094               	movwf	20	;volatile
  2451  0EA5                     l3543:
  2452                           
  2453                           ;Principal_Master.c: 148:     SSPCONbits.SSPEN = 1;
  2454  0EA5  1694               	bsf	20,5	;volatile
  2455  0EA6                     l3545:
  2456                           
  2457                           ;Principal_Master.c: 150:     INTCONbits.GIE = 1;
  2458  0EA6  178B               	bsf	11,7	;volatile
  2459  0EA7                     l3547:
  2460                           
  2461                           ;Principal_Master.c: 151:     INTCONbits.PEIE = 1;
  2462  0EA7  170B               	bsf	11,6	;volatile
  2463  0EA8                     l3549:
  2464                           
  2465                           ;Principal_Master.c: 152:     PIE1bits.TXIE = 1;
  2466  0EA8  1683               	bsf	3,5	;RP0=1, select bank1
  2467  0EA9  1303               	bcf	3,6	;RP1=0, select bank1
  2468  0EAA  160C               	bsf	12,4	;volatile
  2469  0EAB                     l3551:
  2470                           
  2471                           ;Principal_Master.c: 154:     CONFIG_USART();
  2472  0EAB  160A  118A  26DA  120A  158A  	fcall	_CONFIG_USART
  2473  0EB0                     l3553:
  2474                           
  2475                           ;Principal_Master.c: 156:     Lcd_Init();
  2476  0EB0  120A  118A  27E6  120A  158A  	fcall	_Lcd_Init
  2477  0EB5                     l3555:
  2478                           
  2479                           ;Principal_Master.c: 158:     Lcd_Set_Cursor(1,1);
  2480  0EB5  1283               	bcf	3,5	;RP0=0, select bank0
  2481  0EB6  1303               	bcf	3,6	;RP1=0, select bank0
  2482  0EB7  01BE               	clrf	Lcd_Set_Cursor@b
  2483  0EB8  0ABE               	incf	Lcd_Set_Cursor@b,f
  2484  0EB9  3001               	movlw	1
  2485  0EBA  120A  118A  27C0  120A  158A  	fcall	_Lcd_Set_Cursor
  2486  0EBF                     l3557:
  2487                           
  2488                           ;Principal_Master.c: 159:     Lcd_Write_String("POT");
  2489  0EBF  30FE               	movlw	low (STR_1| (0+32768))
  2490  0EC0  1283               	bcf	3,5	;RP0=0, select bank0
  2491  0EC1  1303               	bcf	3,6	;RP1=0, select bank0
  2492  0EC2  00BD               	movwf	Lcd_Write_String@a
  2493  0EC3  308B               	movlw	high (STR_1| (0+32768))
  2494  0EC4  00BE               	movwf	Lcd_Write_String@a+1
  2495  0EC5  160A  118A  27BA  120A  158A  	fcall	_Lcd_Write_String
  2496  0ECA                     l3559:
  2497                           
  2498                           ;Principal_Master.c: 161:     Lcd_Set_Cursor(1,7);
  2499  0ECA  3007               	movlw	7
  2500  0ECB  1283               	bcf	3,5	;RP0=0, select bank0
  2501  0ECC  1303               	bcf	3,6	;RP1=0, select bank0
  2502  0ECD  00C4               	movwf	??_SETUP
  2503  0ECE  0844               	movf	??_SETUP,w
  2504  0ECF  00BE               	movwf	Lcd_Set_Cursor@b
  2505  0ED0  3001               	movlw	1
  2506  0ED1  120A  118A  27C0  120A  158A  	fcall	_Lcd_Set_Cursor
  2507  0ED6                     l3561:
  2508                           
  2509                           ;Principal_Master.c: 162:     Lcd_Write_String("CONT");
  2510  0ED6  3005               	movlw	low (STR_2| (0+32768))
  2511  0ED7  1283               	bcf	3,5	;RP0=0, select bank0
  2512  0ED8  1303               	bcf	3,6	;RP1=0, select bank0
  2513  0ED9  00BD               	movwf	Lcd_Write_String@a
  2514  0EDA  3088               	movlw	high (STR_2| (0+32768))
  2515  0EDB  00BE               	movwf	Lcd_Write_String@a+1
  2516  0EDC  160A  118A  27BA  120A  158A  	fcall	_Lcd_Write_String
  2517  0EE1                     l3563:
  2518                           
  2519                           ;Principal_Master.c: 164:     Lcd_Set_Cursor(1,13);
  2520  0EE1  300D               	movlw	13
  2521  0EE2  1283               	bcf	3,5	;RP0=0, select bank0
  2522  0EE3  1303               	bcf	3,6	;RP1=0, select bank0
  2523  0EE4  00C4               	movwf	??_SETUP
  2524  0EE5  0844               	movf	??_SETUP,w
  2525  0EE6  00BE               	movwf	Lcd_Set_Cursor@b
  2526  0EE7  3001               	movlw	1
  2527  0EE8  120A  118A  27C0  120A  158A  	fcall	_Lcd_Set_Cursor
  2528  0EED                     l3565:
  2529                           
  2530                           ;Principal_Master.c: 165:     Lcd_Write_String("TEMP");
  2531  0EED  3000               	movlw	low (STR_3| (0+32768))
  2532  0EEE  1283               	bcf	3,5	;RP0=0, select bank0
  2533  0EEF  1303               	bcf	3,6	;RP1=0, select bank0
  2534  0EF0  00BD               	movwf	Lcd_Write_String@a
  2535  0EF1  3088               	movlw	high (STR_3| (0+32768))
  2536  0EF2  00BE               	movwf	Lcd_Write_String@a+1
  2537  0EF3  160A  118A  27BA  120A  158A  	fcall	_Lcd_Write_String
  2538  0EF8                     l171:
  2539  0EF8  0008               	return
  2540  0EF9                     __end_of_SETUP:
  2541                           
  2542                           	psect	text2
  2543  07E6                     __ptext2:	
  2544 ;; *************** function _Lcd_Init *****************
  2545 ;; Defined at:
  2546 ;;		line 42 in file "LCD.c"
  2547 ;; Parameters:    Size  Location     Type
  2548 ;;		None
  2549 ;; Auto vars:     Size  Location     Type
  2550 ;;		None
  2551 ;; Return value:  Size  Location     Type
  2552 ;;                  1    wreg      void 
  2553 ;; Registers used:
  2554 ;;		wreg, status,2, status,0, pclath, cstack
  2555 ;; Tracked objects:
  2556 ;;		On entry : 0/0
  2557 ;;		On exit  : 0/0
  2558 ;;		Unchanged: 0/0
  2559 ;; Data sizes:     COMMON   BANK0   BANK1   BANK3   BANK2
  2560 ;;      Params:         0       0       0       0       0
  2561 ;;      Locals:         0       0       0       0       0
  2562 ;;      Temps:          0       0       0       0       0
  2563 ;;      Totals:         0       0       0       0       0
  2564 ;;Total ram usage:        0 bytes
  2565 ;; Hardware stack levels used:    1
  2566 ;; Hardware stack levels required when called:    6
  2567 ;; This function calls:
  2568 ;;		_Lcd_Cmd
  2569 ;; This function is called by:
  2570 ;;		_SETUP
  2571 ;; This function uses a non-reentrant model
  2572 ;;
  2573                           
  2574                           
  2575                           ;psect for function _Lcd_Init
  2576  07E6                     _Lcd_Init:
  2577  07E6                     l3345:	
  2578                           ;incstack = 0
  2579                           ; Regs used in _Lcd_Init: [wreg+status,2+status,0+pclath+cstack]
  2580                           
  2581                           
  2582                           ;LCD.c: 44:     Lcd_Cmd(0x38);
  2583  07E6  3038               	movlw	56
  2584  07E7  160A  118A  2721  120A  118A  	fcall	_Lcd_Cmd
  2585                           
  2586                           ;LCD.c: 45:     Lcd_Cmd(0x0C);
  2587  07EC  300C               	movlw	12
  2588  07ED  160A  118A  2721  120A  118A  	fcall	_Lcd_Cmd
  2589                           
  2590                           ;LCD.c: 46:     Lcd_Cmd(0x06);
  2591  07F2  3006               	movlw	6
  2592  07F3  160A  118A  2721  120A  118A  	fcall	_Lcd_Cmd
  2593                           
  2594                           ;LCD.c: 47:     Lcd_Cmd(0x80);
  2595  07F8  3080               	movlw	128
  2596  07F9  160A  118A  2721  120A  118A  	fcall	_Lcd_Cmd
  2597  07FE                     l233:
  2598  07FE  0008               	return
  2599  07FF                     __end_of_Lcd_Init:
  2600                           
  2601                           	psect	text3
  2602  16DA                     __ptext3:	
  2603 ;; *************** function _CONFIG_USART *****************
  2604 ;; Defined at:
  2605 ;;		line 7 in file "USART.c"
  2606 ;; Parameters:    Size  Location     Type
  2607 ;;		None
  2608 ;; Auto vars:     Size  Location     Type
  2609 ;;		None
  2610 ;; Return value:  Size  Location     Type
  2611 ;;                  1    wreg      void 
  2612 ;; Registers used:
  2613 ;;		wreg, status,2
  2614 ;; Tracked objects:
  2615 ;;		On entry : 0/0
  2616 ;;		On exit  : 0/0
  2617 ;;		Unchanged: 0/0
  2618 ;; Data sizes:     COMMON   BANK0   BANK1   BANK3   BANK2
  2619 ;;      Params:         0       0       0       0       0
  2620 ;;      Locals:         0       0       0       0       0
  2621 ;;      Temps:          0       0       0       0       0
  2622 ;;      Totals:         0       0       0       0       0
  2623 ;;Total ram usage:        0 bytes
  2624 ;; Hardware stack levels used:    1
  2625 ;; Hardware stack levels required when called:    4
  2626 ;; This function calls:
  2627 ;;		Nothing
  2628 ;; This function is called by:
  2629 ;;		_SETUP
  2630 ;; This function uses a non-reentrant model
  2631 ;;
  2632                           
  2633                           
  2634                           ;psect for function _CONFIG_USART
  2635  16DA                     _CONFIG_USART:
  2636  16DA                     l3331:	
  2637                           ;incstack = 0
  2638                           ; Regs used in _CONFIG_USART: [wreg+status,2]
  2639                           
  2640                           
  2641                           ;USART.c: 8:     TRISCbits.TRISC6 = 0;
  2642  16DA  1683               	bsf	3,5	;RP0=1, select bank1
  2643  16DB  1303               	bcf	3,6	;RP1=0, select bank1
  2644  16DC  1307               	bcf	7,6	;volatile
  2645                           
  2646                           ;USART.c: 9:     TRISCbits.TRISC7 = 1;
  2647  16DD  1787               	bsf	7,7	;volatile
  2648                           
  2649                           ;USART.c: 11:     TXSTAbits.TX9 = 0;
  2650  16DE  1318               	bcf	24,6	;volatile
  2651                           
  2652                           ;USART.c: 12:     TXSTAbits.SYNC = 0;
  2653  16DF  1218               	bcf	24,4	;volatile
  2654                           
  2655                           ;USART.c: 13:     TXSTAbits.BRGH = 0;
  2656  16E0  1118               	bcf	24,2	;volatile
  2657                           
  2658                           ;USART.c: 14:     BAUDCTLbits.BRG16 = 0;
  2659  16E1  1683               	bsf	3,5	;RP0=1, select bank3
  2660  16E2  1703               	bsf	3,6	;RP1=1, select bank3
  2661  16E3  1187               	bcf	7,3	;volatile
  2662  16E4                     l3333:
  2663                           
  2664                           ;USART.c: 15:     SPBRG = 51;
  2665  16E4  3033               	movlw	51
  2666  16E5  1683               	bsf	3,5	;RP0=1, select bank1
  2667  16E6  1303               	bcf	3,6	;RP1=0, select bank1
  2668  16E7  0099               	movwf	25	;volatile
  2669  16E8                     l3335:
  2670                           
  2671                           ;USART.c: 17:     SPBRGH = 0;
  2672  16E8  019A               	clrf	26	;volatile
  2673  16E9                     l3337:
  2674                           
  2675                           ;USART.c: 18:     TXSTAbits.TXEN = 1;
  2676  16E9  1698               	bsf	24,5	;volatile
  2677  16EA                     l3339:
  2678                           
  2679                           ;USART.c: 19:     RCSTAbits.SPEN = 1;
  2680  16EA  1283               	bcf	3,5	;RP0=0, select bank0
  2681  16EB  1303               	bcf	3,6	;RP1=0, select bank0
  2682  16EC  1798               	bsf	24,7	;volatile
  2683  16ED                     l3341:
  2684                           
  2685                           ;USART.c: 20:     RCSTAbits.RX9 = 0;
  2686  16ED  1318               	bcf	24,6	;volatile
  2687  16EE                     l3343:
  2688                           
  2689                           ;USART.c: 21:     RCSTAbits.CREN = 1;
  2690  16EE  1618               	bsf	24,4	;volatile
  2691  16EF                     l524:
  2692  16EF  0008               	return
  2693  16F0                     __end_of_CONFIG_USART:
  2694                           
  2695                           	psect	text4
  2696  0C07                     __ptext4:	
  2697 ;; *************** function _LEER_S3 *****************
  2698 ;; Defined at:
  2699 ;;		line 209 in file "Principal_Master.c"
  2700 ;; Parameters:    Size  Location     Type
  2701 ;;		None
  2702 ;; Auto vars:     Size  Location     Type
  2703 ;;		None
  2704 ;; Return value:  Size  Location     Type
  2705 ;;                  1    wreg      void 
  2706 ;; Registers used:
  2707 ;;		wreg, pclath, cstack
  2708 ;; Tracked objects:
  2709 ;;		On entry : 0/0
  2710 ;;		On exit  : 0/0
  2711 ;;		Unchanged: 0/0
  2712 ;; Data sizes:     COMMON   BANK0   BANK1   BANK3   BANK2
  2713 ;;      Params:         0       0       0       0       0
  2714 ;;      Locals:         0       0       0       0       0
  2715 ;;      Temps:          0       2       0       0       0
  2716 ;;      Totals:         0       2       0       0       0
  2717 ;;Total ram usage:        2 bytes
  2718 ;; Hardware stack levels used:    1
  2719 ;; Hardware stack levels required when called:    5
  2720 ;; This function calls:
  2721 ;;		_READ_SPI
  2722 ;; This function is called by:
  2723 ;;		_main
  2724 ;; This function uses a non-reentrant model
  2725 ;;
  2726                           
  2727                           
  2728                           ;psect for function _LEER_S3
  2729  0C07                     _LEER_S3:
  2730  0C07                     l5131:	
  2731                           ;incstack = 0
  2732                           ; Regs used in _LEER_S3: [wreg+pclath+cstack]
  2733                           
  2734                           
  2735                           ;Principal_Master.c: 211:     PORTEbits.RE2 =0;
  2736  0C07  1283               	bcf	3,5	;RP0=0, select bank0
  2737  0C08  1303               	bcf	3,6	;RP1=0, select bank0
  2738  0C09  1109               	bcf	9,2	;volatile
  2739  0C0A                     l5133:
  2740                           
  2741                           ;Principal_Master.c: 213:     TEMPERATURA = READ_SPI (contador);
  2742  0C0A  3000               	movlw	0
  2743  0C0B  160A  118A  26CA  120A  158A  	fcall	_READ_SPI
  2744  0C10  1283               	bcf	3,5	;RP0=0, select bank0
  2745  0C11  1303               	bcf	3,6	;RP1=0, select bank0
  2746  0C12  00BC               	movwf	??_LEER_S3
  2747  0C13  083C               	movf	??_LEER_S3,w
  2748  0C14  00AF               	movwf	_TEMPERATURA
  2749  0C15                     l5135:
  2750                           
  2751                           ;Principal_Master.c: 214:     _delay((unsigned long)((2)*(8000000/4000.0)));
  2752  0C15  3006               	movlw	6
  2753  0C16  1283               	bcf	3,5	;RP0=0, select bank0
  2754  0C17  1303               	bcf	3,6	;RP1=0, select bank0
  2755  0C18  00BD               	movwf	??_LEER_S3+1
  2756  0C19  302F               	movlw	47
  2757  0C1A  00BC               	movwf	??_LEER_S3
  2758  0C1B                     u577:
  2759  0C1B  0BBC               	decfsz	??_LEER_S3,f
  2760  0C1C  2C1B               	goto	u577
  2761  0C1D  0BBD               	decfsz	??_LEER_S3+1,f
  2762  0C1E  2C1B               	goto	u577
  2763  0C1F  2C20               	nop2
  2764  0C20                     l5137:
  2765                           
  2766                           ;Principal_Master.c: 216:     PORTEbits.RE2 =1;
  2767  0C20  1283               	bcf	3,5	;RP0=0, select bank0
  2768  0C21  1303               	bcf	3,6	;RP1=0, select bank0
  2769  0C22  1509               	bsf	9,2	;volatile
  2770  0C23                     l183:
  2771  0C23  0008               	return
  2772  0C24                     __end_of_LEER_S3:
  2773                           
  2774                           	psect	text5
  2775  1759                     __ptext5:	
  2776 ;; *************** function _LEER_S2 *****************
  2777 ;; Defined at:
  2778 ;;		line 197 in file "Principal_Master.c"
  2779 ;; Parameters:    Size  Location     Type
  2780 ;;		None
  2781 ;; Auto vars:     Size  Location     Type
  2782 ;;		None
  2783 ;; Return value:  Size  Location     Type
  2784 ;;                  1    wreg      void 
  2785 ;; Registers used:
  2786 ;;		wreg, pclath, cstack
  2787 ;; Tracked objects:
  2788 ;;		On entry : 0/0
  2789 ;;		On exit  : 0/0
  2790 ;;		Unchanged: 0/0
  2791 ;; Data sizes:     COMMON   BANK0   BANK1   BANK3   BANK2
  2792 ;;      Params:         0       0       0       0       0
  2793 ;;      Locals:         0       0       0       0       0
  2794 ;;      Temps:          0       2       0       0       0
  2795 ;;      Totals:         0       2       0       0       0
  2796 ;;Total ram usage:        2 bytes
  2797 ;; Hardware stack levels used:    1
  2798 ;; Hardware stack levels required when called:    5
  2799 ;; This function calls:
  2800 ;;		_READ_SPI
  2801 ;; This function is called by:
  2802 ;;		_main
  2803 ;; This function uses a non-reentrant model
  2804 ;;
  2805                           
  2806                           
  2807                           ;psect for function _LEER_S2
  2808  1759                     _LEER_S2:
  2809  1759                     l5123:	
  2810                           ;incstack = 0
  2811                           ; Regs used in _LEER_S2: [wreg+pclath+cstack]
  2812                           
  2813                           
  2814                           ;Principal_Master.c: 199:     PORTEbits.RE1 =0;
  2815  1759  1283               	bcf	3,5	;RP0=0, select bank0
  2816  175A  1303               	bcf	3,6	;RP1=0, select bank0
  2817  175B  1089               	bcf	9,1	;volatile
  2818  175C                     l5125:
  2819                           
  2820                           ;Principal_Master.c: 201:     CONT = READ_SPI (contador);
  2821  175C  3000               	movlw	0
  2822  175D  160A  118A  26CA  160A  118A  	fcall	_READ_SPI
  2823  1762  1283               	bcf	3,5	;RP0=0, select bank0
  2824  1763  1303               	bcf	3,6	;RP1=0, select bank0
  2825  1764  00BC               	movwf	??_LEER_S2
  2826  1765  083C               	movf	??_LEER_S2,w
  2827  1766  00B0               	movwf	_CONT
  2828  1767                     l5127:
  2829                           
  2830                           ;Principal_Master.c: 202:       _delay((unsigned long)((2)*(8000000/4000.0)));
  2831  1767  3006               	movlw	6
  2832  1768  1283               	bcf	3,5	;RP0=0, select bank0
  2833  1769  1303               	bcf	3,6	;RP1=0, select bank0
  2834  176A  00BD               	movwf	??_LEER_S2+1
  2835  176B  302F               	movlw	47
  2836  176C  00BC               	movwf	??_LEER_S2
  2837  176D                     u587:
  2838  176D  0BBC               	decfsz	??_LEER_S2,f
  2839  176E  2F6D               	goto	u587
  2840  176F  0BBD               	decfsz	??_LEER_S2+1,f
  2841  1770  2F6D               	goto	u587
  2842  1771  2F72               	nop2
  2843  1772                     l5129:
  2844                           
  2845                           ;Principal_Master.c: 204:     PORTEbits.RE1 =1;
  2846  1772  1283               	bcf	3,5	;RP0=0, select bank0
  2847  1773  1303               	bcf	3,6	;RP1=0, select bank0
  2848  1774  1489               	bsf	9,1	;volatile
  2849  1775                     l180:
  2850  1775  0008               	return
  2851  1776                     __end_of_LEER_S2:
  2852                           
  2853                           	psect	text6
  2854  173C                     __ptext6:	
  2855 ;; *************** function _LEER_S1 *****************
  2856 ;; Defined at:
  2857 ;;		line 184 in file "Principal_Master.c"
  2858 ;; Parameters:    Size  Location     Type
  2859 ;;		None
  2860 ;; Auto vars:     Size  Location     Type
  2861 ;;		None
  2862 ;; Return value:  Size  Location     Type
  2863 ;;                  1    wreg      void 
  2864 ;; Registers used:
  2865 ;;		wreg, pclath, cstack
  2866 ;; Tracked objects:
  2867 ;;		On entry : 0/0
  2868 ;;		On exit  : 0/0
  2869 ;;		Unchanged: 0/0
  2870 ;; Data sizes:     COMMON   BANK0   BANK1   BANK3   BANK2
  2871 ;;      Params:         0       0       0       0       0
  2872 ;;      Locals:         0       0       0       0       0
  2873 ;;      Temps:          0       2       0       0       0
  2874 ;;      Totals:         0       2       0       0       0
  2875 ;;Total ram usage:        2 bytes
  2876 ;; Hardware stack levels used:    1
  2877 ;; Hardware stack levels required when called:    5
  2878 ;; This function calls:
  2879 ;;		_READ_SPI
  2880 ;; This function is called by:
  2881 ;;		_main
  2882 ;; This function uses a non-reentrant model
  2883 ;;
  2884                           
  2885                           
  2886                           ;psect for function _LEER_S1
  2887  173C                     _LEER_S1:
  2888  173C                     l3567:	
  2889                           ;incstack = 0
  2890                           ; Regs used in _LEER_S1: [wreg+pclath+cstack]
  2891                           
  2892                           
  2893                           ;Principal_Master.c: 186:     PORTEbits.RE0 =0;
  2894  173C  1283               	bcf	3,5	;RP0=0, select bank0
  2895  173D  1303               	bcf	3,6	;RP1=0, select bank0
  2896  173E  1009               	bcf	9,0	;volatile
  2897  173F                     l3569:
  2898                           
  2899                           ;Principal_Master.c: 188:      POTENCIOMETRO = READ_SPI (contador);
  2900  173F  3000               	movlw	0
  2901  1740  160A  118A  26CA  160A  118A  	fcall	_READ_SPI
  2902  1745  1283               	bcf	3,5	;RP0=0, select bank0
  2903  1746  1303               	bcf	3,6	;RP1=0, select bank0
  2904  1747  00BC               	movwf	??_LEER_S1
  2905  1748  083C               	movf	??_LEER_S1,w
  2906  1749  00B2               	movwf	_POTENCIOMETRO
  2907  174A                     l3571:
  2908                           
  2909                           ;Principal_Master.c: 189:       _delay((unsigned long)((2)*(8000000/4000.0)));
  2910  174A  3006               	movlw	6
  2911  174B  1283               	bcf	3,5	;RP0=0, select bank0
  2912  174C  1303               	bcf	3,6	;RP1=0, select bank0
  2913  174D  00BD               	movwf	??_LEER_S1+1
  2914  174E  302F               	movlw	47
  2915  174F  00BC               	movwf	??_LEER_S1
  2916  1750                     u597:
  2917  1750  0BBC               	decfsz	??_LEER_S1,f
  2918  1751  2F50               	goto	u597
  2919  1752  0BBD               	decfsz	??_LEER_S1+1,f
  2920  1753  2F50               	goto	u597
  2921  1754  2F55               	nop2
  2922  1755                     l3573:
  2923                           
  2924                           ;Principal_Master.c: 191:      PORTEbits.RE0 =1;
  2925  1755  1283               	bcf	3,5	;RP0=0, select bank0
  2926  1756  1303               	bcf	3,6	;RP1=0, select bank0
  2927  1757  1409               	bsf	9,0	;volatile
  2928  1758                     l177:
  2929  1758  0008               	return
  2930  1759                     __end_of_LEER_S1:
  2931                           
  2932                           	psect	text7
  2933  16CA                     __ptext7:	
  2934 ;; *************** function _READ_SPI *****************
  2935 ;; Defined at:
  2936 ;;		line 33 in file "SPI_Master.c"
  2937 ;; Parameters:    Size  Location     Type
  2938 ;;  data            1    wreg     unsigned char 
  2939 ;; Auto vars:     Size  Location     Type
  2940 ;;  data            1    6[BANK0 ] unsigned char 
  2941 ;;  dummy           1    0        unsigned char 
  2942 ;; Return value:  Size  Location     Type
  2943 ;;                  1    wreg      unsigned char 
  2944 ;; Registers used:
  2945 ;;		wreg
  2946 ;; Tracked objects:
  2947 ;;		On entry : 0/0
  2948 ;;		On exit  : 0/0
  2949 ;;		Unchanged: 0/0
  2950 ;; Data sizes:     COMMON   BANK0   BANK1   BANK3   BANK2
  2951 ;;      Params:         0       0       0       0       0
  2952 ;;      Locals:         0       2       0       0       0
  2953 ;;      Temps:          0       0       0       0       0
  2954 ;;      Totals:         0       2       0       0       0
  2955 ;;Total ram usage:        2 bytes
  2956 ;; Hardware stack levels used:    1
  2957 ;; Hardware stack levels required when called:    4
  2958 ;; This function calls:
  2959 ;;		Nothing
  2960 ;; This function is called by:
  2961 ;;		_LEER_S1
  2962 ;;		_LEER_S2
  2963 ;;		_LEER_S3
  2964 ;; This function uses a non-reentrant model
  2965 ;;
  2966                           
  2967                           
  2968                           ;psect for function _READ_SPI
  2969  16CA                     _READ_SPI:
  2970                           
  2971                           ;incstack = 0
  2972                           ; Regs used in _READ_SPI: [wreg]
  2973                           ;READ_SPI@data stored from wreg
  2974  16CA  1283               	bcf	3,5	;RP0=0, select bank0
  2975  16CB  1303               	bcf	3,6	;RP1=0, select bank0
  2976  16CC  00BB               	movwf	READ_SPI@data
  2977  16CD                     l3325:
  2978  16CD  0813               	movf	19,w	;volatile
  2979                           
  2980                           ;SPI_Master.c: 36:     SSPBUF = data;
  2981  16CE  083B               	movf	READ_SPI@data,w
  2982  16CF  0093               	movwf	19	;volatile
  2983  16D0                     l27:	
  2984                           ;SPI_Master.c: 37:      while ( !SSPSTATbits.BF );
  2985                           
  2986  16D0  1683               	bsf	3,5	;RP0=1, select bank1
  2987  16D1  1303               	bcf	3,6	;RP1=0, select bank1
  2988  16D2  1C14               	btfss	20,0	;volatile
  2989  16D3  2ED5               	goto	u471
  2990  16D4  2ED6               	goto	u470
  2991  16D5                     u471:
  2992  16D5  2ED0               	goto	l27
  2993  16D6                     u470:
  2994  16D6                     l3327:
  2995                           
  2996                           ;SPI_Master.c: 39:   return(SSPBUF);
  2997  16D6  1283               	bcf	3,5	;RP0=0, select bank0
  2998  16D7  1303               	bcf	3,6	;RP1=0, select bank0
  2999  16D8  0813               	movf	19,w	;volatile
  3000  16D9                     l30:
  3001  16D9  0008               	return
  3002  16DA                     __end_of_READ_SPI:
  3003                           
  3004                           	psect	text8
  3005  1776                     __ptext8:	
  3006 ;; *************** function _LCD *****************
  3007 ;; Defined at:
  3008 ;;		line 169 in file "Principal_Master.c"
  3009 ;; Parameters:    Size  Location     Type
  3010 ;;		None
  3011 ;; Auto vars:     Size  Location     Type
  3012 ;;		None
  3013 ;; Return value:  Size  Location     Type
  3014 ;;                  1    wreg      void 
  3015 ;; Registers used:
  3016 ;;		wreg, fsr0l, fsr0h, status,2, status,0, btemp+1, pclath, cstack
  3017 ;; Tracked objects:
  3018 ;;		On entry : 0/0
  3019 ;;		On exit  : 0/0
  3020 ;;		Unchanged: 0/0
  3021 ;; Data sizes:     COMMON   BANK0   BANK1   BANK3   BANK2
  3022 ;;      Params:         0       0       0       0       0
  3023 ;;      Locals:         0       0       0       0       0
  3024 ;;      Temps:          0       1       0       0       0
  3025 ;;      Totals:         0       1       0       0       0
  3026 ;;Total ram usage:        1 bytes
  3027 ;; Hardware stack levels used:    1
  3028 ;; Hardware stack levels required when called:    7
  3029 ;; This function calls:
  3030 ;;		_Lcd_Set_Cursor
  3031 ;;		_Lcd_Write_String
  3032 ;; This function is called by:
  3033 ;;		_main
  3034 ;; This function uses a non-reentrant model
  3035 ;;
  3036                           
  3037                           
  3038                           ;psect for function _LCD
  3039  1776                     _LCD:
  3040  1776                     l5139:	
  3041                           ;incstack = 0
  3042                           ; Regs used in _LCD: [wreg-fsr0h+status,2+status,0+btemp+1+pclath+cstack]
  3043                           
  3044                           
  3045                           ;Principal_Master.c: 172:     Lcd_Set_Cursor(2,13);
  3046  1776  300D               	movlw	13
  3047  1777  1283               	bcf	3,5	;RP0=0, select bank0
  3048  1778  1303               	bcf	3,6	;RP1=0, select bank0
  3049  1779  00C4               	movwf	??_LCD
  3050  177A  0844               	movf	??_LCD,w
  3051  177B  00BE               	movwf	Lcd_Set_Cursor@b
  3052  177C  3002               	movlw	2
  3053  177D  120A  118A  27C0  160A  118A  	fcall	_Lcd_Set_Cursor
  3054  1782                     l5141:
  3055                           
  3056                           ;Principal_Master.c: 173:     Lcd_Write_String(TEMP_r);
  3057  1782  1283               	bcf	3,5	;RP0=0, select bank0
  3058  1783  1303               	bcf	3,6	;RP1=0, select bank0
  3059  1784  0820               	movf	_TEMP_r,w
  3060  1785  00BD               	movwf	Lcd_Write_String@a
  3061  1786  0821               	movf	_TEMP_r+1,w
  3062  1787  00BE               	movwf	Lcd_Write_String@a+1
  3063  1788  160A  118A  27BA  160A  118A  	fcall	_Lcd_Write_String
  3064  178D                     l5143:
  3065                           
  3066                           ;Principal_Master.c: 175:     Lcd_Set_Cursor(2,7);
  3067  178D  3007               	movlw	7
  3068  178E  1283               	bcf	3,5	;RP0=0, select bank0
  3069  178F  1303               	bcf	3,6	;RP1=0, select bank0
  3070  1790  00C4               	movwf	??_LCD
  3071  1791  0844               	movf	??_LCD,w
  3072  1792  00BE               	movwf	Lcd_Set_Cursor@b
  3073  1793  3002               	movlw	2
  3074  1794  120A  118A  27C0  160A  118A  	fcall	_Lcd_Set_Cursor
  3075                           
  3076                           ;Principal_Master.c: 176:     Lcd_Write_String(CONT_r);
  3077  1799  1283               	bcf	3,5	;RP0=0, select bank0
  3078  179A  1303               	bcf	3,6	;RP1=0, select bank0
  3079  179B  0822               	movf	_CONT_r,w
  3080  179C  00BD               	movwf	Lcd_Write_String@a
  3081  179D  0823               	movf	_CONT_r+1,w
  3082  179E  00BE               	movwf	Lcd_Write_String@a+1
  3083  179F  160A  118A  27BA  160A  118A  	fcall	_Lcd_Write_String
  3084  17A4                     l5145:
  3085                           
  3086                           ;Principal_Master.c: 178:     Lcd_Set_Cursor(2,1);
  3087  17A4  1283               	bcf	3,5	;RP0=0, select bank0
  3088  17A5  1303               	bcf	3,6	;RP1=0, select bank0
  3089  17A6  01BE               	clrf	Lcd_Set_Cursor@b
  3090  17A7  0ABE               	incf	Lcd_Set_Cursor@b,f
  3091  17A8  3002               	movlw	2
  3092  17A9  120A  118A  27C0  160A  118A  	fcall	_Lcd_Set_Cursor
  3093  17AE                     l5147:
  3094                           
  3095                           ;Principal_Master.c: 179:     Lcd_Write_String(POT_r);
  3096  17AE  1283               	bcf	3,5	;RP0=0, select bank0
  3097  17AF  1303               	bcf	3,6	;RP1=0, select bank0
  3098  17B0  0824               	movf	_POT_r,w
  3099  17B1  00BD               	movwf	Lcd_Write_String@a
  3100  17B2  0825               	movf	_POT_r+1,w
  3101  17B3  00BE               	movwf	Lcd_Write_String@a+1
  3102  17B4  160A  118A  27BA  160A  118A  	fcall	_Lcd_Write_String
  3103  17B9                     l174:
  3104  17B9  0008               	return
  3105  17BA                     __end_of_LCD:
  3106                           
  3107                           	psect	text9
  3108  17BA                     __ptext9:	
  3109 ;; *************** function _Lcd_Write_String *****************
  3110 ;; Defined at:
  3111 ;;		line 60 in file "LCD.c"
  3112 ;; Parameters:    Size  Location     Type
  3113 ;;  a               2    8[BANK0 ] PTR unsigned char 
  3114 ;;		 -> NULL(0), STR_259(4), STR_258(4), STR_257(4), 
  3115 ;;		 -> STR_256(4), STR_255(4), STR_254(4), STR_253(4), 
  3116 ;;		 -> STR_252(4), STR_251(4), STR_250(4), STR_249(4), 
  3117 ;;		 -> STR_248(4), STR_247(4), STR_246(4), STR_245(4), 
  3118 ;;		 -> STR_244(4), STR_243(4), STR_242(4), STR_241(4), 
  3119 ;;		 -> STR_240(4), STR_239(4), STR_238(4), STR_237(4), 
  3120 ;;		 -> STR_236(4), STR_235(4), STR_234(4), STR_233(4), 
  3121 ;;		 -> STR_232(4), STR_231(4), STR_230(4), STR_229(4), 
  3122 ;;		 -> STR_228(4), STR_227(4), STR_226(4), STR_225(4), 
  3123 ;;		 -> STR_224(4), STR_223(4), STR_222(4), STR_221(4), 
  3124 ;;		 -> STR_220(4), STR_219(4), STR_218(4), STR_217(4), 
  3125 ;;		 -> STR_216(4), STR_215(4), STR_214(4), STR_213(4), 
  3126 ;;		 -> STR_212(4), STR_211(4), STR_210(4), STR_209(4), 
  3127 ;;		 -> STR_208(4), STR_207(4), STR_206(4), STR_205(4), 
  3128 ;;		 -> STR_204(3), STR_203(4), STR_202(4), STR_201(4), 
  3129 ;;		 -> STR_200(4), STR_199(4), STR_198(4), STR_197(4), 
  3130 ;;		 -> STR_196(4), STR_195(4), STR_194(4), STR_193(4), 
  3131 ;;		 -> STR_192(4), STR_191(4), STR_190(4), STR_189(4), 
  3132 ;;		 -> STR_188(4), STR_187(4), STR_186(4), STR_185(4), 
  3133 ;;		 -> STR_184(4), STR_183(4), STR_182(4), STR_181(4), 
  3134 ;;		 -> STR_180(4), STR_179(4), STR_178(4), STR_177(4), 
  3135 ;;		 -> STR_176(4), STR_175(4), STR_174(4), STR_173(4), 
  3136 ;;		 -> STR_172(4), STR_171(4), STR_170(4), STR_169(4), 
  3137 ;;		 -> STR_168(4), STR_167(4), STR_166(4), STR_165(4), 
  3138 ;;		 -> STR_164(4), STR_163(4), STR_162(4), STR_161(4), 
  3139 ;;		 -> STR_160(4), STR_159(4), STR_158(4), STR_157(2), 
  3140 ;;		 -> STR_156(2), STR_155(4), STR_154(4), STR_153(4), 
  3141 ;;		 -> STR_152(4), STR_151(4), STR_150(4), STR_149(4), 
  3142 ;;		 -> STR_148(4), STR_147(4), STR_146(4), STR_145(4), 
  3143 ;;		 -> STR_144(4), STR_143(4), STR_142(4), STR_141(4), 
  3144 ;;		 -> STR_140(4), STR_139(4), STR_138(4), STR_137(4), 
  3145 ;;		 -> STR_136(4), STR_135(4), STR_134(4), STR_133(4), 
  3146 ;;		 -> STR_132(4), STR_131(4), STR_130(4), STR_129(4), 
  3147 ;;		 -> STR_128(4), STR_127(4), STR_126(4), STR_125(4), 
  3148 ;;		 -> STR_124(4), STR_123(4), STR_122(4), STR_121(4), 
  3149 ;;		 -> STR_120(4), STR_119(4), STR_118(4), STR_117(4), 
  3150 ;;		 -> STR_116(4), STR_115(4), STR_114(4), STR_113(4), 
  3151 ;;		 -> STR_112(4), STR_111(4), STR_110(4), STR_109(4), 
  3152 ;;		 -> STR_108(4), STR_107(4), STR_106(4), STR_105(4), 
  3153 ;;		 -> STR_104(4), STR_103(4), STR_102(4), STR_101(4), 
  3154 ;;		 -> STR_100(4), STR_99(4), STR_98(4), STR_97(4), 
  3155 ;;		 -> STR_96(4), STR_95(4), STR_94(4), STR_93(4), 
  3156 ;;		 -> STR_92(4), STR_91(4), STR_90(4), STR_89(4), 
  3157 ;;		 -> STR_88(4), STR_87(4), STR_86(4), STR_85(4), 
  3158 ;;		 -> STR_84(4), STR_83(4), STR_82(4), STR_81(4), 
  3159 ;;		 -> STR_80(4), STR_79(4), STR_78(4), STR_77(4), 
  3160 ;;		 -> STR_76(4), STR_75(4), STR_74(4), STR_73(4), 
  3161 ;;		 -> STR_72(4), STR_71(4), STR_70(4), STR_69(4), 
  3162 ;;		 -> STR_68(4), STR_67(4), STR_66(4), STR_65(4), 
  3163 ;;		 -> STR_64(4), STR_63(4), STR_62(4), STR_61(4), 
  3164 ;;		 -> STR_60(4), STR_59(4), STR_58(4), STR_57(4), 
  3165 ;;		 -> STR_56(4), STR_55(4), STR_54(4), STR_53(4), 
  3166 ;;		 -> STR_52(4), STR_51(4), STR_50(4), STR_49(4), 
  3167 ;;		 -> STR_48(4), STR_47(4), STR_46(4), STR_45(4), 
  3168 ;;		 -> STR_44(4), STR_43(4), STR_42(4), STR_41(4), 
  3169 ;;		 -> STR_40(4), STR_39(4), STR_38(4), STR_37(4), 
  3170 ;;		 -> STR_36(4), STR_35(4), STR_34(4), STR_33(4), 
  3171 ;;		 -> STR_32(4), STR_31(4), STR_30(4), STR_29(4), 
  3172 ;;		 -> STR_28(4), STR_27(4), STR_26(4), STR_25(4), 
  3173 ;;		 -> STR_24(4), STR_23(4), STR_22(4), STR_21(4), 
  3174 ;;		 -> STR_20(4), STR_19(4), STR_18(4), STR_17(4), 
  3175 ;;		 -> STR_16(4), STR_15(4), STR_14(4), STR_13(4), 
  3176 ;;		 -> STR_12(4), STR_11(4), STR_10(4), STR_9(4), 
  3177 ;;		 -> STR_8(4), STR_7(4), STR_6(4), STR_5(4), 
  3178 ;;		 -> STR_4(4), STR_3(5), STR_2(5), STR_1(4), 
  3179 ;; Auto vars:     Size  Location     Type
  3180 ;;  i               2   13[BANK0 ] int 
  3181 ;; Return value:  Size  Location     Type
  3182 ;;                  1    wreg      void 
  3183 ;; Registers used:
  3184 ;;		wreg, fsr0l, fsr0h, status,2, status,0, btemp+1, pclath, cstack
  3185 ;; Tracked objects:
  3186 ;;		On entry : 0/0
  3187 ;;		On exit  : 0/0
  3188 ;;		Unchanged: 0/0
  3189 ;; Data sizes:     COMMON   BANK0   BANK1   BANK3   BANK2
  3190 ;;      Params:         0       2       0       0       0
  3191 ;;      Locals:         0       2       0       0       0
  3192 ;;      Temps:          0       3       0       0       0
  3193 ;;      Totals:         0       7       0       0       0
  3194 ;;Total ram usage:        7 bytes
  3195 ;; Hardware stack levels used:    1
  3196 ;; Hardware stack levels required when called:    6
  3197 ;; This function calls:
  3198 ;;		_Lcd_Write_Char
  3199 ;; This function is called by:
  3200 ;;		_SETUP
  3201 ;;		_LCD
  3202 ;; This function uses a non-reentrant model
  3203 ;;
  3204                           
  3205                           
  3206                           ;psect for function _Lcd_Write_String
  3207  17BA                     _Lcd_Write_String:
  3208  17BA                     l3359:	
  3209                           ;incstack = 0
  3210 ;; using string table level
  3211                           ; Regs used in _Lcd_Write_String: [wreg-fsr0h+status,2+status,0+btemp+1+pclath+cstack]
  3212                           
  3213                           
  3214                           ;LCD.c: 61:    int i;;LCD.c: 62:  for(i=0;a[i]!='\0';i++)
  3215  17BA  1283               	bcf	3,5	;RP0=0, select bank0
  3216  17BB  1303               	bcf	3,6	;RP1=0, select bank0
  3217  17BC  01C2               	clrf	Lcd_Write_String@i
  3218  17BD  01C3               	clrf	Lcd_Write_String@i+1
  3219  17BE  2FE3               	goto	l3365
  3220  17BF                     l3361:
  3221                           
  3222                           ;LCD.c: 63:     Lcd_Write_Char(a[i]);
  3223  17BF  0842               	movf	Lcd_Write_String@i,w
  3224  17C0  073D               	addwf	Lcd_Write_String@a,w
  3225  17C1  00C0               	movwf	??_Lcd_Write_String+1
  3226  17C2  083E               	movf	Lcd_Write_String@a+1,w
  3227  17C3  00BF               	movwf	??_Lcd_Write_String
  3228  17C4  1803               	skipnc
  3229  17C5  0ABF               	incf	??_Lcd_Write_String,f
  3230  17C6  1FC2               	btfss	Lcd_Write_String@i,7
  3231  17C7  2FC9               	goto	u500
  3232  17C8  03BF               	decf	??_Lcd_Write_String,f
  3233  17C9                     u500:
  3234  17C9  1283               	bcf	3,5	;RP0=0, select bank0
  3235  17CA  1303               	bcf	3,6	;RP1=0, select bank0
  3236  17CB  083F               	movf	??_Lcd_Write_String,w
  3237  17CC  00C1               	movwf	??_Lcd_Write_String+2
  3238  17CD  0841               	movf	??_Lcd_Write_String+2,w
  3239  17CE  00FF               	movwf	btemp+1
  3240  17CF  0840               	movf	??_Lcd_Write_String+1,w
  3241  17D0  0084               	movwf	4
  3242  17D1  160A  118A  2000  160A  118A  	fcall	stringtab
  3243  17D6  160A  118A  2708  160A  118A  	fcall	_Lcd_Write_Char
  3244  17DB                     l3363:
  3245  17DB  3001               	movlw	1
  3246  17DC  1283               	bcf	3,5	;RP0=0, select bank0
  3247  17DD  1303               	bcf	3,6	;RP1=0, select bank0
  3248  17DE  07C2               	addwf	Lcd_Write_String@i,f
  3249  17DF  1803               	skipnc
  3250  17E0  0AC3               	incf	Lcd_Write_String@i+1,f
  3251  17E1  3000               	movlw	0
  3252  17E2  07C3               	addwf	Lcd_Write_String@i+1,f
  3253  17E3                     l3365:
  3254  17E3  0842               	movf	Lcd_Write_String@i,w
  3255  17E4  073D               	addwf	Lcd_Write_String@a,w
  3256  17E5  00C0               	movwf	??_Lcd_Write_String+1
  3257  17E6  083E               	movf	Lcd_Write_String@a+1,w
  3258  17E7  00BF               	movwf	??_Lcd_Write_String
  3259  17E8  1803               	skipnc
  3260  17E9  0ABF               	incf	??_Lcd_Write_String,f
  3261  17EA  1FC2               	btfss	Lcd_Write_String@i,7
  3262  17EB  2FED               	goto	u510
  3263  17EC  03BF               	decf	??_Lcd_Write_String,f
  3264  17ED                     u510:
  3265  17ED  1283               	bcf	3,5	;RP0=0, select bank0
  3266  17EE  1303               	bcf	3,6	;RP1=0, select bank0
  3267  17EF  083F               	movf	??_Lcd_Write_String,w
  3268  17F0  00C1               	movwf	??_Lcd_Write_String+2
  3269  17F1  0841               	movf	??_Lcd_Write_String+2,w
  3270  17F2  00FF               	movwf	btemp+1
  3271  17F3  0840               	movf	??_Lcd_Write_String+1,w
  3272  17F4  0084               	movwf	4
  3273  17F5  160A  118A  2000  160A  118A  	fcall	stringtab
  3274  17FA  3A00               	xorlw	0
  3275  17FB  1D03               	skipz
  3276  17FC  2FFE               	goto	u521
  3277  17FD  2FFF               	goto	u520
  3278  17FE                     u521:
  3279  17FE  2FBF               	goto	l3361
  3280  17FF                     u520:
  3281  17FF                     l242:
  3282  17FF  0008               	return
  3283  1800                     __end_of_Lcd_Write_String:
  3284                           
  3285                           	psect	text10
  3286  1708                     __ptext10:	
  3287 ;; *************** function _Lcd_Write_Char *****************
  3288 ;; Defined at:
  3289 ;;		line 50 in file "LCD.c"
  3290 ;; Parameters:    Size  Location     Type
  3291 ;;  a               1    wreg     unsigned char 
  3292 ;; Auto vars:     Size  Location     Type
  3293 ;;  a               1    7[BANK0 ] unsigned char 
  3294 ;; Return value:  Size  Location     Type
  3295 ;;                  1    wreg      void 
  3296 ;; Registers used:
  3297 ;;		wreg, status,2, status,0, pclath, cstack
  3298 ;; Tracked objects:
  3299 ;;		On entry : 0/0
  3300 ;;		On exit  : 0/0
  3301 ;;		Unchanged: 0/0
  3302 ;; Data sizes:     COMMON   BANK0   BANK1   BANK3   BANK2
  3303 ;;      Params:         0       0       0       0       0
  3304 ;;      Locals:         0       1       0       0       0
  3305 ;;      Temps:          0       1       0       0       0
  3306 ;;      Totals:         0       2       0       0       0
  3307 ;;Total ram usage:        2 bytes
  3308 ;; Hardware stack levels used:    1
  3309 ;; Hardware stack levels required when called:    5
  3310 ;; This function calls:
  3311 ;;		_Lcd_Port
  3312 ;; This function is called by:
  3313 ;;		_Lcd_Write_String
  3314 ;; This function uses a non-reentrant model
  3315 ;;
  3316                           
  3317                           
  3318                           ;psect for function _Lcd_Write_Char
  3319  1708                     _Lcd_Write_Char:
  3320                           
  3321                           ;incstack = 0
  3322                           ; Regs used in _Lcd_Write_Char: [wreg+status,2+status,0+pclath+cstack]
  3323                           ;Lcd_Write_Char@a stored from wreg
  3324  1708  1283               	bcf	3,5	;RP0=0, select bank0
  3325  1709  1303               	bcf	3,6	;RP1=0, select bank0
  3326  170A  00BC               	movwf	Lcd_Write_Char@a
  3327  170B                     l3231:
  3328                           
  3329                           ;LCD.c: 52:    PORTCbits.RC1 = 1;
  3330  170B  1487               	bsf	7,1	;volatile
  3331  170C                     l3233:
  3332                           
  3333                           ;LCD.c: 53:    Lcd_Port(a);
  3334  170C  083C               	movf	Lcd_Write_Char@a,w
  3335  170D  160A  118A  26BC  160A  118A  	fcall	_Lcd_Port
  3336  1712                     l3235:
  3337                           
  3338                           ;LCD.c: 54:    PORTCbits.RC0 = 1;
  3339  1712  1283               	bcf	3,5	;RP0=0, select bank0
  3340  1713  1303               	bcf	3,6	;RP1=0, select bank0
  3341  1714  1407               	bsf	7,0	;volatile
  3342  1715                     l3237:
  3343                           
  3344                           ;LCD.c: 55:    _delay((unsigned long)((40)*(8000000/4000000.0)));
  3345  1715  3019               	movlw	25
  3346  1716  1283               	bcf	3,5	;RP0=0, select bank0
  3347  1717  1303               	bcf	3,6	;RP1=0, select bank0
  3348  1718  00BB               	movwf	??_Lcd_Write_Char
  3349  1719                     u607:
  3350  1719  0BBB               	decfsz	??_Lcd_Write_Char,f
  3351  171A  2F19               	goto	u607
  3352  171B  2F1C               	nop2
  3353  171C                     l3239:
  3354                           
  3355                           ;LCD.c: 56:    PORTCbits.RC0 = 0;
  3356  171C  1283               	bcf	3,5	;RP0=0, select bank0
  3357  171D  1303               	bcf	3,6	;RP1=0, select bank0
  3358  171E  1007               	bcf	7,0	;volatile
  3359  171F                     l3241:
  3360                           
  3361                           ;LCD.c: 57:    PORTCbits.RC1 = 0;
  3362  171F  1087               	bcf	7,1	;volatile
  3363  1720                     l236:
  3364  1720  0008               	return
  3365  1721                     __end_of_Lcd_Write_Char:
  3366                           
  3367                           	psect	text11
  3368  07C0                     __ptext11:	
  3369 ;; *************** function _Lcd_Set_Cursor *****************
  3370 ;; Defined at:
  3371 ;;		line 30 in file "LCD.c"
  3372 ;; Parameters:    Size  Location     Type
  3373 ;;  a               1    wreg     unsigned char 
  3374 ;;  b               1    9[BANK0 ] unsigned char 
  3375 ;; Auto vars:     Size  Location     Type
  3376 ;;  a               1   11[BANK0 ] unsigned char 
  3377 ;;  temp            1   12[BANK0 ] unsigned char 
  3378 ;; Return value:  Size  Location     Type
  3379 ;;                  1    wreg      void 
  3380 ;; Registers used:
  3381 ;;		wreg, status,2, status,0, pclath, cstack
  3382 ;; Tracked objects:
  3383 ;;		On entry : 0/0
  3384 ;;		On exit  : 0/0
  3385 ;;		Unchanged: 0/0
  3386 ;; Data sizes:     COMMON   BANK0   BANK1   BANK3   BANK2
  3387 ;;      Params:         0       1       0       0       0
  3388 ;;      Locals:         0       2       0       0       0
  3389 ;;      Temps:          0       1       0       0       0
  3390 ;;      Totals:         0       4       0       0       0
  3391 ;;Total ram usage:        4 bytes
  3392 ;; Hardware stack levels used:    1
  3393 ;; Hardware stack levels required when called:    6
  3394 ;; This function calls:
  3395 ;;		_Lcd_Cmd
  3396 ;; This function is called by:
  3397 ;;		_SETUP
  3398 ;;		_LCD
  3399 ;; This function uses a non-reentrant model
  3400 ;;
  3401                           
  3402                           
  3403                           ;psect for function _Lcd_Set_Cursor
  3404  07C0                     _Lcd_Set_Cursor:
  3405                           
  3406                           ;incstack = 0
  3407                           ; Regs used in _Lcd_Set_Cursor: [wreg+status,2+status,0+pclath+cstack]
  3408                           ;Lcd_Set_Cursor@a stored from wreg
  3409  07C0  1283               	bcf	3,5	;RP0=0, select bank0
  3410  07C1  1303               	bcf	3,6	;RP1=0, select bank0
  3411  07C2  00C0               	movwf	Lcd_Set_Cursor@a
  3412  07C3                     l3347:
  3413                           
  3414                           ;LCD.c: 32:     char temp;;LCD.c: 33:     if (a == 1) {
  3415  07C3  0340               	decf	Lcd_Set_Cursor@a,w
  3416  07C4  1D03               	btfss	3,2
  3417  07C5  2FC7               	goto	u481
  3418  07C6  2FC8               	goto	u480
  3419  07C7                     u481:
  3420  07C7  2FD4               	goto	l3353
  3421  07C8                     u480:
  3422  07C8                     l3349:
  3423                           
  3424                           ;LCD.c: 34:         temp = 0x80 + b - 1;
  3425  07C8  083E               	movf	Lcd_Set_Cursor@b,w
  3426  07C9  3E7F               	addlw	127
  3427  07CA  00BF               	movwf	??_Lcd_Set_Cursor
  3428  07CB  083F               	movf	??_Lcd_Set_Cursor,w
  3429  07CC  00C1               	movwf	Lcd_Set_Cursor@temp
  3430  07CD                     l3351:
  3431                           
  3432                           ;LCD.c: 35:         Lcd_Cmd(temp);
  3433  07CD  0841               	movf	Lcd_Set_Cursor@temp,w
  3434  07CE  160A  118A  2721  120A  118A  	fcall	_Lcd_Cmd
  3435                           
  3436                           ;LCD.c: 36:     } else if (a == 2) {
  3437  07D3  2FE5               	goto	l230
  3438  07D4                     l3353:
  3439  07D4  3002               	movlw	2
  3440  07D5  0640               	xorwf	Lcd_Set_Cursor@a,w
  3441  07D6  1D03               	btfss	3,2
  3442  07D7  2FD9               	goto	u491
  3443  07D8  2FDA               	goto	u490
  3444  07D9                     u491:
  3445  07D9  2FE5               	goto	l230
  3446  07DA                     u490:
  3447  07DA                     l3355:
  3448                           
  3449                           ;LCD.c: 37:         temp = 0xC0 + b - 1;
  3450  07DA  083E               	movf	Lcd_Set_Cursor@b,w
  3451  07DB  3EBF               	addlw	191
  3452  07DC  00BF               	movwf	??_Lcd_Set_Cursor
  3453  07DD  083F               	movf	??_Lcd_Set_Cursor,w
  3454  07DE  00C1               	movwf	Lcd_Set_Cursor@temp
  3455  07DF                     l3357:
  3456                           
  3457                           ;LCD.c: 38:         Lcd_Cmd(temp);
  3458  07DF  0841               	movf	Lcd_Set_Cursor@temp,w
  3459  07E0  160A  118A  2721  120A  118A  	fcall	_Lcd_Cmd
  3460  07E5                     l230:
  3461  07E5  0008               	return
  3462  07E6                     __end_of_Lcd_Set_Cursor:
  3463                           
  3464                           	psect	text12
  3465  1721                     __ptext12:	
  3466 ;; *************** function _Lcd_Cmd *****************
  3467 ;; Defined at:
  3468 ;;		line 16 in file "LCD.c"
  3469 ;; Parameters:    Size  Location     Type
  3470 ;;  a               1    wreg     unsigned char 
  3471 ;; Auto vars:     Size  Location     Type
  3472 ;;  a               1    8[BANK0 ] unsigned char 
  3473 ;; Return value:  Size  Location     Type
  3474 ;;                  1    wreg      void 
  3475 ;; Registers used:
  3476 ;;		wreg, status,2, status,0, pclath, cstack
  3477 ;; Tracked objects:
  3478 ;;		On entry : 0/0
  3479 ;;		On exit  : 0/0
  3480 ;;		Unchanged: 0/0
  3481 ;; Data sizes:     COMMON   BANK0   BANK1   BANK3   BANK2
  3482 ;;      Params:         0       0       0       0       0
  3483 ;;      Locals:         0       1       0       0       0
  3484 ;;      Temps:          0       2       0       0       0
  3485 ;;      Totals:         0       3       0       0       0
  3486 ;;Total ram usage:        3 bytes
  3487 ;; Hardware stack levels used:    1
  3488 ;; Hardware stack levels required when called:    5
  3489 ;; This function calls:
  3490 ;;		_Lcd_Port
  3491 ;; This function is called by:
  3492 ;;		_Lcd_Set_Cursor
  3493 ;;		_Lcd_Init
  3494 ;;		_Lcd_Clear
  3495 ;;		_Lcd_Shift_Right
  3496 ;;		_Lcd_Shift_Left
  3497 ;; This function uses a non-reentrant model
  3498 ;;
  3499                           
  3500                           
  3501                           ;psect for function _Lcd_Cmd
  3502  1721                     _Lcd_Cmd:
  3503                           
  3504                           ;incstack = 0
  3505                           ; Regs used in _Lcd_Cmd: [wreg+status,2+status,0+pclath+cstack]
  3506                           ;Lcd_Cmd@a stored from wreg
  3507  1721  1283               	bcf	3,5	;RP0=0, select bank0
  3508  1722  1303               	bcf	3,6	;RP1=0, select bank0
  3509  1723  00BD               	movwf	Lcd_Cmd@a
  3510  1724                     l3221:
  3511                           
  3512                           ;LCD.c: 17:     Lcd_Port(a);
  3513  1724  083D               	movf	Lcd_Cmd@a,w
  3514  1725  160A  118A  26BC  160A  118A  	fcall	_Lcd_Port
  3515  172A                     l3223:
  3516                           
  3517                           ;LCD.c: 18:     PORTCbits.RC1 = 0;
  3518  172A  1283               	bcf	3,5	;RP0=0, select bank0
  3519  172B  1303               	bcf	3,6	;RP1=0, select bank0
  3520  172C  1087               	bcf	7,1	;volatile
  3521  172D                     l3225:
  3522                           
  3523                           ;LCD.c: 20:     PORTCbits.RC0 = 1;
  3524  172D  1407               	bsf	7,0	;volatile
  3525  172E                     l3227:
  3526                           
  3527                           ;LCD.c: 21:     _delay((unsigned long)((5)*(8000000/4000.0)));
  3528  172E  300D               	movlw	13
  3529  172F  1283               	bcf	3,5	;RP0=0, select bank0
  3530  1730  1303               	bcf	3,6	;RP1=0, select bank0
  3531  1731  00BC               	movwf	??_Lcd_Cmd+1
  3532  1732  30FB               	movlw	251
  3533  1733  00BB               	movwf	??_Lcd_Cmd
  3534  1734                     u617:
  3535  1734  0BBB               	decfsz	??_Lcd_Cmd,f
  3536  1735  2F34               	goto	u617
  3537  1736  0BBC               	decfsz	??_Lcd_Cmd+1,f
  3538  1737  2F34               	goto	u617
  3539  1738                     l3229:
  3540                           
  3541                           ;LCD.c: 22:     PORTCbits.RC0 = 0;
  3542  1738  1283               	bcf	3,5	;RP0=0, select bank0
  3543  1739  1303               	bcf	3,6	;RP1=0, select bank0
  3544  173A  1007               	bcf	7,0	;volatile
  3545  173B                     l221:
  3546  173B  0008               	return
  3547  173C                     __end_of_Lcd_Cmd:
  3548                           
  3549                           	psect	text13
  3550  16BC                     __ptext13:	
  3551 ;; *************** function _Lcd_Port *****************
  3552 ;; Defined at:
  3553 ;;		line 12 in file "LCD.c"
  3554 ;; Parameters:    Size  Location     Type
  3555 ;;  a               1    wreg     unsigned char 
  3556 ;; Auto vars:     Size  Location     Type
  3557 ;;  a               1    5[BANK0 ] unsigned char 
  3558 ;; Return value:  Size  Location     Type
  3559 ;;                  1    wreg      void 
  3560 ;; Registers used:
  3561 ;;		wreg
  3562 ;; Tracked objects:
  3563 ;;		On entry : 0/0
  3564 ;;		On exit  : 0/0
  3565 ;;		Unchanged: 0/0
  3566 ;; Data sizes:     COMMON   BANK0   BANK1   BANK3   BANK2
  3567 ;;      Params:         0       0       0       0       0
  3568 ;;      Locals:         0       1       0       0       0
  3569 ;;      Temps:          0       0       0       0       0
  3570 ;;      Totals:         0       1       0       0       0
  3571 ;;Total ram usage:        1 bytes
  3572 ;; Hardware stack levels used:    1
  3573 ;; Hardware stack levels required when called:    4
  3574 ;; This function calls:
  3575 ;;		Nothing
  3576 ;; This function is called by:
  3577 ;;		_Lcd_Cmd
  3578 ;;		_Lcd_Write_Char
  3579 ;; This function uses a non-reentrant model
  3580 ;;
  3581                           
  3582                           
  3583                           ;psect for function _Lcd_Port
  3584  16BC                     _Lcd_Port:
  3585                           
  3586                           ;incstack = 0
  3587                           ; Regs used in _Lcd_Port: [wreg]
  3588                           ;Lcd_Port@a stored from wreg
  3589  16BC  1283               	bcf	3,5	;RP0=0, select bank0
  3590  16BD  1303               	bcf	3,6	;RP1=0, select bank0
  3591  16BE  00BA               	movwf	Lcd_Port@a
  3592  16BF                     l3219:
  3593                           
  3594                           ;LCD.c: 13:     PORTD = a;
  3595  16BF  083A               	movf	Lcd_Port@a,w
  3596  16C0  0088               	movwf	8	;volatile
  3597  16C1                     l218:
  3598  16C1  0008               	return
  3599  16C2                     __end_of_Lcd_Port:
  3600                           
  3601                           	psect	text14
  3602  0EF9                     __ptext14:	
  3603 ;; *************** function _CONV *****************
  3604 ;; Defined at:
  3605 ;;		line 76 in file "LCD.c"
  3606 ;; Parameters:    Size  Location     Type
  3607 ;;  numero          1    wreg     unsigned char 
  3608 ;; Auto vars:     Size  Location     Type
  3609 ;;  numero          1    8[BANK0 ] unsigned char 
  3610 ;; Return value:  Size  Location     Type
  3611 ;;                  2    5[BANK0 ] PTR const unsigned char 
  3612 ;; Registers used:
  3613 ;;		wreg, fsr0l, fsr0h, status,2, status,0
  3614 ;; Tracked objects:
  3615 ;;		On entry : 0/0
  3616 ;;		On exit  : 0/0
  3617 ;;		Unchanged: 0/0
  3618 ;; Data sizes:     COMMON   BANK0   BANK1   BANK3   BANK2
  3619 ;;      Params:         0       1       0       0       0
  3620 ;;      Locals:         0       1       0       0       0
  3621 ;;      Temps:          0       2       0       0       0
  3622 ;;      Totals:         0       4       0       0       0
  3623 ;;Total ram usage:        4 bytes
  3624 ;; Hardware stack levels used:    1
  3625 ;; Hardware stack levels required when called:    4
  3626 ;; This function calls:
  3627 ;;		Nothing
  3628 ;; This function is called by:
  3629 ;;		_main
  3630 ;; This function uses a non-reentrant model
  3631 ;;
  3632                           
  3633                           
  3634                           ;psect for function _CONV
  3635  0EF9                     _CONV:
  3636                           
  3637                           ;incstack = 0
  3638                           ; Regs used in _CONV: [wreg-fsr0h+status,2+status,0]
  3639                           ;CONV@numero stored from wreg
  3640  0EF9  1283               	bcf	3,5	;RP0=0, select bank0
  3641  0EFA  1303               	bcf	3,6	;RP1=0, select bank0
  3642  0EFB  00BD               	movwf	CONV@numero
  3643  0EFC                     l3575:
  3644                           
  3645                           ;LCD.c: 77:     switch(numero){
  3646  0EFC  120A  118A  2C22   	goto	l5115
  3647  0EFF                     l3577:
  3648                           
  3649                           ;LCD.c: 79:             return "000";
  3650  0EFF  300A               	movlw	low (STR_4| (0+32768))
  3651  0F00  00BA               	movwf	?_CONV
  3652  0F01  3088               	movlw	high (STR_4| (0+32768))
  3653  0F02  00BB               	movwf	?_CONV+1
  3654  0F03                     L1:
  3655  0F03  120A  118A  2F2D   	goto	l253
  3656  0F06                     l3583:
  3657                           
  3658                           ;LCD.c: 82:             return "001";
  3659  0F06  306E               	movlw	low (STR_5| (0+32768))
  3660  0F07  00BA               	movwf	?_CONV
  3661  0F08  3088               	movlw	high (STR_5| (0+32768))
  3662  0F09  00BB               	movwf	?_CONV+1
  3663  0F0A  2F03               	goto	L1
  3664  0F0B                     l3589:
  3665                           
  3666                           ;LCD.c: 85:             return "002";
  3667  0F0B  30D6               	movlw	low (STR_6| (0+32768))
  3668  0F0C  00BA               	movwf	?_CONV
  3669  0F0D  3088               	movlw	high (STR_6| (0+32768))
  3670  0F0E  00BB               	movwf	?_CONV+1
  3671  0F0F  2F03               	goto	L1
  3672  0F10                     l3595:
  3673                           
  3674                           ;LCD.c: 88:             return "003";
  3675  0F10  303A               	movlw	low (STR_7| (0+32768))
  3676  0F11  00BA               	movwf	?_CONV
  3677  0F12  3089               	movlw	high (STR_7| (0+32768))
  3678  0F13  00BB               	movwf	?_CONV+1
  3679  0F14  2F03               	goto	L1
  3680  0F15                     l3601:
  3681                           
  3682                           ;LCD.c: 91:             return "004";
  3683  0F15  309E               	movlw	low (STR_8| (0+32768))
  3684  0F16  00BA               	movwf	?_CONV
  3685  0F17  3089               	movlw	high (STR_8| (0+32768))
  3686  0F18  00BB               	movwf	?_CONV+1
  3687  0F19  2F03               	goto	L1
  3688  0F1A                     l3607:
  3689                           
  3690                           ;LCD.c: 94:             return "005";
  3691  0F1A  3006               	movlw	low (STR_9| (0+32768))
  3692  0F1B  00BA               	movwf	?_CONV
  3693  0F1C  308A               	movlw	high (STR_9| (0+32768))
  3694  0F1D  00BB               	movwf	?_CONV+1
  3695  0F1E  2F03               	goto	L1
  3696  0F1F                     l3613:
  3697                           
  3698                           ;LCD.c: 97:             return "006";
  3699  0F1F  306E               	movlw	low (STR_10| (0+32768))
  3700  0F20  00BA               	movwf	?_CONV
  3701  0F21  308A               	movlw	high (STR_10| (0+32768))
  3702  0F22  00BB               	movwf	?_CONV+1
  3703  0F23  2F03               	goto	L1
  3704  0F24                     l3619:
  3705                           
  3706                           ;LCD.c: 100:             return "007";
  3707  0F24  30D2               	movlw	low (STR_11| (0+32768))
  3708  0F25  00BA               	movwf	?_CONV
  3709  0F26  308A               	movlw	high (STR_11| (0+32768))
  3710  0F27  00BB               	movwf	?_CONV+1
  3711  0F28  2F03               	goto	L1
  3712  0F29                     l3625:
  3713                           
  3714                           ;LCD.c: 103:             return "008";
  3715  0F29  3036               	movlw	low (STR_12| (0+32768))
  3716  0F2A  00BA               	movwf	?_CONV
  3717  0F2B  308B               	movlw	high (STR_12| (0+32768))
  3718  0F2C  00BB               	movwf	?_CONV+1
  3719  0F2D  2F03               	goto	L1
  3720  0F2E                     l3631:
  3721                           
  3722                           ;LCD.c: 106:             return "009";
  3723  0F2E  309A               	movlw	low (STR_13| (0+32768))
  3724  0F2F  00BA               	movwf	?_CONV
  3725  0F30  308B               	movlw	high (STR_13| (0+32768))
  3726  0F31  00BB               	movwf	?_CONV+1
  3727  0F32  2F03               	goto	L1
  3728  0F33                     l3637:
  3729                           
  3730                           ;LCD.c: 109:             return "010";
  3731  0F33  3012               	movlw	low (STR_14| (0+32768))
  3732  0F34  00BA               	movwf	?_CONV
  3733  0F35  3088               	movlw	high (STR_14| (0+32768))
  3734  0F36  00BB               	movwf	?_CONV+1
  3735  0F37  2F03               	goto	L1
  3736  0F38                     l3643:
  3737                           
  3738                           ;LCD.c: 112:             return "011";
  3739  0F38  307A               	movlw	low (STR_15| (0+32768))
  3740  0F39  00BA               	movwf	?_CONV
  3741  0F3A  3088               	movlw	high (STR_15| (0+32768))
  3742  0F3B  00BB               	movwf	?_CONV+1
  3743  0F3C  2F03               	goto	L1
  3744  0F3D                     l3649:
  3745                           
  3746                           ;LCD.c: 115:             return "012";
  3747  0F3D  30E2               	movlw	low (STR_16| (0+32768))
  3748  0F3E  00BA               	movwf	?_CONV
  3749  0F3F  3088               	movlw	high (STR_16| (0+32768))
  3750  0F40  00BB               	movwf	?_CONV+1
  3751  0F41  2F03               	goto	L1
  3752  0F42                     l3655:
  3753                           
  3754                           ;LCD.c: 118:             return "013";
  3755  0F42  3046               	movlw	low (STR_17| (0+32768))
  3756  0F43  00BA               	movwf	?_CONV
  3757  0F44  3089               	movlw	high (STR_17| (0+32768))
  3758  0F45  00BB               	movwf	?_CONV+1
  3759  0F46  2F03               	goto	L1
  3760  0F47                     l3661:
  3761                           
  3762                           ;LCD.c: 121:             return "014";
  3763  0F47  30AA               	movlw	low (STR_18| (0+32768))
  3764  0F48  00BA               	movwf	?_CONV
  3765  0F49  3089               	movlw	high (STR_18| (0+32768))
  3766  0F4A  00BB               	movwf	?_CONV+1
  3767  0F4B  2F03               	goto	L1
  3768  0F4C                     l3667:
  3769                           
  3770                           ;LCD.c: 124:             return "015";
  3771  0F4C  3012               	movlw	low (STR_19| (0+32768))
  3772  0F4D  00BA               	movwf	?_CONV
  3773  0F4E  308A               	movlw	high (STR_19| (0+32768))
  3774  0F4F  00BB               	movwf	?_CONV+1
  3775  0F50  2F03               	goto	L1
  3776  0F51                     l3673:
  3777                           
  3778                           ;LCD.c: 127:             return "016";
  3779  0F51  307A               	movlw	low (STR_20| (0+32768))
  3780  0F52  00BA               	movwf	?_CONV
  3781  0F53  308A               	movlw	high (STR_20| (0+32768))
  3782  0F54  00BB               	movwf	?_CONV+1
  3783  0F55  2F03               	goto	L1
  3784  0F56                     l3679:
  3785                           
  3786                           ;LCD.c: 130:             return "017";
  3787  0F56  30DE               	movlw	low (STR_21| (0+32768))
  3788  0F57  00BA               	movwf	?_CONV
  3789  0F58  308A               	movlw	high (STR_21| (0+32768))
  3790  0F59  00BB               	movwf	?_CONV+1
  3791  0F5A  2F03               	goto	L1
  3792  0F5B                     l3685:
  3793                           
  3794                           ;LCD.c: 133:             return "018";
  3795  0F5B  3042               	movlw	low (STR_22| (0+32768))
  3796  0F5C  00BA               	movwf	?_CONV
  3797  0F5D  308B               	movlw	high (STR_22| (0+32768))
  3798  0F5E  00BB               	movwf	?_CONV+1
  3799  0F5F  2F03               	goto	L1
  3800  0F60                     l3691:
  3801                           
  3802                           ;LCD.c: 136:             return "019";
  3803  0F60  30A6               	movlw	low (STR_23| (0+32768))
  3804  0F61  00BA               	movwf	?_CONV
  3805  0F62  308B               	movlw	high (STR_23| (0+32768))
  3806  0F63  00BB               	movwf	?_CONV+1
  3807  0F64  2F03               	goto	L1
  3808  0F65                     l3697:
  3809                           
  3810                           ;LCD.c: 139:             return "020";
  3811  0F65  301E               	movlw	low (STR_24| (0+32768))
  3812  0F66  00BA               	movwf	?_CONV
  3813  0F67  3088               	movlw	high (STR_24| (0+32768))
  3814  0F68  00BB               	movwf	?_CONV+1
  3815  0F69  2F03               	goto	L1
  3816  0F6A                     l3703:
  3817                           
  3818                           ;LCD.c: 142:             return "021";
  3819  0F6A  3086               	movlw	low (STR_25| (0+32768))
  3820  0F6B  00BA               	movwf	?_CONV
  3821  0F6C  3088               	movlw	high (STR_25| (0+32768))
  3822  0F6D  00BB               	movwf	?_CONV+1
  3823  0F6E  2F03               	goto	L1
  3824  0F6F                     l3709:
  3825                           
  3826                           ;LCD.c: 145:             return "022";
  3827  0F6F  30EE               	movlw	low (STR_26| (0+32768))
  3828  0F70  00BA               	movwf	?_CONV
  3829  0F71  3088               	movlw	high (STR_26| (0+32768))
  3830  0F72  00BB               	movwf	?_CONV+1
  3831  0F73  2F03               	goto	L1
  3832  0F74                     l3715:
  3833                           
  3834                           ;LCD.c: 148:             return "023";
  3835  0F74  3052               	movlw	low (STR_27| (0+32768))
  3836  0F75  00BA               	movwf	?_CONV
  3837  0F76  3089               	movlw	high (STR_27| (0+32768))
  3838  0F77  00BB               	movwf	?_CONV+1
  3839  0F78  2F03               	goto	L1
  3840  0F79                     l3721:
  3841                           
  3842                           ;LCD.c: 151:             return "024";
  3843  0F79  30B6               	movlw	low (STR_28| (0+32768))
  3844  0F7A  00BA               	movwf	?_CONV
  3845  0F7B  3089               	movlw	high (STR_28| (0+32768))
  3846  0F7C  00BB               	movwf	?_CONV+1
  3847  0F7D  2F03               	goto	L1
  3848  0F7E                     l3727:
  3849                           
  3850                           ;LCD.c: 154:             return "025";
  3851  0F7E  301E               	movlw	low (STR_29| (0+32768))
  3852  0F7F  00BA               	movwf	?_CONV
  3853  0F80  308A               	movlw	high (STR_29| (0+32768))
  3854  0F81  00BB               	movwf	?_CONV+1
  3855  0F82  2F03               	goto	L1
  3856  0F83                     l3733:
  3857                           
  3858                           ;LCD.c: 157:             return "026";
  3859  0F83  3086               	movlw	low (STR_30| (0+32768))
  3860  0F84  00BA               	movwf	?_CONV
  3861  0F85  308A               	movlw	high (STR_30| (0+32768))
  3862  0F86  00BB               	movwf	?_CONV+1
  3863  0F87  2F03               	goto	L1
  3864  0F88                     l3739:
  3865                           
  3866                           ;LCD.c: 160:             return "027";
  3867  0F88  30EA               	movlw	low (STR_31| (0+32768))
  3868  0F89  00BA               	movwf	?_CONV
  3869  0F8A  308A               	movlw	high (STR_31| (0+32768))
  3870  0F8B  00BB               	movwf	?_CONV+1
  3871  0F8C  2F03               	goto	L1
  3872  0F8D                     l3745:
  3873                           
  3874                           ;LCD.c: 163:             return "028";
  3875  0F8D  304E               	movlw	low (STR_32| (0+32768))
  3876  0F8E  00BA               	movwf	?_CONV
  3877  0F8F  308B               	movlw	high (STR_32| (0+32768))
  3878  0F90  00BB               	movwf	?_CONV+1
  3879  0F91  2F03               	goto	L1
  3880  0F92                     l3751:
  3881                           
  3882                           ;LCD.c: 166:             return "029";
  3883  0F92  30B2               	movlw	low (STR_33| (0+32768))
  3884  0F93  00BA               	movwf	?_CONV
  3885  0F94  308B               	movlw	high (STR_33| (0+32768))
  3886  0F95  00BB               	movwf	?_CONV+1
  3887  0F96  2F03               	goto	L1
  3888  0F97                     l3757:
  3889                           
  3890                           ;LCD.c: 169:             return "030";
  3891  0F97  302A               	movlw	low (STR_34| (0+32768))
  3892  0F98  00BA               	movwf	?_CONV
  3893  0F99  3088               	movlw	high (STR_34| (0+32768))
  3894  0F9A  00BB               	movwf	?_CONV+1
  3895  0F9B  2F03               	goto	L1
  3896  0F9C                     l3763:
  3897                           
  3898                           ;LCD.c: 172:             return "031";
  3899  0F9C  3092               	movlw	low (STR_35| (0+32768))
  3900  0F9D  00BA               	movwf	?_CONV
  3901  0F9E  3088               	movlw	high (STR_35| (0+32768))
  3902  0F9F  00BB               	movwf	?_CONV+1
  3903  0FA0  2F03               	goto	L1
  3904  0FA1                     l3769:
  3905                           
  3906                           ;LCD.c: 175:             return "032";
  3907  0FA1  30FA               	movlw	low (STR_36| (0+32768))
  3908  0FA2  00BA               	movwf	?_CONV
  3909  0FA3  3088               	movlw	high (STR_36| (0+32768))
  3910  0FA4  00BB               	movwf	?_CONV+1
  3911  0FA5  2F03               	goto	L1
  3912  0FA6                     l3775:
  3913                           
  3914                           ;LCD.c: 178:             return "033";
  3915  0FA6  305E               	movlw	low (STR_37| (0+32768))
  3916  0FA7  00BA               	movwf	?_CONV
  3917  0FA8  3089               	movlw	high (STR_37| (0+32768))
  3918  0FA9  00BB               	movwf	?_CONV+1
  3919  0FAA  2F03               	goto	L1
  3920  0FAB                     l3781:
  3921                           
  3922                           ;LCD.c: 181:             return "034";
  3923  0FAB  30C2               	movlw	low (STR_38| (0+32768))
  3924  0FAC  00BA               	movwf	?_CONV
  3925  0FAD  3089               	movlw	high (STR_38| (0+32768))
  3926  0FAE  00BB               	movwf	?_CONV+1
  3927  0FAF  2F03               	goto	L1
  3928  0FB0                     l3787:
  3929                           
  3930                           ;LCD.c: 184:             return "035";
  3931  0FB0  302A               	movlw	low (STR_39| (0+32768))
  3932  0FB1  00BA               	movwf	?_CONV
  3933  0FB2  308A               	movlw	high (STR_39| (0+32768))
  3934  0FB3  00BB               	movwf	?_CONV+1
  3935  0FB4  2F03               	goto	L1
  3936  0FB5                     l3793:
  3937                           
  3938                           ;LCD.c: 187:             return "036";
  3939  0FB5  3092               	movlw	low (STR_40| (0+32768))
  3940  0FB6  00BA               	movwf	?_CONV
  3941  0FB7  308A               	movlw	high (STR_40| (0+32768))
  3942  0FB8  00BB               	movwf	?_CONV+1
  3943  0FB9  2F03               	goto	L1
  3944  0FBA                     l3799:
  3945                           
  3946                           ;LCD.c: 190:             return "037";
  3947  0FBA  30F6               	movlw	low (STR_41| (0+32768))
  3948  0FBB  00BA               	movwf	?_CONV
  3949  0FBC  308A               	movlw	high (STR_41| (0+32768))
  3950  0FBD  00BB               	movwf	?_CONV+1
  3951  0FBE  2F03               	goto	L1
  3952  0FBF                     l3805:
  3953                           
  3954                           ;LCD.c: 193:             return "038";
  3955  0FBF  305A               	movlw	low (STR_42| (0+32768))
  3956  0FC0  00BA               	movwf	?_CONV
  3957  0FC1  308B               	movlw	high (STR_42| (0+32768))
  3958  0FC2  00BB               	movwf	?_CONV+1
  3959  0FC3  2F03               	goto	L1
  3960  0FC4                     l3811:
  3961                           
  3962                           ;LCD.c: 196:             return "039";
  3963  0FC4  30BE               	movlw	low (STR_43| (0+32768))
  3964  0FC5  00BA               	movwf	?_CONV
  3965  0FC6  308B               	movlw	high (STR_43| (0+32768))
  3966  0FC7  00BB               	movwf	?_CONV+1
  3967  0FC8  2F03               	goto	L1
  3968  0FC9                     l3817:
  3969                           
  3970                           ;LCD.c: 199:             return "040";
  3971  0FC9  3036               	movlw	low (STR_44| (0+32768))
  3972  0FCA  00BA               	movwf	?_CONV
  3973  0FCB  3088               	movlw	high (STR_44| (0+32768))
  3974  0FCC  00BB               	movwf	?_CONV+1
  3975  0FCD  2F03               	goto	L1
  3976  0FCE                     l3823:
  3977                           
  3978                           ;LCD.c: 202:             return "041";
  3979  0FCE  309E               	movlw	low (STR_45| (0+32768))
  3980  0FCF  00BA               	movwf	?_CONV
  3981  0FD0  3088               	movlw	high (STR_45| (0+32768))
  3982  0FD1  00BB               	movwf	?_CONV+1
  3983  0FD2  2F03               	goto	L1
  3984  0FD3                     l3829:
  3985                           
  3986                           ;LCD.c: 205:             return "042";
  3987  0FD3  3006               	movlw	low (STR_46| (0+32768))
  3988  0FD4  00BA               	movwf	?_CONV
  3989  0FD5  3089               	movlw	high (STR_46| (0+32768))
  3990  0FD6  00BB               	movwf	?_CONV+1
  3991  0FD7  2F03               	goto	L1
  3992  0FD8                     l3835:
  3993                           
  3994                           ;LCD.c: 208:             return "043";
  3995  0FD8  306A               	movlw	low (STR_47| (0+32768))
  3996  0FD9  00BA               	movwf	?_CONV
  3997  0FDA  3089               	movlw	high (STR_47| (0+32768))
  3998  0FDB  00BB               	movwf	?_CONV+1
  3999  0FDC  2F03               	goto	L1
  4000  0FDD                     l3841:
  4001                           
  4002                           ;LCD.c: 211:             return "044";
  4003  0FDD  30CE               	movlw	low (STR_48| (0+32768))
  4004  0FDE  00BA               	movwf	?_CONV
  4005  0FDF  3089               	movlw	high (STR_48| (0+32768))
  4006  0FE0  00BB               	movwf	?_CONV+1
  4007  0FE1  2F03               	goto	L1
  4008  0FE2                     l3847:
  4009                           
  4010                           ;LCD.c: 214:             return "045";
  4011  0FE2  3036               	movlw	low (STR_49| (0+32768))
  4012  0FE3  00BA               	movwf	?_CONV
  4013  0FE4  308A               	movlw	high (STR_49| (0+32768))
  4014  0FE5  00BB               	movwf	?_CONV+1
  4015  0FE6  2F03               	goto	L1
  4016  0FE7                     l3853:
  4017                           
  4018                           ;LCD.c: 217:             return "046";
  4019  0FE7  309E               	movlw	low (STR_50| (0+32768))
  4020  0FE8  00BA               	movwf	?_CONV
  4021  0FE9  308A               	movlw	high (STR_50| (0+32768))
  4022  0FEA  00BB               	movwf	?_CONV+1
  4023  0FEB  2F03               	goto	L1
  4024  0FEC                     l3859:
  4025                           
  4026                           ;LCD.c: 220:             return "047";
  4027  0FEC  3002               	movlw	low (STR_51| (0+32768))
  4028  0FED  00BA               	movwf	?_CONV
  4029  0FEE  308B               	movlw	high (STR_51| (0+32768))
  4030  0FEF  00BB               	movwf	?_CONV+1
  4031  0FF0  2F03               	goto	L1
  4032  0FF1                     l3865:
  4033                           
  4034                           ;LCD.c: 223:             return "048";
  4035  0FF1  3066               	movlw	low (STR_52| (0+32768))
  4036  0FF2  00BA               	movwf	?_CONV
  4037  0FF3  308B               	movlw	high (STR_52| (0+32768))
  4038  0FF4  00BB               	movwf	?_CONV+1
  4039  0FF5  2F03               	goto	L1
  4040  0FF6                     l3871:
  4041                           
  4042                           ;LCD.c: 226:             return "049";
  4043  0FF6  30CA               	movlw	low (STR_53| (0+32768))
  4044  0FF7  00BA               	movwf	?_CONV
  4045  0FF8  308B               	movlw	high (STR_53| (0+32768))
  4046  0FF9  00BB               	movwf	?_CONV+1
  4047  0FFA  2F03               	goto	L1
  4048  0FFB                     l3877:
  4049                           
  4050                           ;LCD.c: 229:             return "050";
  4051  0FFB  3042               	movlw	low (STR_54| (0+32768))
  4052  0FFC  00BA               	movwf	?_CONV
  4053  0FFD  3088               	movlw	high (STR_54| (0+32768))
  4054  0FFE  00BB               	movwf	?_CONV+1
  4055  0FFF  2F03               	goto	L1
  4056                           
  4057                           	psect	text15
  4058  16F0                     __ptext15:	
  4059 ;; *************** function _isr *****************
  4060 ;; Defined at:
  4061 ;;		line 70 in file "Principal_Master.c"
  4062 ;; Parameters:    Size  Location     Type
  4063 ;;		None
  4064 ;; Auto vars:     Size  Location     Type
  4065 ;;		None
  4066 ;; Return value:  Size  Location     Type
  4067 ;;                  1    wreg      void 
  4068 ;; Registers used:
  4069 ;;		wreg, fsr0l, fsr0h, status,2, status,0, pclath, cstack
  4070 ;; Tracked objects:
  4071 ;;		On entry : 0/0
  4072 ;;		On exit  : 0/0
  4073 ;;		Unchanged: 0/0
  4074 ;; Data sizes:     COMMON   BANK0   BANK1   BANK3   BANK2
  4075 ;;      Params:         0       0       0       0       0
  4076 ;;      Locals:         0       0       0       0       0
  4077 ;;      Temps:          0       3       0       0       0
  4078 ;;      Totals:         0       3       0       0       0
  4079 ;;Total ram usage:        3 bytes
  4080 ;; Hardware stack levels used:    1
  4081 ;; Hardware stack levels required when called:    3
  4082 ;; This function calls:
  4083 ;;		_TX
  4084 ;; This function is called by:
  4085 ;;		Interrupt level 1
  4086 ;; This function uses a non-reentrant model
  4087 ;;
  4088                           
  4089                           
  4090                           ;psect for function _isr
  4091  16F0                     _isr:
  4092  16F0                     i1l5149:
  4093                           
  4094                           ;Principal_Master.c: 71:  (INTCONbits.GIE = 0);
  4095  16F0  138B               	bcf	11,7	;volatile
  4096                           
  4097                           ;Principal_Master.c: 73:     if(PIR1bits.TXIF == 1){
  4098  16F1  1E0C               	btfss	12,4	;volatile
  4099  16F2  2EF4               	goto	u53_21
  4100  16F3  2EF5               	goto	u53_20
  4101  16F4                     u53_21:
  4102  16F4  2EFE               	goto	i1l5155
  4103  16F5                     u53_20:
  4104  16F5                     i1l5151:
  4105                           
  4106                           ;Principal_Master.c: 74:         PIR1bits.TXIF = 0;
  4107  16F5  120C               	bcf	12,4	;volatile
  4108  16F6                     i1l5153:
  4109                           
  4110                           ;Principal_Master.c: 75:         TXREG = TX();
  4111  16F6  120A  118A  2731  160A  118A  	fcall	_TX
  4112  16FB  1283               	bcf	3,5	;RP0=0, select bank0
  4113  16FC  1303               	bcf	3,6	;RP1=0, select bank0
  4114  16FD  0099               	movwf	25	;volatile
  4115  16FE                     i1l5155:
  4116                           
  4117                           ;Principal_Master.c: 79:   (INTCONbits.GIE = 1);
  4118  16FE  178B               	bsf	11,7	;volatile
  4119  16FF                     i1l160:
  4120  16FF  0839               	movf	??_isr+2,w
  4121  1700  008A               	movwf	10
  4122  1701  0838               	movf	??_isr+1,w
  4123  1702  0084               	movwf	4
  4124  1703  0E37               	swapf	??_isr,w
  4125  1704  0083               	movwf	3
  4126  1705  0EFE               	swapf	btemp,f
  4127  1706  0E7E               	swapf	btemp,w
  4128  1707  0009               	retfie
  4129  1708                     __end_of_isr:
  4130                           
  4131                           	psect	intentry
  4132  0004                     __pintentry:	
  4133                           ;incstack = 0
  4134                           ; Regs used in _isr: [wreg-fsr0h+status,2+status,0+pclath+cstack]
  4135                           
  4136  0004                     interrupt_function:
  4137  007E                     saved_w	set	btemp
  4138  0004  00FE               	movwf	btemp
  4139  0005  0E03               	swapf	3,w
  4140  0006  1283               	bcf	3,5	;RP0=0, select bank0
  4141  0007  1303               	bcf	3,6	;RP1=0, select bank0
  4142  0008  00B7               	movwf	??_isr
  4143  0009  0804               	movf	4,w
  4144  000A  00B8               	movwf	??_isr+1
  4145  000B  080A               	movf	10,w
  4146  000C  00B9               	movwf	??_isr+2
  4147  000D  160A  118A  2EF0   	ljmp	_isr
  4148                           
  4149                           	psect	text16
  4150  0731                     __ptext16:	
  4151 ;; *************** function _TX *****************
  4152 ;; Defined at:
  4153 ;;		line 252 in file "Principal_Master.c"
  4154 ;; Parameters:    Size  Location     Type
  4155 ;;		None
  4156 ;; Auto vars:     Size  Location     Type
  4157 ;;		None
  4158 ;; Return value:  Size  Location     Type
  4159 ;;                  1    wreg      unsigned char 
  4160 ;; Registers used:
  4161 ;;		wreg, fsr0l, fsr0h, status,2, status,0, pclath, cstack
  4162 ;; Tracked objects:
  4163 ;;		On entry : 0/0
  4164 ;;		On exit  : 0/0
  4165 ;;		Unchanged: 0/0
  4166 ;; Data sizes:     COMMON   BANK0   BANK1   BANK3   BANK2
  4167 ;;      Params:         0       0       0       0       0
  4168 ;;      Locals:         0       0       0       0       0
  4169 ;;      Temps:          0       2       0       0       0
  4170 ;;      Totals:         0       2       0       0       0
  4171 ;;Total ram usage:        2 bytes
  4172 ;; Hardware stack levels used:    1
  4173 ;; Hardware stack levels required when called:    2
  4174 ;; This function calls:
  4175 ;;		_CONT_TO_CHARS
  4176 ;;		_POT_TO_CHARS
  4177 ;;		_TEMP_TO_CHARS
  4178 ;; This function is called by:
  4179 ;;		_isr
  4180 ;; This function uses a non-reentrant model
  4181 ;;
  4182                           
  4183                           
  4184                           ;psect for function _TX
  4185  0731                     _TX:
  4186  0731                     i1l3397:	
  4187                           ;incstack = 0
  4188                           ; Regs used in _TX: [wreg-fsr0h+status,2+status,0+pclath+cstack]
  4189                           
  4190                           
  4191                           ;Principal_Master.c: 256:     switch(BANDERA_T){
  4192  0731  2F8F               	goto	i1l3491
  4193  0732                     i1l3399:
  4194                           
  4195                           ;Principal_Master.c: 259:             POT_TO_CHARS();
  4196  0732  120A  158A  24DA  120A  118A  	fcall	_POT_TO_CHARS
  4197  0737                     i1l3401:
  4198                           
  4199                           ;Principal_Master.c: 260:             BANDERA_T++;
  4200  0737  3001               	movlw	1
  4201  0738  1283               	bcf	3,5	;RP0=0, select bank0
  4202  0739  1303               	bcf	3,6	;RP1=0, select bank0
  4203  073A  00B5               	movwf	??_TX
  4204  073B  0835               	movf	??_TX,w
  4205  073C  07FD               	addwf	_BANDERA_T,f
  4206  073D                     i1l3403:
  4207                           
  4208                           ;Principal_Master.c: 261:             return Pot_cents + 48;
  4209  073D  082B               	movf	_Pot_cents,w
  4210  073E  3E30               	addlw	48
  4211  073F  2FBF               	goto	i1l197
  4212  0740                     i1l3409:
  4213                           
  4214                           ;Principal_Master.c: 264:             BANDERA_T++;
  4215  0740  3001               	movlw	1
  4216  0741  00B5               	movwf	??_TX
  4217  0742  0835               	movf	??_TX,w
  4218  0743  07FD               	addwf	_BANDERA_T,f
  4219                           
  4220                           ;Principal_Master.c: 265:             return Pot_decs + 48;
  4221  0744  0829               	movf	_Pot_decs,w
  4222  0745  3E30               	addlw	48
  4223  0746  2FBF               	goto	i1l197
  4224  0747                     i1l3415:
  4225                           
  4226                           ;Principal_Master.c: 268:             BANDERA_T++;
  4227  0747  3001               	movlw	1
  4228  0748  00B5               	movwf	??_TX
  4229  0749  0835               	movf	??_TX,w
  4230  074A  07FD               	addwf	_BANDERA_T,f
  4231                           
  4232                           ;Principal_Master.c: 269:             return Pot_units + 48;
  4233  074B  082A               	movf	_Pot_units,w
  4234  074C  3E30               	addlw	48
  4235  074D  2FBF               	goto	i1l197
  4236  074E                     i1l3421:
  4237                           
  4238                           ;Principal_Master.c: 272:             BANDERA_T++;
  4239  074E  3001               	movlw	1
  4240  074F  00B5               	movwf	??_TX
  4241  0750  0835               	movf	??_TX,w
  4242  0751  07FD               	addwf	_BANDERA_T,f
  4243  0752                     i1l3423:
  4244                           
  4245                           ;Principal_Master.c: 273:             return ',';
  4246  0752  302C               	movlw	44
  4247  0753  2FBF               	goto	i1l197
  4248  0754                     i1l3429:
  4249                           
  4250                           ;Principal_Master.c: 276:             CONT_TO_CHARS();
  4251  0754  120A  158A  247D  120A  118A  	fcall	_CONT_TO_CHARS
  4252  0759                     i1l3431:
  4253                           
  4254                           ;Principal_Master.c: 277:             BANDERA_T++;
  4255  0759  3001               	movlw	1
  4256  075A  1283               	bcf	3,5	;RP0=0, select bank0
  4257  075B  1303               	bcf	3,6	;RP1=0, select bank0
  4258  075C  00B5               	movwf	??_TX
  4259  075D  0835               	movf	??_TX,w
  4260  075E  07FD               	addwf	_BANDERA_T,f
  4261  075F                     i1l3433:
  4262                           
  4263                           ;Principal_Master.c: 278:             return cont_cents + 48;
  4264  075F  0826               	movf	_cont_cents,w
  4265  0760  3E30               	addlw	48
  4266  0761  2FBF               	goto	i1l197
  4267  0762                     i1l3439:
  4268                           
  4269                           ;Principal_Master.c: 281:             BANDERA_T++;
  4270  0762  3001               	movlw	1
  4271  0763  00B5               	movwf	??_TX
  4272  0764  0835               	movf	??_TX,w
  4273  0765  07FD               	addwf	_BANDERA_T,f
  4274                           
  4275                           ;Principal_Master.c: 282:             return cont_decs + 48;
  4276  0766  0827               	movf	_cont_decs,w
  4277  0767  3E30               	addlw	48
  4278  0768  2FBF               	goto	i1l197
  4279  0769                     i1l3445:
  4280                           
  4281                           ;Principal_Master.c: 285:             BANDERA_T++;
  4282  0769  3001               	movlw	1
  4283  076A  00B5               	movwf	??_TX
  4284  076B  0835               	movf	??_TX,w
  4285  076C  07FD               	addwf	_BANDERA_T,f
  4286                           
  4287                           ;Principal_Master.c: 286:             return cont_units + 48;
  4288  076D  0828               	movf	_cont_units,w
  4289  076E  3E30               	addlw	48
  4290  076F  2FBF               	goto	i1l197
  4291  0770                     i1l3459:
  4292                           
  4293                           ;Principal_Master.c: 293:             TEMP_TO_CHARS();
  4294  0770  120A  158A  2537  120A  118A  	fcall	_TEMP_TO_CHARS
  4295  0775                     i1l3461:
  4296                           
  4297                           ;Principal_Master.c: 294:             BANDERA_T++;
  4298  0775  3001               	movlw	1
  4299  0776  1283               	bcf	3,5	;RP0=0, select bank0
  4300  0777  1303               	bcf	3,6	;RP1=0, select bank0
  4301  0778  00B5               	movwf	??_TX
  4302  0779  0835               	movf	??_TX,w
  4303  077A  07FD               	addwf	_BANDERA_T,f
  4304  077B                     i1l3463:
  4305                           
  4306                           ;Principal_Master.c: 295:             return Temp_cents + 48;
  4307  077B  082D               	movf	_Temp_cents,w
  4308  077C  3E30               	addlw	48
  4309  077D  2FBF               	goto	i1l197
  4310  077E                     i1l3469:
  4311                           
  4312                           ;Principal_Master.c: 298:             BANDERA_T++;
  4313  077E  3001               	movlw	1
  4314  077F  00B5               	movwf	??_TX
  4315  0780  0835               	movf	??_TX,w
  4316  0781  07FD               	addwf	_BANDERA_T,f
  4317                           
  4318                           ;Principal_Master.c: 299:             return Temp_decs + 48;
  4319  0782  082E               	movf	_Temp_decs,w
  4320  0783  3E30               	addlw	48
  4321  0784  2FBF               	goto	i1l197
  4322  0785                     i1l3475:
  4323                           
  4324                           ;Principal_Master.c: 302:             BANDERA_T++;
  4325  0785  3001               	movlw	1
  4326  0786  00B5               	movwf	??_TX
  4327  0787  0835               	movf	??_TX,w
  4328  0788  07FD               	addwf	_BANDERA_T,f
  4329                           
  4330                           ;Principal_Master.c: 303:             return Temp_units + 48;
  4331  0789  082C               	movf	_Temp_units,w
  4332  078A  3E30               	addlw	48
  4333  078B  2FBF               	goto	i1l197
  4334  078C                     i1l3481:
  4335                           
  4336                           ;Principal_Master.c: 306:             BANDERA_T = 0;
  4337  078C  01FD               	clrf	_BANDERA_T
  4338  078D                     i1l3483:
  4339                           
  4340                           ;Principal_Master.c: 307:             return '\r';
  4341  078D  300D               	movlw	13
  4342  078E  2FBF               	goto	i1l197
  4343  078F                     i1l3491:
  4344  078F  087D               	movf	_BANDERA_T,w
  4345  0790  1283               	bcf	3,5	;RP0=0, select bank0
  4346  0791  1303               	bcf	3,6	;RP1=0, select bank0
  4347  0792  00B5               	movwf	??_TX
  4348  0793  01B6               	clrf	??_TX+1
  4349                           
  4350                           ; Switch on 2 bytes has been partitioned into a top level switch of size 1, and 1 sub-sw
      +                          itches
  4351                           ; Switch size 1, requested type "simple"
  4352                           ; Number of cases is 1, Range of values is 0 to 0
  4353                           ; switch strategies available:
  4354                           ; Name         Instructions Cycles
  4355                           ; simple_byte            4     3 (average)
  4356                           ; direct_byte           11     8 (fixed)
  4357                           ; jumptable            260     6 (fixed)
  4358                           ;	Chosen strategy is simple_byte
  4359  0794  0836               	movf	??_TX+1,w
  4360  0795  3A00               	xorlw	0	; case 0
  4361  0796  1903               	skipnz
  4362  0797  2F99               	goto	i1l5247
  4363  0798  2FBF               	goto	i1l197
  4364  0799                     i1l5247:
  4365                           
  4366                           ; Switch size 1, requested type "simple"
  4367                           ; Number of cases is 12, Range of values is 0 to 11
  4368                           ; switch strategies available:
  4369                           ; Name         Instructions Cycles
  4370                           ; simple_byte           37    19 (average)
  4371                           ; direct_byte           44     8 (fixed)
  4372                           ; jumptable            260     6 (fixed)
  4373                           ;	Chosen strategy is simple_byte
  4374  0799  0835               	movf	??_TX,w
  4375  079A  3A00               	xorlw	0	; case 0
  4376  079B  1903               	skipnz
  4377  079C  2F32               	goto	i1l3399
  4378  079D  3A01               	xorlw	1	; case 1
  4379  079E  1903               	skipnz
  4380  079F  2F40               	goto	i1l3409
  4381  07A0  3A03               	xorlw	3	; case 2
  4382  07A1  1903               	skipnz
  4383  07A2  2F47               	goto	i1l3415
  4384  07A3  3A01               	xorlw	1	; case 3
  4385  07A4  1903               	skipnz
  4386  07A5  2F4E               	goto	i1l3421
  4387  07A6  3A07               	xorlw	7	; case 4
  4388  07A7  1903               	skipnz
  4389  07A8  2F54               	goto	i1l3429
  4390  07A9  3A01               	xorlw	1	; case 5
  4391  07AA  1903               	skipnz
  4392  07AB  2F62               	goto	i1l3439
  4393  07AC  3A03               	xorlw	3	; case 6
  4394  07AD  1903               	skipnz
  4395  07AE  2F69               	goto	i1l3445
  4396  07AF  3A01               	xorlw	1	; case 7
  4397  07B0  1903               	skipnz
  4398  07B1  2F4E               	goto	i1l3421
  4399  07B2  3A0F               	xorlw	15	; case 8
  4400  07B3  1903               	skipnz
  4401  07B4  2F70               	goto	i1l3459
  4402  07B5  3A01               	xorlw	1	; case 9
  4403  07B6  1903               	skipnz
  4404  07B7  2F7E               	goto	i1l3469
  4405  07B8  3A03               	xorlw	3	; case 10
  4406  07B9  1903               	skipnz
  4407  07BA  2F85               	goto	i1l3475
  4408  07BB  3A01               	xorlw	1	; case 11
  4409  07BC  1903               	skipnz
  4410  07BD  2F8C               	goto	i1l3481
  4411  07BE  2FBF               	goto	i1l197
  4412  07BF                     i1l197:
  4413  07BF  0008               	return
  4414  07C0                     __end_of_TX:
  4415                           
  4416                           	psect	text17
  4417  0D37                     __ptext17:	
  4418 ;; *************** function _TEMP_TO_CHARS *****************
  4419 ;; Defined at:
  4420 ;;		line 242 in file "Principal_Master.c"
  4421 ;; Parameters:    Size  Location     Type
  4422 ;;		None
  4423 ;; Auto vars:     Size  Location     Type
  4424 ;;  valor           1   12[COMMON] unsigned char 
  4425 ;; Return value:  Size  Location     Type
  4426 ;;                  1    wreg      void 
  4427 ;; Registers used:
  4428 ;;		wreg, status,2, status,0, pclath, cstack
  4429 ;; Tracked objects:
  4430 ;;		On entry : 0/0
  4431 ;;		On exit  : 0/0
  4432 ;;		Unchanged: 0/0
  4433 ;; Data sizes:     COMMON   BANK0   BANK1   BANK3   BANK2
  4434 ;;      Params:         0       0       0       0       0
  4435 ;;      Locals:         1       0       0       0       0
  4436 ;;      Temps:          3       0       0       0       0
  4437 ;;      Totals:         4       0       0       0       0
  4438 ;;Total ram usage:        4 bytes
  4439 ;; Hardware stack levels used:    1
  4440 ;; Hardware stack levels required when called:    1
  4441 ;; This function calls:
  4442 ;;		___awdiv
  4443 ;;		___awmod
  4444 ;; This function is called by:
  4445 ;;		_TX
  4446 ;; This function uses a non-reentrant model
  4447 ;;
  4448                           
  4449                           
  4450                           ;psect for function _TEMP_TO_CHARS
  4451  0D37                     _TEMP_TO_CHARS:
  4452  0D37                     i1l3387:	
  4453                           ;incstack = 0
  4454                           ; Regs used in _TEMP_TO_CHARS: [wreg+status,2+status,0+pclath+cstack]
  4455                           
  4456                           
  4457                           ;Principal_Master.c: 245:     uint8_t valor = TEMPERATURA;
  4458  0D37  1283               	bcf	3,5	;RP0=0, select bank0
  4459  0D38  1303               	bcf	3,6	;RP1=0, select bank0
  4460  0D39  082F               	movf	_TEMPERATURA,w
  4461  0D3A  00F9               	movwf	??_TEMP_TO_CHARS
  4462  0D3B  0879               	movf	??_TEMP_TO_CHARS,w
  4463  0D3C  00FC               	movwf	TEMP_TO_CHARS@valor
  4464  0D3D                     i1l3389:
  4465                           
  4466                           ;Principal_Master.c: 246:     Temp_units = valor %10 ;
  4467  0D3D  300A               	movlw	10
  4468  0D3E  00F0               	movwf	___awmod@divisor
  4469  0D3F  3000               	movlw	0
  4470  0D40  00F1               	movwf	___awmod@divisor+1
  4471  0D41  087C               	movf	TEMP_TO_CHARS@valor,w
  4472  0D42  00F9               	movwf	??_TEMP_TO_CHARS
  4473  0D43  01FA               	clrf	??_TEMP_TO_CHARS+1
  4474  0D44  0879               	movf	??_TEMP_TO_CHARS,w
  4475  0D45  00F2               	movwf	___awmod@dividend
  4476  0D46  087A               	movf	??_TEMP_TO_CHARS+1,w
  4477  0D47  00F3               	movwf	___awmod@dividend+1
  4478  0D48  120A  158A  2424  120A  158A  	fcall	___awmod
  4479  0D4D  0870               	movf	?___awmod,w
  4480  0D4E  00FB               	movwf	??_TEMP_TO_CHARS+2
  4481  0D4F  087B               	movf	??_TEMP_TO_CHARS+2,w
  4482  0D50  1283               	bcf	3,5	;RP0=0, select bank0
  4483  0D51  1303               	bcf	3,6	;RP1=0, select bank0
  4484  0D52  00AC               	movwf	_Temp_units
  4485  0D53                     i1l3391:
  4486                           
  4487                           ;Principal_Master.c: 247:     valor = valor/10;
  4488  0D53  300A               	movlw	10
  4489  0D54  00F0               	movwf	___awdiv@divisor
  4490  0D55  3000               	movlw	0
  4491  0D56  00F1               	movwf	___awdiv@divisor+1
  4492  0D57  087C               	movf	TEMP_TO_CHARS@valor,w
  4493  0D58  00F9               	movwf	??_TEMP_TO_CHARS
  4494  0D59  01FA               	clrf	??_TEMP_TO_CHARS+1
  4495  0D5A  0879               	movf	??_TEMP_TO_CHARS,w
  4496  0D5B  00F2               	movwf	___awdiv@dividend
  4497  0D5C  087A               	movf	??_TEMP_TO_CHARS+1,w
  4498  0D5D  00F3               	movwf	___awdiv@dividend+1
  4499  0D5E  120A  158A  2594  120A  158A  	fcall	___awdiv
  4500  0D63  0870               	movf	?___awdiv,w
  4501  0D64  00FB               	movwf	??_TEMP_TO_CHARS+2
  4502  0D65  087B               	movf	??_TEMP_TO_CHARS+2,w
  4503  0D66  00FC               	movwf	TEMP_TO_CHARS@valor
  4504  0D67                     i1l3393:
  4505                           
  4506                           ;Principal_Master.c: 248:     Temp_decs = valor %10 ;
  4507  0D67  300A               	movlw	10
  4508  0D68  00F0               	movwf	___awmod@divisor
  4509  0D69  3000               	movlw	0
  4510  0D6A  00F1               	movwf	___awmod@divisor+1
  4511  0D6B  087C               	movf	TEMP_TO_CHARS@valor,w
  4512  0D6C  00F9               	movwf	??_TEMP_TO_CHARS
  4513  0D6D  01FA               	clrf	??_TEMP_TO_CHARS+1
  4514  0D6E  0879               	movf	??_TEMP_TO_CHARS,w
  4515  0D6F  00F2               	movwf	___awmod@dividend
  4516  0D70  087A               	movf	??_TEMP_TO_CHARS+1,w
  4517  0D71  00F3               	movwf	___awmod@dividend+1
  4518  0D72  120A  158A  2424  120A  158A  	fcall	___awmod
  4519  0D77  0870               	movf	?___awmod,w
  4520  0D78  00FB               	movwf	??_TEMP_TO_CHARS+2
  4521  0D79  087B               	movf	??_TEMP_TO_CHARS+2,w
  4522  0D7A  1283               	bcf	3,5	;RP0=0, select bank0
  4523  0D7B  1303               	bcf	3,6	;RP1=0, select bank0
  4524  0D7C  00AE               	movwf	_Temp_decs
  4525  0D7D                     i1l3395:
  4526                           
  4527                           ;Principal_Master.c: 249:     Temp_cents = valor /10 ;
  4528  0D7D  300A               	movlw	10
  4529  0D7E  00F0               	movwf	___awdiv@divisor
  4530  0D7F  3000               	movlw	0
  4531  0D80  00F1               	movwf	___awdiv@divisor+1
  4532  0D81  087C               	movf	TEMP_TO_CHARS@valor,w
  4533  0D82  00F9               	movwf	??_TEMP_TO_CHARS
  4534  0D83  01FA               	clrf	??_TEMP_TO_CHARS+1
  4535  0D84  0879               	movf	??_TEMP_TO_CHARS,w
  4536  0D85  00F2               	movwf	___awdiv@dividend
  4537  0D86  087A               	movf	??_TEMP_TO_CHARS+1,w
  4538  0D87  00F3               	movwf	___awdiv@dividend+1
  4539  0D88  120A  158A  2594  120A  158A  	fcall	___awdiv
  4540  0D8D  0870               	movf	?___awdiv,w
  4541  0D8E  00FB               	movwf	??_TEMP_TO_CHARS+2
  4542  0D8F  087B               	movf	??_TEMP_TO_CHARS+2,w
  4543  0D90  1283               	bcf	3,5	;RP0=0, select bank0
  4544  0D91  1303               	bcf	3,6	;RP1=0, select bank0
  4545  0D92  00AD               	movwf	_Temp_cents
  4546  0D93                     i1l192:
  4547  0D93  0008               	return
  4548  0D94                     __end_of_TEMP_TO_CHARS:
  4549                           
  4550                           	psect	text18
  4551  0CDA                     __ptext18:	
  4552 ;; *************** function _POT_TO_CHARS *****************
  4553 ;; Defined at:
  4554 ;;		line 220 in file "Principal_Master.c"
  4555 ;; Parameters:    Size  Location     Type
  4556 ;;		None
  4557 ;; Auto vars:     Size  Location     Type
  4558 ;;  valor           1   12[COMMON] unsigned char 
  4559 ;; Return value:  Size  Location     Type
  4560 ;;                  1    wreg      void 
  4561 ;; Registers used:
  4562 ;;		wreg, status,2, status,0, pclath, cstack
  4563 ;; Tracked objects:
  4564 ;;		On entry : 0/0
  4565 ;;		On exit  : 0/0
  4566 ;;		Unchanged: 0/0
  4567 ;; Data sizes:     COMMON   BANK0   BANK1   BANK3   BANK2
  4568 ;;      Params:         0       0       0       0       0
  4569 ;;      Locals:         1       0       0       0       0
  4570 ;;      Temps:          3       0       0       0       0
  4571 ;;      Totals:         4       0       0       0       0
  4572 ;;Total ram usage:        4 bytes
  4573 ;; Hardware stack levels used:    1
  4574 ;; Hardware stack levels required when called:    1
  4575 ;; This function calls:
  4576 ;;		___awdiv
  4577 ;;		___awmod
  4578 ;; This function is called by:
  4579 ;;		_TX
  4580 ;; This function uses a non-reentrant model
  4581 ;;
  4582                           
  4583                           
  4584                           ;psect for function _POT_TO_CHARS
  4585  0CDA                     _POT_TO_CHARS:
  4586  0CDA                     i1l3367:	
  4587                           ;incstack = 0
  4588                           ; Regs used in _POT_TO_CHARS: [wreg+status,2+status,0+pclath+cstack]
  4589                           
  4590                           
  4591                           ;Principal_Master.c: 222:     uint8_t valor = POTENCIOMETRO ;
  4592  0CDA  1283               	bcf	3,5	;RP0=0, select bank0
  4593  0CDB  1303               	bcf	3,6	;RP1=0, select bank0
  4594  0CDC  0832               	movf	_POTENCIOMETRO,w
  4595  0CDD  00F9               	movwf	??_POT_TO_CHARS
  4596  0CDE  0879               	movf	??_POT_TO_CHARS,w
  4597  0CDF  00FC               	movwf	POT_TO_CHARS@valor
  4598  0CE0                     i1l3369:
  4599                           
  4600                           ;Principal_Master.c: 223:     Pot_units = valor %10 ;
  4601  0CE0  300A               	movlw	10
  4602  0CE1  00F0               	movwf	___awmod@divisor
  4603  0CE2  3000               	movlw	0
  4604  0CE3  00F1               	movwf	___awmod@divisor+1
  4605  0CE4  087C               	movf	POT_TO_CHARS@valor,w
  4606  0CE5  00F9               	movwf	??_POT_TO_CHARS
  4607  0CE6  01FA               	clrf	??_POT_TO_CHARS+1
  4608  0CE7  0879               	movf	??_POT_TO_CHARS,w
  4609  0CE8  00F2               	movwf	___awmod@dividend
  4610  0CE9  087A               	movf	??_POT_TO_CHARS+1,w
  4611  0CEA  00F3               	movwf	___awmod@dividend+1
  4612  0CEB  120A  158A  2424  120A  158A  	fcall	___awmod
  4613  0CF0  0870               	movf	?___awmod,w
  4614  0CF1  00FB               	movwf	??_POT_TO_CHARS+2
  4615  0CF2  087B               	movf	??_POT_TO_CHARS+2,w
  4616  0CF3  1283               	bcf	3,5	;RP0=0, select bank0
  4617  0CF4  1303               	bcf	3,6	;RP1=0, select bank0
  4618  0CF5  00AA               	movwf	_Pot_units
  4619  0CF6                     i1l3371:
  4620                           
  4621                           ;Principal_Master.c: 224:     valor = valor/10;
  4622  0CF6  300A               	movlw	10
  4623  0CF7  00F0               	movwf	___awdiv@divisor
  4624  0CF8  3000               	movlw	0
  4625  0CF9  00F1               	movwf	___awdiv@divisor+1
  4626  0CFA  087C               	movf	POT_TO_CHARS@valor,w
  4627  0CFB  00F9               	movwf	??_POT_TO_CHARS
  4628  0CFC  01FA               	clrf	??_POT_TO_CHARS+1
  4629  0CFD  0879               	movf	??_POT_TO_CHARS,w
  4630  0CFE  00F2               	movwf	___awdiv@dividend
  4631  0CFF  087A               	movf	??_POT_TO_CHARS+1,w
  4632  0D00  00F3               	movwf	___awdiv@dividend+1
  4633  0D01  120A  158A  2594  120A  158A  	fcall	___awdiv
  4634  0D06  0870               	movf	?___awdiv,w
  4635  0D07  00FB               	movwf	??_POT_TO_CHARS+2
  4636  0D08  087B               	movf	??_POT_TO_CHARS+2,w
  4637  0D09  00FC               	movwf	POT_TO_CHARS@valor
  4638  0D0A                     i1l3373:
  4639                           
  4640                           ;Principal_Master.c: 225:     Pot_decs = valor %10 ;
  4641  0D0A  300A               	movlw	10
  4642  0D0B  00F0               	movwf	___awmod@divisor
  4643  0D0C  3000               	movlw	0
  4644  0D0D  00F1               	movwf	___awmod@divisor+1
  4645  0D0E  087C               	movf	POT_TO_CHARS@valor,w
  4646  0D0F  00F9               	movwf	??_POT_TO_CHARS
  4647  0D10  01FA               	clrf	??_POT_TO_CHARS+1
  4648  0D11  0879               	movf	??_POT_TO_CHARS,w
  4649  0D12  00F2               	movwf	___awmod@dividend
  4650  0D13  087A               	movf	??_POT_TO_CHARS+1,w
  4651  0D14  00F3               	movwf	___awmod@dividend+1
  4652  0D15  120A  158A  2424  120A  158A  	fcall	___awmod
  4653  0D1A  0870               	movf	?___awmod,w
  4654  0D1B  00FB               	movwf	??_POT_TO_CHARS+2
  4655  0D1C  087B               	movf	??_POT_TO_CHARS+2,w
  4656  0D1D  1283               	bcf	3,5	;RP0=0, select bank0
  4657  0D1E  1303               	bcf	3,6	;RP1=0, select bank0
  4658  0D1F  00A9               	movwf	_Pot_decs
  4659  0D20                     i1l3375:
  4660                           
  4661                           ;Principal_Master.c: 226:     Pot_cents = valor /10 ;
  4662  0D20  300A               	movlw	10
  4663  0D21  00F0               	movwf	___awdiv@divisor
  4664  0D22  3000               	movlw	0
  4665  0D23  00F1               	movwf	___awdiv@divisor+1
  4666  0D24  087C               	movf	POT_TO_CHARS@valor,w
  4667  0D25  00F9               	movwf	??_POT_TO_CHARS
  4668  0D26  01FA               	clrf	??_POT_TO_CHARS+1
  4669  0D27  0879               	movf	??_POT_TO_CHARS,w
  4670  0D28  00F2               	movwf	___awdiv@dividend
  4671  0D29  087A               	movf	??_POT_TO_CHARS+1,w
  4672  0D2A  00F3               	movwf	___awdiv@dividend+1
  4673  0D2B  120A  158A  2594  120A  158A  	fcall	___awdiv
  4674  0D30  0870               	movf	?___awdiv,w
  4675  0D31  00FB               	movwf	??_POT_TO_CHARS+2
  4676  0D32  087B               	movf	??_POT_TO_CHARS+2,w
  4677  0D33  1283               	bcf	3,5	;RP0=0, select bank0
  4678  0D34  1303               	bcf	3,6	;RP1=0, select bank0
  4679  0D35  00AB               	movwf	_Pot_cents
  4680  0D36                     i1l186:
  4681  0D36  0008               	return
  4682  0D37                     __end_of_POT_TO_CHARS:
  4683                           
  4684                           	psect	text19
  4685  0C7D                     __ptext19:	
  4686 ;; *************** function _CONT_TO_CHARS *****************
  4687 ;; Defined at:
  4688 ;;		line 230 in file "Principal_Master.c"
  4689 ;; Parameters:    Size  Location     Type
  4690 ;;		None
  4691 ;; Auto vars:     Size  Location     Type
  4692 ;;  valor           1   12[COMMON] unsigned char 
  4693 ;; Return value:  Size  Location     Type
  4694 ;;                  1    wreg      void 
  4695 ;; Registers used:
  4696 ;;		wreg, status,2, status,0, pclath, cstack
  4697 ;; Tracked objects:
  4698 ;;		On entry : 0/0
  4699 ;;		On exit  : 0/0
  4700 ;;		Unchanged: 0/0
  4701 ;; Data sizes:     COMMON   BANK0   BANK1   BANK3   BANK2
  4702 ;;      Params:         0       0       0       0       0
  4703 ;;      Locals:         1       0       0       0       0
  4704 ;;      Temps:          3       0       0       0       0
  4705 ;;      Totals:         4       0       0       0       0
  4706 ;;Total ram usage:        4 bytes
  4707 ;; Hardware stack levels used:    1
  4708 ;; Hardware stack levels required when called:    1
  4709 ;; This function calls:
  4710 ;;		___awdiv
  4711 ;;		___awmod
  4712 ;; This function is called by:
  4713 ;;		_TX
  4714 ;; This function uses a non-reentrant model
  4715 ;;
  4716                           
  4717                           
  4718                           ;psect for function _CONT_TO_CHARS
  4719  0C7D                     _CONT_TO_CHARS:
  4720  0C7D                     i1l3377:	
  4721                           ;incstack = 0
  4722                           ; Regs used in _CONT_TO_CHARS: [wreg+status,2+status,0+pclath+cstack]
  4723                           
  4724                           
  4725                           ;Principal_Master.c: 232:     uint8_t valor;;Principal_Master.c: 234:     valor= CONT;
  4726  0C7D  1283               	bcf	3,5	;RP0=0, select bank0
  4727  0C7E  1303               	bcf	3,6	;RP1=0, select bank0
  4728  0C7F  0830               	movf	_CONT,w
  4729  0C80  00F9               	movwf	??_CONT_TO_CHARS
  4730  0C81  0879               	movf	??_CONT_TO_CHARS,w
  4731  0C82  00FC               	movwf	CONT_TO_CHARS@valor
  4732  0C83                     i1l3379:
  4733                           
  4734                           ;Principal_Master.c: 235:     cont_units = valor %10 ;
  4735  0C83  300A               	movlw	10
  4736  0C84  00F0               	movwf	___awmod@divisor
  4737  0C85  3000               	movlw	0
  4738  0C86  00F1               	movwf	___awmod@divisor+1
  4739  0C87  087C               	movf	CONT_TO_CHARS@valor,w
  4740  0C88  00F9               	movwf	??_CONT_TO_CHARS
  4741  0C89  01FA               	clrf	??_CONT_TO_CHARS+1
  4742  0C8A  0879               	movf	??_CONT_TO_CHARS,w
  4743  0C8B  00F2               	movwf	___awmod@dividend
  4744  0C8C  087A               	movf	??_CONT_TO_CHARS+1,w
  4745  0C8D  00F3               	movwf	___awmod@dividend+1
  4746  0C8E  120A  158A  2424  120A  158A  	fcall	___awmod
  4747  0C93  0870               	movf	?___awmod,w
  4748  0C94  00FB               	movwf	??_CONT_TO_CHARS+2
  4749  0C95  087B               	movf	??_CONT_TO_CHARS+2,w
  4750  0C96  1283               	bcf	3,5	;RP0=0, select bank0
  4751  0C97  1303               	bcf	3,6	;RP1=0, select bank0
  4752  0C98  00A8               	movwf	_cont_units
  4753  0C99                     i1l3381:
  4754                           
  4755                           ;Principal_Master.c: 236:     valor = valor/10;
  4756  0C99  300A               	movlw	10
  4757  0C9A  00F0               	movwf	___awdiv@divisor
  4758  0C9B  3000               	movlw	0
  4759  0C9C  00F1               	movwf	___awdiv@divisor+1
  4760  0C9D  087C               	movf	CONT_TO_CHARS@valor,w
  4761  0C9E  00F9               	movwf	??_CONT_TO_CHARS
  4762  0C9F  01FA               	clrf	??_CONT_TO_CHARS+1
  4763  0CA0  0879               	movf	??_CONT_TO_CHARS,w
  4764  0CA1  00F2               	movwf	___awdiv@dividend
  4765  0CA2  087A               	movf	??_CONT_TO_CHARS+1,w
  4766  0CA3  00F3               	movwf	___awdiv@dividend+1
  4767  0CA4  120A  158A  2594  120A  158A  	fcall	___awdiv
  4768  0CA9  0870               	movf	?___awdiv,w
  4769  0CAA  00FB               	movwf	??_CONT_TO_CHARS+2
  4770  0CAB  087B               	movf	??_CONT_TO_CHARS+2,w
  4771  0CAC  00FC               	movwf	CONT_TO_CHARS@valor
  4772  0CAD                     i1l3383:
  4773                           
  4774                           ;Principal_Master.c: 237:     cont_decs = valor %10 ;
  4775  0CAD  300A               	movlw	10
  4776  0CAE  00F0               	movwf	___awmod@divisor
  4777  0CAF  3000               	movlw	0
  4778  0CB0  00F1               	movwf	___awmod@divisor+1
  4779  0CB1  087C               	movf	CONT_TO_CHARS@valor,w
  4780  0CB2  00F9               	movwf	??_CONT_TO_CHARS
  4781  0CB3  01FA               	clrf	??_CONT_TO_CHARS+1
  4782  0CB4  0879               	movf	??_CONT_TO_CHARS,w
  4783  0CB5  00F2               	movwf	___awmod@dividend
  4784  0CB6  087A               	movf	??_CONT_TO_CHARS+1,w
  4785  0CB7  00F3               	movwf	___awmod@dividend+1
  4786  0CB8  120A  158A  2424  120A  158A  	fcall	___awmod
  4787  0CBD  0870               	movf	?___awmod,w
  4788  0CBE  00FB               	movwf	??_CONT_TO_CHARS+2
  4789  0CBF  087B               	movf	??_CONT_TO_CHARS+2,w
  4790  0CC0  1283               	bcf	3,5	;RP0=0, select bank0
  4791  0CC1  1303               	bcf	3,6	;RP1=0, select bank0
  4792  0CC2  00A7               	movwf	_cont_decs
  4793  0CC3                     i1l3385:
  4794                           
  4795                           ;Principal_Master.c: 238:     cont_cents = valor /10 ;
  4796  0CC3  300A               	movlw	10
  4797  0CC4  00F0               	movwf	___awdiv@divisor
  4798  0CC5  3000               	movlw	0
  4799  0CC6  00F1               	movwf	___awdiv@divisor+1
  4800  0CC7  087C               	movf	CONT_TO_CHARS@valor,w
  4801  0CC8  00F9               	movwf	??_CONT_TO_CHARS
  4802  0CC9  01FA               	clrf	??_CONT_TO_CHARS+1
  4803  0CCA  0879               	movf	??_CONT_TO_CHARS,w
  4804  0CCB  00F2               	movwf	___awdiv@dividend
  4805  0CCC  087A               	movf	??_CONT_TO_CHARS+1,w
  4806  0CCD  00F3               	movwf	___awdiv@dividend+1
  4807  0CCE  120A  158A  2594  120A  158A  	fcall	___awdiv
  4808  0CD3  0870               	movf	?___awdiv,w
  4809  0CD4  00FB               	movwf	??_CONT_TO_CHARS+2
  4810  0CD5  087B               	movf	??_CONT_TO_CHARS+2,w
  4811  0CD6  1283               	bcf	3,5	;RP0=0, select bank0
  4812  0CD7  1303               	bcf	3,6	;RP1=0, select bank0
  4813  0CD8  00A6               	movwf	_cont_cents
  4814  0CD9                     i1l189:
  4815  0CD9  0008               	return
  4816  0CDA                     __end_of_CONT_TO_CHARS:
  4817                           
  4818                           	psect	text20
  4819  0C24                     __ptext20:	
  4820 ;; *************** function ___awmod *****************
  4821 ;; Defined at:
  4822 ;;		line 5 in file "C:\Program Files\Microchip\xc8\v2.31\pic\sources\c90\common\awmod.c"
  4823 ;; Parameters:    Size  Location     Type
  4824 ;;  divisor         2    0[COMMON] int 
  4825 ;;  dividend        2    2[COMMON] int 
  4826 ;; Auto vars:     Size  Location     Type
  4827 ;;  sign            1    6[COMMON] unsigned char 
  4828 ;;  counter         1    5[COMMON] unsigned char 
  4829 ;; Return value:  Size  Location     Type
  4830 ;;                  2    0[COMMON] int 
  4831 ;; Registers used:
  4832 ;;		wreg, status,2, status,0
  4833 ;; Tracked objects:
  4834 ;;		On entry : 0/0
  4835 ;;		On exit  : 0/0
  4836 ;;		Unchanged: 0/0
  4837 ;; Data sizes:     COMMON   BANK0   BANK1   BANK3   BANK2
  4838 ;;      Params:         4       0       0       0       0
  4839 ;;      Locals:         2       0       0       0       0
  4840 ;;      Temps:          1       0       0       0       0
  4841 ;;      Totals:         7       0       0       0       0
  4842 ;;Total ram usage:        7 bytes
  4843 ;; Hardware stack levels used:    1
  4844 ;; This function calls:
  4845 ;;		Nothing
  4846 ;; This function is called by:
  4847 ;;		_POT_TO_CHARS
  4848 ;;		_CONT_TO_CHARS
  4849 ;;		_TEMP_TO_CHARS
  4850 ;; This function uses a non-reentrant model
  4851 ;;
  4852                           
  4853                           
  4854                           ;psect for function ___awmod
  4855  0C24                     ___awmod:
  4856  0C24                     i1l3287:	
  4857                           ;incstack = 0
  4858                           ; Regs used in ___awmod: [wreg+status,2+status,0]
  4859                           
  4860  0C24  01F6               	clrf	___awmod@sign
  4861  0C25                     i1l3289:
  4862  0C25  1FF3               	btfss	___awmod@dividend+1,7
  4863  0C26  2C28               	goto	u38_21
  4864  0C27  2C29               	goto	u38_20
  4865  0C28                     u38_21:
  4866  0C28  2C30               	goto	i1l3295
  4867  0C29                     u38_20:
  4868  0C29                     i1l3291:
  4869  0C29  09F2               	comf	___awmod@dividend,f
  4870  0C2A  09F3               	comf	___awmod@dividend+1,f
  4871  0C2B  0AF2               	incf	___awmod@dividend,f
  4872  0C2C  1903               	skipnz
  4873  0C2D  0AF3               	incf	___awmod@dividend+1,f
  4874  0C2E                     i1l3293:
  4875  0C2E  01F6               	clrf	___awmod@sign
  4876  0C2F  0AF6               	incf	___awmod@sign,f
  4877  0C30                     i1l3295:
  4878  0C30  1FF1               	btfss	___awmod@divisor+1,7
  4879  0C31  2C33               	goto	u39_21
  4880  0C32  2C34               	goto	u39_20
  4881  0C33                     u39_21:
  4882  0C33  2C39               	goto	i1l3299
  4883  0C34                     u39_20:
  4884  0C34                     i1l3297:
  4885  0C34  09F0               	comf	___awmod@divisor,f
  4886  0C35  09F1               	comf	___awmod@divisor+1,f
  4887  0C36  0AF0               	incf	___awmod@divisor,f
  4888  0C37  1903               	skipnz
  4889  0C38  0AF1               	incf	___awmod@divisor+1,f
  4890  0C39                     i1l3299:
  4891  0C39  0870               	movf	___awmod@divisor,w
  4892  0C3A  0471               	iorwf	___awmod@divisor+1,w
  4893  0C3B  1903               	btfsc	3,2
  4894  0C3C  2C3E               	goto	u40_21
  4895  0C3D  2C3F               	goto	u40_20
  4896  0C3E                     u40_21:
  4897  0C3E  2C6E               	goto	i1l3317
  4898  0C3F                     u40_20:
  4899  0C3F                     i1l3301:
  4900  0C3F  01F5               	clrf	___awmod@counter
  4901  0C40  0AF5               	incf	___awmod@counter,f
  4902  0C41  2C4D               	goto	i1l3307
  4903  0C42                     i1l3303:
  4904  0C42  3001               	movlw	1
  4905  0C43                     u41_25:
  4906  0C43  1003               	clrc
  4907  0C44  0DF0               	rlf	___awmod@divisor,f
  4908  0C45  0DF1               	rlf	___awmod@divisor+1,f
  4909  0C46  3EFF               	addlw	-1
  4910  0C47  1D03               	skipz
  4911  0C48  2C43               	goto	u41_25
  4912  0C49                     i1l3305:
  4913  0C49  3001               	movlw	1
  4914  0C4A  00F4               	movwf	??___awmod
  4915  0C4B  0874               	movf	??___awmod,w
  4916  0C4C  07F5               	addwf	___awmod@counter,f
  4917  0C4D                     i1l3307:
  4918  0C4D  1FF1               	btfss	___awmod@divisor+1,7
  4919  0C4E  2C50               	goto	u42_21
  4920  0C4F  2C51               	goto	u42_20
  4921  0C50                     u42_21:
  4922  0C50  2C42               	goto	i1l3303
  4923  0C51                     u42_20:
  4924  0C51                     i1l3309:
  4925  0C51  0871               	movf	___awmod@divisor+1,w
  4926  0C52  0273               	subwf	___awmod@dividend+1,w
  4927  0C53  1D03               	skipz
  4928  0C54  2C57               	goto	u43_25
  4929  0C55  0870               	movf	___awmod@divisor,w
  4930  0C56  0272               	subwf	___awmod@dividend,w
  4931  0C57                     u43_25:
  4932  0C57  1C03               	skipc
  4933  0C58  2C5A               	goto	u43_21
  4934  0C59  2C5B               	goto	u43_20
  4935  0C5A                     u43_21:
  4936  0C5A  2C61               	goto	i1l3313
  4937  0C5B                     u43_20:
  4938  0C5B                     i1l3311:
  4939  0C5B  0870               	movf	___awmod@divisor,w
  4940  0C5C  02F2               	subwf	___awmod@dividend,f
  4941  0C5D  0871               	movf	___awmod@divisor+1,w
  4942  0C5E  1C03               	skipc
  4943  0C5F  03F3               	decf	___awmod@dividend+1,f
  4944  0C60  02F3               	subwf	___awmod@dividend+1,f
  4945  0C61                     i1l3313:
  4946  0C61  3001               	movlw	1
  4947  0C62                     u44_25:
  4948  0C62  1003               	clrc
  4949  0C63  0CF1               	rrf	___awmod@divisor+1,f
  4950  0C64  0CF0               	rrf	___awmod@divisor,f
  4951  0C65  3EFF               	addlw	-1
  4952  0C66  1D03               	skipz
  4953  0C67  2C62               	goto	u44_25
  4954  0C68                     i1l3315:
  4955  0C68  3001               	movlw	1
  4956  0C69  02F5               	subwf	___awmod@counter,f
  4957  0C6A  1D03               	btfss	3,2
  4958  0C6B  2C6D               	goto	u45_21
  4959  0C6C  2C6E               	goto	u45_20
  4960  0C6D                     u45_21:
  4961  0C6D  2C51               	goto	i1l3309
  4962  0C6E                     u45_20:
  4963  0C6E                     i1l3317:
  4964  0C6E  0876               	movf	___awmod@sign,w
  4965  0C6F  1903               	btfsc	3,2
  4966  0C70  2C72               	goto	u46_21
  4967  0C71  2C73               	goto	u46_20
  4968  0C72                     u46_21:
  4969  0C72  2C78               	goto	i1l3321
  4970  0C73                     u46_20:
  4971  0C73                     i1l3319:
  4972  0C73  09F2               	comf	___awmod@dividend,f
  4973  0C74  09F3               	comf	___awmod@dividend+1,f
  4974  0C75  0AF2               	incf	___awmod@dividend,f
  4975  0C76  1903               	skipnz
  4976  0C77  0AF3               	incf	___awmod@dividend+1,f
  4977  0C78                     i1l3321:
  4978  0C78  0873               	movf	___awmod@dividend+1,w
  4979  0C79  00F1               	movwf	?___awmod+1
  4980  0C7A  0872               	movf	___awmod@dividend,w
  4981  0C7B  00F0               	movwf	?___awmod
  4982  0C7C                     i1l797:
  4983  0C7C  0008               	return
  4984  0C7D                     __end_of___awmod:
  4985                           
  4986                           	psect	text21
  4987  0D94                     __ptext21:	
  4988 ;; *************** function ___awdiv *****************
  4989 ;; Defined at:
  4990 ;;		line 5 in file "C:\Program Files\Microchip\xc8\v2.31\pic\sources\c90\common\awdiv.c"
  4991 ;; Parameters:    Size  Location     Type
  4992 ;;  divisor         2    0[COMMON] int 
  4993 ;;  dividend        2    2[COMMON] int 
  4994 ;; Auto vars:     Size  Location     Type
  4995 ;;  quotient        2    7[COMMON] int 
  4996 ;;  sign            1    6[COMMON] unsigned char 
  4997 ;;  counter         1    5[COMMON] unsigned char 
  4998 ;; Return value:  Size  Location     Type
  4999 ;;                  2    0[COMMON] int 
  5000 ;; Registers used:
  5001 ;;		wreg, status,2, status,0
  5002 ;; Tracked objects:
  5003 ;;		On entry : 0/0
  5004 ;;		On exit  : 0/0
  5005 ;;		Unchanged: 0/0
  5006 ;; Data sizes:     COMMON   BANK0   BANK1   BANK3   BANK2
  5007 ;;      Params:         4       0       0       0       0
  5008 ;;      Locals:         4       0       0       0       0
  5009 ;;      Temps:          1       0       0       0       0
  5010 ;;      Totals:         9       0       0       0       0
  5011 ;;Total ram usage:        9 bytes
  5012 ;; Hardware stack levels used:    1
  5013 ;; This function calls:
  5014 ;;		Nothing
  5015 ;; This function is called by:
  5016 ;;		_POT_TO_CHARS
  5017 ;;		_CONT_TO_CHARS
  5018 ;;		_TEMP_TO_CHARS
  5019 ;; This function uses a non-reentrant model
  5020 ;;
  5021                           
  5022                           
  5023                           ;psect for function ___awdiv
  5024  0D94                     ___awdiv:
  5025  0D94                     i1l3243:	
  5026                           ;incstack = 0
  5027                           ; Regs used in ___awdiv: [wreg+status,2+status,0]
  5028                           
  5029  0D94  01F6               	clrf	___awdiv@sign
  5030  0D95                     i1l3245:
  5031  0D95  1FF1               	btfss	___awdiv@divisor+1,7
  5032  0D96  2D98               	goto	u28_21
  5033  0D97  2D99               	goto	u28_20
  5034  0D98                     u28_21:
  5035  0D98  2DA0               	goto	i1l3251
  5036  0D99                     u28_20:
  5037  0D99                     i1l3247:
  5038  0D99  09F0               	comf	___awdiv@divisor,f
  5039  0D9A  09F1               	comf	___awdiv@divisor+1,f
  5040  0D9B  0AF0               	incf	___awdiv@divisor,f
  5041  0D9C  1903               	skipnz
  5042  0D9D  0AF1               	incf	___awdiv@divisor+1,f
  5043  0D9E                     i1l3249:
  5044  0D9E  01F6               	clrf	___awdiv@sign
  5045  0D9F  0AF6               	incf	___awdiv@sign,f
  5046  0DA0                     i1l3251:
  5047  0DA0  1FF3               	btfss	___awdiv@dividend+1,7
  5048  0DA1  2DA3               	goto	u29_21
  5049  0DA2  2DA4               	goto	u29_20
  5050  0DA3                     u29_21:
  5051  0DA3  2DAD               	goto	i1l3257
  5052  0DA4                     u29_20:
  5053  0DA4                     i1l3253:
  5054  0DA4  09F2               	comf	___awdiv@dividend,f
  5055  0DA5  09F3               	comf	___awdiv@dividend+1,f
  5056  0DA6  0AF2               	incf	___awdiv@dividend,f
  5057  0DA7  1903               	skipnz
  5058  0DA8  0AF3               	incf	___awdiv@dividend+1,f
  5059  0DA9                     i1l3255:
  5060  0DA9  3001               	movlw	1
  5061  0DAA  00F4               	movwf	??___awdiv
  5062  0DAB  0874               	movf	??___awdiv,w
  5063  0DAC  06F6               	xorwf	___awdiv@sign,f
  5064  0DAD                     i1l3257:
  5065  0DAD  01F7               	clrf	___awdiv@quotient
  5066  0DAE  01F8               	clrf	___awdiv@quotient+1
  5067  0DAF                     i1l3259:
  5068  0DAF  0870               	movf	___awdiv@divisor,w
  5069  0DB0  0471               	iorwf	___awdiv@divisor+1,w
  5070  0DB1  1903               	btfsc	3,2
  5071  0DB2  2DB4               	goto	u30_21
  5072  0DB3  2DB5               	goto	u30_20
  5073  0DB4                     u30_21:
  5074  0DB4  2DEC               	goto	i1l3279
  5075  0DB5                     u30_20:
  5076  0DB5                     i1l3261:
  5077  0DB5  01F5               	clrf	___awdiv@counter
  5078  0DB6  0AF5               	incf	___awdiv@counter,f
  5079  0DB7  2DC3               	goto	i1l3267
  5080  0DB8                     i1l3263:
  5081  0DB8  3001               	movlw	1
  5082  0DB9                     u31_25:
  5083  0DB9  1003               	clrc
  5084  0DBA  0DF0               	rlf	___awdiv@divisor,f
  5085  0DBB  0DF1               	rlf	___awdiv@divisor+1,f
  5086  0DBC  3EFF               	addlw	-1
  5087  0DBD  1D03               	skipz
  5088  0DBE  2DB9               	goto	u31_25
  5089  0DBF                     i1l3265:
  5090  0DBF  3001               	movlw	1
  5091  0DC0  00F4               	movwf	??___awdiv
  5092  0DC1  0874               	movf	??___awdiv,w
  5093  0DC2  07F5               	addwf	___awdiv@counter,f
  5094  0DC3                     i1l3267:
  5095  0DC3  1FF1               	btfss	___awdiv@divisor+1,7
  5096  0DC4  2DC6               	goto	u32_21
  5097  0DC5  2DC7               	goto	u32_20
  5098  0DC6                     u32_21:
  5099  0DC6  2DB8               	goto	i1l3263
  5100  0DC7                     u32_20:
  5101  0DC7                     i1l3269:
  5102  0DC7  3001               	movlw	1
  5103  0DC8                     u33_25:
  5104  0DC8  1003               	clrc
  5105  0DC9  0DF7               	rlf	___awdiv@quotient,f
  5106  0DCA  0DF8               	rlf	___awdiv@quotient+1,f
  5107  0DCB  3EFF               	addlw	-1
  5108  0DCC  1D03               	skipz
  5109  0DCD  2DC8               	goto	u33_25
  5110  0DCE  0871               	movf	___awdiv@divisor+1,w
  5111  0DCF  0273               	subwf	___awdiv@dividend+1,w
  5112  0DD0  1D03               	skipz
  5113  0DD1  2DD4               	goto	u34_25
  5114  0DD2  0870               	movf	___awdiv@divisor,w
  5115  0DD3  0272               	subwf	___awdiv@dividend,w
  5116  0DD4                     u34_25:
  5117  0DD4  1C03               	skipc
  5118  0DD5  2DD7               	goto	u34_21
  5119  0DD6  2DD8               	goto	u34_20
  5120  0DD7                     u34_21:
  5121  0DD7  2DDF               	goto	i1l3275
  5122  0DD8                     u34_20:
  5123  0DD8                     i1l3271:
  5124  0DD8  0870               	movf	___awdiv@divisor,w
  5125  0DD9  02F2               	subwf	___awdiv@dividend,f
  5126  0DDA  0871               	movf	___awdiv@divisor+1,w
  5127  0DDB  1C03               	skipc
  5128  0DDC  03F3               	decf	___awdiv@dividend+1,f
  5129  0DDD  02F3               	subwf	___awdiv@dividend+1,f
  5130  0DDE                     i1l3273:
  5131  0DDE  1477               	bsf	___awdiv@quotient,0
  5132  0DDF                     i1l3275:
  5133  0DDF  3001               	movlw	1
  5134  0DE0                     u35_25:
  5135  0DE0  1003               	clrc
  5136  0DE1  0CF1               	rrf	___awdiv@divisor+1,f
  5137  0DE2  0CF0               	rrf	___awdiv@divisor,f
  5138  0DE3  3EFF               	addlw	-1
  5139  0DE4  1D03               	skipz
  5140  0DE5  2DE0               	goto	u35_25
  5141  0DE6                     i1l3277:
  5142  0DE6  3001               	movlw	1
  5143  0DE7  02F5               	subwf	___awdiv@counter,f
  5144  0DE8  1D03               	btfss	3,2
  5145  0DE9  2DEB               	goto	u36_21
  5146  0DEA  2DEC               	goto	u36_20
  5147  0DEB                     u36_21:
  5148  0DEB  2DC7               	goto	i1l3269
  5149  0DEC                     u36_20:
  5150  0DEC                     i1l3279:
  5151  0DEC  0876               	movf	___awdiv@sign,w
  5152  0DED  1903               	btfsc	3,2
  5153  0DEE  2DF0               	goto	u37_21
  5154  0DEF  2DF1               	goto	u37_20
  5155  0DF0                     u37_21:
  5156  0DF0  2DF6               	goto	i1l3283
  5157  0DF1                     u37_20:
  5158  0DF1                     i1l3281:
  5159  0DF1  09F7               	comf	___awdiv@quotient,f
  5160  0DF2  09F8               	comf	___awdiv@quotient+1,f
  5161  0DF3  0AF7               	incf	___awdiv@quotient,f
  5162  0DF4  1903               	skipnz
  5163  0DF5  0AF8               	incf	___awdiv@quotient+1,f
  5164  0DF6                     i1l3283:
  5165  0DF6  0878               	movf	___awdiv@quotient+1,w
  5166  0DF7  00F1               	movwf	?___awdiv+1
  5167  0DF8  0877               	movf	___awdiv@quotient,w
  5168  0DF9  00F0               	movwf	?___awdiv
  5169  0DFA                     i1l784:
  5170  0DFA  0008               	return
  5171  0DFB                     __end_of___awdiv:
  5172  007E                     btemp	set	126	;btemp
  5173  007E                     wtemp0	set	126
  5174                           
  5175                           	psect	config
  5176                           
  5177                           ;Config register CONFIG1 @ 0x2007
  5178                           ;	Oscillator Selection bits
  5179                           ;	FOSC = EXTRC_CLKOUT, RC oscillator: CLKOUT function on RA6/OSC2/CLKOUT pin, RC on RA7/
      +                          OSC1/CLKIN
  5180                           ;	Watchdog Timer Enable bit
  5181                           ;	WDTE = OFF, WDT disabled and can be enabled by SWDTEN bit of the WDTCON register
  5182                           ;	Power-up Timer Enable bit
  5183                           ;	PWRTE = OFF, PWRT disabled
  5184                           ;	RE3/MCLR pin function select bit
  5185                           ;	MCLRE = OFF, RE3/MCLR pin function is digital input, MCLR internally tied to VDD
  5186                           ;	Code Protection bit
  5187                           ;	CP = OFF, Program memory code protection is disabled
  5188                           ;	Data Code Protection bit
  5189                           ;	CPD = OFF, Data memory code protection is disabled
  5190                           ;	Brown Out Reset Selection bits
  5191                           ;	BOREN = OFF, BOR disabled
  5192                           ;	Internal External Switchover bit
  5193                           ;	IESO = OFF, Internal/External Switchover mode is disabled
  5194                           ;	Fail-Safe Clock Monitor Enabled bit
  5195                           ;	FCMEN = OFF, Fail-Safe Clock Monitor is disabled
  5196                           ;	Low Voltage Programming Enable bit
  5197                           ;	LVP = OFF, RB3 pin has digital I/O, HV on MCLR must be used for programming
  5198                           ;	In-Circuit Debugger Mode bit
  5199                           ;	DEBUG = 0x1, unprogrammed default
  5200  2007                     	org	8199
  5201  2007  20D7               	dw	8407
  5202                           
  5203                           ;Config register CONFIG2 @ 0x2008
  5204                           ;	Brown-out Reset Selection bit
  5205                           ;	BOR4V = BOR40V, Brown-out Reset set to 4.0V
  5206                           ;	Flash Program Memory Self Write Enable bits
  5207                           ;	WRT = OFF, Write protection off
  5208  2008                     	org	8200
  5209  2008  3FFF               	dw	16383
  5210                           
  5211                           	psect	text14_split_1
  5212  0021                     l3883:
  5213                           
  5214                           ;LCD.c: 232:             return "051";
  5215  0021  30AA               	movlw	low (STR_55| (0+32768))
  5216  0022  00BA               	movwf	?_CONV
  5217  0023  3088               	movlw	high (STR_55| (0+32768))
  5218  0024  00BB               	movwf	?_CONV+1
  5219  0025  2F2D               	goto	l253
  5220  0026                     l3889:
  5221                           
  5222                           ;LCD.c: 235:             return "052";
  5223  0026  3012               	movlw	low (STR_56| (0+32768))
  5224  0027  00BA               	movwf	?_CONV
  5225  0028  3089               	movlw	high (STR_56| (0+32768))
  5226  0029  00BB               	movwf	?_CONV+1
  5227  002A  2F2D               	goto	l253
  5228  002B                     l3895:
  5229                           
  5230                           ;LCD.c: 238:             return "053";
  5231  002B  3076               	movlw	low (STR_57| (0+32768))
  5232  002C  00BA               	movwf	?_CONV
  5233  002D  3089               	movlw	high (STR_57| (0+32768))
  5234  002E  00BB               	movwf	?_CONV+1
  5235  002F  2F2D               	goto	l253
  5236  0030                     l3901:
  5237                           
  5238                           ;LCD.c: 241:             return "054";
  5239  0030  30DA               	movlw	low (STR_58| (0+32768))
  5240  0031  00BA               	movwf	?_CONV
  5241  0032  3089               	movlw	high (STR_58| (0+32768))
  5242  0033  00BB               	movwf	?_CONV+1
  5243  0034  2F2D               	goto	l253
  5244  0035                     l3907:
  5245                           
  5246                           ;LCD.c: 244:             return "055";
  5247  0035  3042               	movlw	low (STR_59| (0+32768))
  5248  0036  00BA               	movwf	?_CONV
  5249  0037  308A               	movlw	high (STR_59| (0+32768))
  5250  0038  00BB               	movwf	?_CONV+1
  5251  0039  2F2D               	goto	l253
  5252  003A                     l3913:
  5253                           
  5254                           ;LCD.c: 247:             return "056";
  5255  003A  30AA               	movlw	low (STR_60| (0+32768))
  5256  003B  00BA               	movwf	?_CONV
  5257  003C  308A               	movlw	high (STR_60| (0+32768))
  5258  003D  00BB               	movwf	?_CONV+1
  5259  003E  2F2D               	goto	l253
  5260  003F                     l3919:
  5261                           
  5262                           ;LCD.c: 250:             return "057";
  5263  003F  300E               	movlw	low (STR_61| (0+32768))
  5264  0040  00BA               	movwf	?_CONV
  5265  0041  308B               	movlw	high (STR_61| (0+32768))
  5266  0042  00BB               	movwf	?_CONV+1
  5267  0043  2F2D               	goto	l253
  5268  0044                     l3925:
  5269                           
  5270                           ;LCD.c: 253:             return "058";
  5271  0044  3072               	movlw	low (STR_62| (0+32768))
  5272  0045  00BA               	movwf	?_CONV
  5273  0046  308B               	movlw	high (STR_62| (0+32768))
  5274  0047  00BB               	movwf	?_CONV+1
  5275  0048  2F2D               	goto	l253
  5276  0049                     l3931:
  5277                           
  5278                           ;LCD.c: 256:             return "059";
  5279  0049  30D6               	movlw	low (STR_63| (0+32768))
  5280  004A  00BA               	movwf	?_CONV
  5281  004B  308B               	movlw	high (STR_63| (0+32768))
  5282  004C  00BB               	movwf	?_CONV+1
  5283  004D  2F2D               	goto	l253
  5284  004E                     l3937:
  5285                           
  5286                           ;LCD.c: 259:             return "060";
  5287  004E  304E               	movlw	low (STR_64| (0+32768))
  5288  004F  00BA               	movwf	?_CONV
  5289  0050  3088               	movlw	high (STR_64| (0+32768))
  5290  0051  00BB               	movwf	?_CONV+1
  5291  0052  2F2D               	goto	l253
  5292  0053                     l3943:
  5293                           
  5294                           ;LCD.c: 262:             return "061";
  5295  0053  30B6               	movlw	low (STR_65| (0+32768))
  5296  0054  00BA               	movwf	?_CONV
  5297  0055  3088               	movlw	high (STR_65| (0+32768))
  5298  0056  00BB               	movwf	?_CONV+1
  5299  0057  2F2D               	goto	l253
  5300  0058                     l3949:
  5301                           
  5302                           ;LCD.c: 265:             return "062";
  5303  0058  301A               	movlw	low (STR_66| (0+32768))
  5304  0059  00BA               	movwf	?_CONV
  5305  005A  3089               	movlw	high (STR_66| (0+32768))
  5306  005B  00BB               	movwf	?_CONV+1
  5307  005C  2F2D               	goto	l253
  5308  005D                     l3955:
  5309                           
  5310                           ;LCD.c: 268:             return "063";
  5311  005D  307E               	movlw	low (STR_67| (0+32768))
  5312  005E  00BA               	movwf	?_CONV
  5313  005F  3089               	movlw	high (STR_67| (0+32768))
  5314  0060  00BB               	movwf	?_CONV+1
  5315  0061  2F2D               	goto	l253
  5316  0062                     l3961:
  5317                           
  5318                           ;LCD.c: 271:             return "064";
  5319  0062  30E6               	movlw	low (STR_68| (0+32768))
  5320  0063  00BA               	movwf	?_CONV
  5321  0064  3089               	movlw	high (STR_68| (0+32768))
  5322  0065  00BB               	movwf	?_CONV+1
  5323  0066  2F2D               	goto	l253
  5324  0067                     l3967:
  5325                           
  5326                           ;LCD.c: 274:             return "065";
  5327  0067  304E               	movlw	low (STR_69| (0+32768))
  5328  0068  00BA               	movwf	?_CONV
  5329  0069  308A               	movlw	high (STR_69| (0+32768))
  5330  006A  00BB               	movwf	?_CONV+1
  5331  006B  2F2D               	goto	l253
  5332  006C                     l3973:
  5333                           
  5334                           ;LCD.c: 277:             return "066";
  5335  006C  30B2               	movlw	low (STR_70| (0+32768))
  5336  006D  00BA               	movwf	?_CONV
  5337  006E  308A               	movlw	high (STR_70| (0+32768))
  5338  006F  00BB               	movwf	?_CONV+1
  5339  0070  2F2D               	goto	l253
  5340  0071                     l3979:
  5341                           
  5342                           ;LCD.c: 280:             return "067";
  5343  0071  3016               	movlw	low (STR_71| (0+32768))
  5344  0072  00BA               	movwf	?_CONV
  5345  0073  308B               	movlw	high (STR_71| (0+32768))
  5346  0074  00BB               	movwf	?_CONV+1
  5347  0075  2F2D               	goto	l253
  5348  0076                     l3985:
  5349                           
  5350                           ;LCD.c: 283:             return "068";
  5351  0076  307A               	movlw	low (STR_72| (0+32768))
  5352  0077  00BA               	movwf	?_CONV
  5353  0078  308B               	movlw	high (STR_72| (0+32768))
  5354  0079  00BB               	movwf	?_CONV+1
  5355  007A  2F2D               	goto	l253
  5356  007B                     l3991:
  5357                           
  5358                           ;LCD.c: 286:             return "069";
  5359  007B  30DE               	movlw	low (STR_73| (0+32768))
  5360  007C  00BA               	movwf	?_CONV
  5361  007D  308B               	movlw	high (STR_73| (0+32768))
  5362  007E  00BB               	movwf	?_CONV+1
  5363  007F  2F2D               	goto	l253
  5364  0080                     l3997:
  5365                           
  5366                           ;LCD.c: 289:             return "070";
  5367  0080  3056               	movlw	low (STR_74| (0+32768))
  5368  0081  00BA               	movwf	?_CONV
  5369  0082  3088               	movlw	high (STR_74| (0+32768))
  5370  0083  00BB               	movwf	?_CONV+1
  5371  0084  2F2D               	goto	l253
  5372  0085                     l4003:
  5373                           
  5374                           ;LCD.c: 292:             return "071";
  5375  0085  30BE               	movlw	low (STR_75| (0+32768))
  5376  0086  00BA               	movwf	?_CONV
  5377  0087  3088               	movlw	high (STR_75| (0+32768))
  5378  0088  00BB               	movwf	?_CONV+1
  5379  0089  2F2D               	goto	l253
  5380  008A                     l4009:
  5381                           
  5382                           ;LCD.c: 295:             return "072";
  5383  008A  3022               	movlw	low (STR_76| (0+32768))
  5384  008B  00BA               	movwf	?_CONV
  5385  008C  3089               	movlw	high (STR_76| (0+32768))
  5386  008D  00BB               	movwf	?_CONV+1
  5387  008E  2F2D               	goto	l253
  5388  008F                     l4015:
  5389                           
  5390                           ;LCD.c: 298:             return "073";
  5391  008F  3086               	movlw	low (STR_77| (0+32768))
  5392  0090  00BA               	movwf	?_CONV
  5393  0091  3089               	movlw	high (STR_77| (0+32768))
  5394  0092  00BB               	movwf	?_CONV+1
  5395  0093  2F2D               	goto	l253
  5396  0094                     l4021:
  5397                           
  5398                           ;LCD.c: 301:             return "074";
  5399  0094  30EE               	movlw	low (STR_78| (0+32768))
  5400  0095  00BA               	movwf	?_CONV
  5401  0096  3089               	movlw	high (STR_78| (0+32768))
  5402  0097  00BB               	movwf	?_CONV+1
  5403  0098  2F2D               	goto	l253
  5404  0099                     l4027:
  5405                           
  5406                           ;LCD.c: 304:             return "075";
  5407  0099  3056               	movlw	low (STR_79| (0+32768))
  5408  009A  00BA               	movwf	?_CONV
  5409  009B  308A               	movlw	high (STR_79| (0+32768))
  5410  009C  00BB               	movwf	?_CONV+1
  5411  009D  2F2D               	goto	l253
  5412  009E                     l4033:
  5413                           
  5414                           ;LCD.c: 307:             return "076";
  5415  009E  30BA               	movlw	low (STR_80| (0+32768))
  5416  009F  00BA               	movwf	?_CONV
  5417  00A0  308A               	movlw	high (STR_80| (0+32768))
  5418  00A1  00BB               	movwf	?_CONV+1
  5419  00A2  2F2D               	goto	l253
  5420  00A3                     l4039:
  5421                           
  5422                           ;LCD.c: 310:             return "077";
  5423  00A3  301E               	movlw	low (STR_81| (0+32768))
  5424  00A4  00BA               	movwf	?_CONV
  5425  00A5  308B               	movlw	high (STR_81| (0+32768))
  5426  00A6  00BB               	movwf	?_CONV+1
  5427  00A7  2F2D               	goto	l253
  5428  00A8                     l4045:
  5429                           
  5430                           ;LCD.c: 313:             return "078";
  5431  00A8  3082               	movlw	low (STR_82| (0+32768))
  5432  00A9  00BA               	movwf	?_CONV
  5433  00AA  308B               	movlw	high (STR_82| (0+32768))
  5434  00AB  00BB               	movwf	?_CONV+1
  5435  00AC  2F2D               	goto	l253
  5436  00AD                     l4051:
  5437                           
  5438                           ;LCD.c: 316:             return "079";
  5439  00AD  30E6               	movlw	low (STR_83| (0+32768))
  5440  00AE  00BA               	movwf	?_CONV
  5441  00AF  308B               	movlw	high (STR_83| (0+32768))
  5442  00B0  00BB               	movwf	?_CONV+1
  5443  00B1  2F2D               	goto	l253
  5444  00B2                     l4057:
  5445                           
  5446                           ;LCD.c: 319:             return "080";
  5447  00B2  305E               	movlw	low (STR_84| (0+32768))
  5448  00B3  00BA               	movwf	?_CONV
  5449  00B4  3088               	movlw	high (STR_84| (0+32768))
  5450  00B5  00BB               	movwf	?_CONV+1
  5451  00B6  2F2D               	goto	l253
  5452  00B7                     l4063:
  5453                           
  5454                           ;LCD.c: 322:             return "081";
  5455  00B7  30C6               	movlw	low (STR_85| (0+32768))
  5456  00B8  00BA               	movwf	?_CONV
  5457  00B9  3088               	movlw	high (STR_85| (0+32768))
  5458  00BA  00BB               	movwf	?_CONV+1
  5459  00BB  2F2D               	goto	l253
  5460  00BC                     l4069:
  5461                           
  5462                           ;LCD.c: 325:             return "082";
  5463  00BC  302A               	movlw	low (STR_86| (0+32768))
  5464  00BD  00BA               	movwf	?_CONV
  5465  00BE  3089               	movlw	high (STR_86| (0+32768))
  5466  00BF  00BB               	movwf	?_CONV+1
  5467  00C0  2F2D               	goto	l253
  5468  00C1                     l4075:
  5469                           
  5470                           ;LCD.c: 328:             return "083";
  5471  00C1  308E               	movlw	low (STR_87| (0+32768))
  5472  00C2  00BA               	movwf	?_CONV
  5473  00C3  3089               	movlw	high (STR_87| (0+32768))
  5474  00C4  00BB               	movwf	?_CONV+1
  5475  00C5  2F2D               	goto	l253
  5476  00C6                     l4081:
  5477                           
  5478                           ;LCD.c: 331:             return "084";
  5479  00C6  30F6               	movlw	low (STR_88| (0+32768))
  5480  00C7  00BA               	movwf	?_CONV
  5481  00C8  3089               	movlw	high (STR_88| (0+32768))
  5482  00C9  00BB               	movwf	?_CONV+1
  5483  00CA  2F2D               	goto	l253
  5484  00CB                     l4087:
  5485                           
  5486                           ;LCD.c: 334:             return "085";
  5487  00CB  305E               	movlw	low (STR_89| (0+32768))
  5488  00CC  00BA               	movwf	?_CONV
  5489  00CD  308A               	movlw	high (STR_89| (0+32768))
  5490  00CE  00BB               	movwf	?_CONV+1
  5491  00CF  2F2D               	goto	l253
  5492  00D0                     l4093:
  5493                           
  5494                           ;LCD.c: 337:             return "086";
  5495  00D0  30C2               	movlw	low (STR_90| (0+32768))
  5496  00D1  00BA               	movwf	?_CONV
  5497  00D2  308A               	movlw	high (STR_90| (0+32768))
  5498  00D3  00BB               	movwf	?_CONV+1
  5499  00D4  2F2D               	goto	l253
  5500  00D5                     l4099:
  5501                           
  5502                           ;LCD.c: 340:             return "087";
  5503  00D5  3026               	movlw	low (STR_91| (0+32768))
  5504  00D6  00BA               	movwf	?_CONV
  5505  00D7  308B               	movlw	high (STR_91| (0+32768))
  5506  00D8  00BB               	movwf	?_CONV+1
  5507  00D9  2F2D               	goto	l253
  5508  00DA                     l4105:
  5509                           
  5510                           ;LCD.c: 343:             return "088";
  5511  00DA  308A               	movlw	low (STR_92| (0+32768))
  5512  00DB  00BA               	movwf	?_CONV
  5513  00DC  308B               	movlw	high (STR_92| (0+32768))
  5514  00DD  00BB               	movwf	?_CONV+1
  5515  00DE  2F2D               	goto	l253
  5516  00DF                     l4111:
  5517                           
  5518                           ;LCD.c: 346:             return "089";
  5519  00DF  30EE               	movlw	low (STR_93| (0+32768))
  5520  00E0  00BA               	movwf	?_CONV
  5521  00E1  308B               	movlw	high (STR_93| (0+32768))
  5522  00E2  00BB               	movwf	?_CONV+1
  5523  00E3  2F2D               	goto	l253
  5524  00E4                     l4117:
  5525                           
  5526                           ;LCD.c: 349:             return "090";
  5527  00E4  3066               	movlw	low (STR_94| (0+32768))
  5528  00E5  00BA               	movwf	?_CONV
  5529  00E6  3088               	movlw	high (STR_94| (0+32768))
  5530  00E7  00BB               	movwf	?_CONV+1
  5531  00E8  2F2D               	goto	l253
  5532  00E9                     l4123:
  5533                           
  5534                           ;LCD.c: 352:             return "091";
  5535  00E9  30CE               	movlw	low (STR_95| (0+32768))
  5536  00EA  00BA               	movwf	?_CONV
  5537  00EB  3088               	movlw	high (STR_95| (0+32768))
  5538  00EC  00BB               	movwf	?_CONV+1
  5539  00ED  2F2D               	goto	l253
  5540  00EE                     l4129:
  5541                           
  5542                           ;LCD.c: 355:             return "092";
  5543  00EE  3032               	movlw	low (STR_96| (0+32768))
  5544  00EF  00BA               	movwf	?_CONV
  5545  00F0  3089               	movlw	high (STR_96| (0+32768))
  5546  00F1  00BB               	movwf	?_CONV+1
  5547  00F2  2F2D               	goto	l253
  5548  00F3                     l4135:
  5549                           
  5550                           ;LCD.c: 358:             return "093";
  5551  00F3  3096               	movlw	low (STR_97| (0+32768))
  5552  00F4  00BA               	movwf	?_CONV
  5553  00F5  3089               	movlw	high (STR_97| (0+32768))
  5554  00F6  00BB               	movwf	?_CONV+1
  5555  00F7  2F2D               	goto	l253
  5556  00F8                     l4141:
  5557                           
  5558                           ;LCD.c: 361:             return "094";
  5559  00F8  30FE               	movlw	low (STR_98| (0+32768))
  5560  00F9  00BA               	movwf	?_CONV
  5561  00FA  3089               	movlw	high (STR_98| (0+32768))
  5562  00FB  00BB               	movwf	?_CONV+1
  5563  00FC  2F2D               	goto	l253
  5564  00FD                     l4147:
  5565                           
  5566                           ;LCD.c: 364:             return "095";
  5567  00FD  3066               	movlw	low (STR_99| (0+32768))
  5568  00FE  00BA               	movwf	?_CONV
  5569  00FF  308A               	movlw	high (STR_99| (0+32768))
  5570  0100  00BB               	movwf	?_CONV+1
  5571  0101  2F2D               	goto	l253
  5572  0102                     l4153:
  5573                           
  5574                           ;LCD.c: 367:             return "096";
  5575  0102  30CA               	movlw	low (STR_100| (0+32768))
  5576  0103  00BA               	movwf	?_CONV
  5577  0104  308A               	movlw	high (STR_100| (0+32768))
  5578  0105  00BB               	movwf	?_CONV+1
  5579  0106  2F2D               	goto	l253
  5580  0107                     l4159:
  5581                           
  5582                           ;LCD.c: 370:             return "097";
  5583  0107  302E               	movlw	low (STR_101| (0+32768))
  5584  0108  00BA               	movwf	?_CONV
  5585  0109  308B               	movlw	high (STR_101| (0+32768))
  5586  010A  00BB               	movwf	?_CONV+1
  5587  010B  2F2D               	goto	l253
  5588  010C                     l4165:
  5589                           
  5590                           ;LCD.c: 373:             return "098";
  5591  010C  3092               	movlw	low (STR_102| (0+32768))
  5592  010D  00BA               	movwf	?_CONV
  5593  010E  308B               	movlw	high (STR_102| (0+32768))
  5594  010F  00BB               	movwf	?_CONV+1
  5595  0110  2F2D               	goto	l253
  5596  0111                     l4171:
  5597                           
  5598                           ;LCD.c: 376:             return "099";
  5599  0111  30F6               	movlw	low (STR_103| (0+32768))
  5600  0112  00BA               	movwf	?_CONV
  5601  0113  308B               	movlw	high (STR_103| (0+32768))
  5602  0114  00BB               	movwf	?_CONV+1
  5603  0115  2F2D               	goto	l253
  5604  0116                     l4177:
  5605                           
  5606                           ;LCD.c: 379:             return "100";
  5607  0116  300E               	movlw	low (STR_104| (0+32768))
  5608  0117  00BA               	movwf	?_CONV
  5609  0118  3088               	movlw	high (STR_104| (0+32768))
  5610  0119  00BB               	movwf	?_CONV+1
  5611  011A  2F2D               	goto	l253
  5612  011B                     l4183:
  5613                           
  5614                           ;LCD.c: 382:             return "101";
  5615  011B  3072               	movlw	low (STR_105| (0+32768))
  5616  011C  00BA               	movwf	?_CONV
  5617  011D  3088               	movlw	high (STR_105| (0+32768))
  5618  011E  00BB               	movwf	?_CONV+1
  5619  011F  2F2D               	goto	l253
  5620  0120                     l4189:
  5621                           
  5622                           ;LCD.c: 385:             return "102";
  5623  0120  30DA               	movlw	low (STR_106| (0+32768))
  5624  0121  00BA               	movwf	?_CONV
  5625  0122  3088               	movlw	high (STR_106| (0+32768))
  5626  0123  00BB               	movwf	?_CONV+1
  5627  0124  2F2D               	goto	l253
  5628  0125                     l4195:
  5629                           
  5630                           ;LCD.c: 388:             return "103";
  5631  0125  303E               	movlw	low (STR_107| (0+32768))
  5632  0126  00BA               	movwf	?_CONV
  5633  0127  3089               	movlw	high (STR_107| (0+32768))
  5634  0128  00BB               	movwf	?_CONV+1
  5635  0129  2F2D               	goto	l253
  5636  012A                     l4201:
  5637                           
  5638                           ;LCD.c: 391:             return "104";
  5639  012A  30A2               	movlw	low (STR_108| (0+32768))
  5640  012B  00BA               	movwf	?_CONV
  5641  012C  3089               	movlw	high (STR_108| (0+32768))
  5642  012D  00BB               	movwf	?_CONV+1
  5643  012E  2F2D               	goto	l253
  5644  012F                     l4207:
  5645                           
  5646                           ;LCD.c: 394:             return "105";
  5647  012F  300A               	movlw	low (STR_109| (0+32768))
  5648  0130  00BA               	movwf	?_CONV
  5649  0131  308A               	movlw	high (STR_109| (0+32768))
  5650  0132  00BB               	movwf	?_CONV+1
  5651  0133  2F2D               	goto	l253
  5652  0134                     l4213:
  5653                           
  5654                           ;LCD.c: 397:             return "106";
  5655  0134  3072               	movlw	low (STR_110| (0+32768))
  5656  0135  00BA               	movwf	?_CONV
  5657  0136  308A               	movlw	high (STR_110| (0+32768))
  5658  0137  00BB               	movwf	?_CONV+1
  5659  0138  2F2D               	goto	l253
  5660  0139                     l4219:
  5661                           
  5662                           ;LCD.c: 400:             return "107";
  5663  0139  30D6               	movlw	low (STR_111| (0+32768))
  5664  013A  00BA               	movwf	?_CONV
  5665  013B  308A               	movlw	high (STR_111| (0+32768))
  5666  013C  00BB               	movwf	?_CONV+1
  5667  013D  2F2D               	goto	l253
  5668  013E                     l4225:
  5669                           
  5670                           ;LCD.c: 403:             return "108";
  5671  013E  303A               	movlw	low (STR_112| (0+32768))
  5672  013F  00BA               	movwf	?_CONV
  5673  0140  308B               	movlw	high (STR_112| (0+32768))
  5674  0141  00BB               	movwf	?_CONV+1
  5675  0142  2F2D               	goto	l253
  5676  0143                     l4231:
  5677                           
  5678                           ;LCD.c: 406:             return "109";
  5679  0143  309E               	movlw	low (STR_113| (0+32768))
  5680  0144  00BA               	movwf	?_CONV
  5681  0145  308B               	movlw	high (STR_113| (0+32768))
  5682  0146  00BB               	movwf	?_CONV+1
  5683  0147  2F2D               	goto	l253
  5684  0148                     l4237:
  5685                           
  5686                           ;LCD.c: 409:             return "110";
  5687  0148  3016               	movlw	low (STR_114| (0+32768))
  5688  0149  00BA               	movwf	?_CONV
  5689  014A  3088               	movlw	high (STR_114| (0+32768))
  5690  014B  00BB               	movwf	?_CONV+1
  5691  014C  2F2D               	goto	l253
  5692  014D                     l4243:
  5693                           
  5694                           ;LCD.c: 412:             return "111";
  5695  014D  307E               	movlw	low (STR_115| (0+32768))
  5696  014E  00BA               	movwf	?_CONV
  5697  014F  3088               	movlw	high (STR_115| (0+32768))
  5698  0150  00BB               	movwf	?_CONV+1
  5699  0151  2F2D               	goto	l253
  5700  0152                     l4249:
  5701                           
  5702                           ;LCD.c: 415:             return "112";
  5703  0152  30E6               	movlw	low (STR_116| (0+32768))
  5704  0153  00BA               	movwf	?_CONV
  5705  0154  3088               	movlw	high (STR_116| (0+32768))
  5706  0155  00BB               	movwf	?_CONV+1
  5707  0156  2F2D               	goto	l253
  5708  0157                     l4255:
  5709                           
  5710                           ;LCD.c: 418:             return "113";
  5711  0157  304A               	movlw	low (STR_117| (0+32768))
  5712  0158  00BA               	movwf	?_CONV
  5713  0159  3089               	movlw	high (STR_117| (0+32768))
  5714  015A  00BB               	movwf	?_CONV+1
  5715  015B  2F2D               	goto	l253
  5716  015C                     l4261:
  5717                           
  5718                           ;LCD.c: 421:             return "114";
  5719  015C  30AE               	movlw	low (STR_118| (0+32768))
  5720  015D  00BA               	movwf	?_CONV
  5721  015E  3089               	movlw	high (STR_118| (0+32768))
  5722  015F  00BB               	movwf	?_CONV+1
  5723  0160  2F2D               	goto	l253
  5724  0161                     l4267:
  5725                           
  5726                           ;LCD.c: 424:             return "115";
  5727  0161  3016               	movlw	low (STR_119| (0+32768))
  5728  0162  00BA               	movwf	?_CONV
  5729  0163  308A               	movlw	high (STR_119| (0+32768))
  5730  0164  00BB               	movwf	?_CONV+1
  5731  0165  2F2D               	goto	l253
  5732  0166                     l4273:
  5733                           
  5734                           ;LCD.c: 427:             return "116";
  5735  0166  307E               	movlw	low (STR_120| (0+32768))
  5736  0167  00BA               	movwf	?_CONV
  5737  0168  308A               	movlw	high (STR_120| (0+32768))
  5738  0169  00BB               	movwf	?_CONV+1
  5739  016A  2F2D               	goto	l253
  5740  016B                     l4279:
  5741                           
  5742                           ;LCD.c: 430:             return "117";
  5743  016B  30E2               	movlw	low (STR_121| (0+32768))
  5744  016C  00BA               	movwf	?_CONV
  5745  016D  308A               	movlw	high (STR_121| (0+32768))
  5746  016E  00BB               	movwf	?_CONV+1
  5747  016F  2F2D               	goto	l253
  5748  0170                     l4285:
  5749                           
  5750                           ;LCD.c: 433:             return "118";
  5751  0170  3046               	movlw	low (STR_122| (0+32768))
  5752  0171  00BA               	movwf	?_CONV
  5753  0172  308B               	movlw	high (STR_122| (0+32768))
  5754  0173  00BB               	movwf	?_CONV+1
  5755  0174  2F2D               	goto	l253
  5756  0175                     l4291:
  5757                           
  5758                           ;LCD.c: 436:             return "119";
  5759  0175  30AA               	movlw	low (STR_123| (0+32768))
  5760  0176  00BA               	movwf	?_CONV
  5761  0177  308B               	movlw	high (STR_123| (0+32768))
  5762  0178  00BB               	movwf	?_CONV+1
  5763  0179  2F2D               	goto	l253
  5764  017A                     l4297:
  5765                           
  5766                           ;LCD.c: 439:             return "120";
  5767  017A  3022               	movlw	low (STR_124| (0+32768))
  5768  017B  00BA               	movwf	?_CONV
  5769  017C  3088               	movlw	high (STR_124| (0+32768))
  5770  017D  00BB               	movwf	?_CONV+1
  5771  017E  2F2D               	goto	l253
  5772  017F                     l4303:
  5773                           
  5774                           ;LCD.c: 442:             return "121";
  5775  017F  308A               	movlw	low (STR_125| (0+32768))
  5776  0180  00BA               	movwf	?_CONV
  5777  0181  3088               	movlw	high (STR_125| (0+32768))
  5778  0182  00BB               	movwf	?_CONV+1
  5779  0183  2F2D               	goto	l253
  5780  0184                     l4309:
  5781                           
  5782                           ;LCD.c: 445:             return "122";
  5783  0184  30F2               	movlw	low (STR_126| (0+32768))
  5784  0185  00BA               	movwf	?_CONV
  5785  0186  3088               	movlw	high (STR_126| (0+32768))
  5786  0187  00BB               	movwf	?_CONV+1
  5787  0188  2F2D               	goto	l253
  5788  0189                     l4315:
  5789                           
  5790                           ;LCD.c: 448:             return "123";
  5791  0189  3056               	movlw	low (STR_127| (0+32768))
  5792  018A  00BA               	movwf	?_CONV
  5793  018B  3089               	movlw	high (STR_127| (0+32768))
  5794  018C  00BB               	movwf	?_CONV+1
  5795  018D  2F2D               	goto	l253
  5796  018E                     l4321:
  5797                           
  5798                           ;LCD.c: 451:             return "124";
  5799  018E  30BA               	movlw	low (STR_128| (0+32768))
  5800  018F  00BA               	movwf	?_CONV
  5801  0190  3089               	movlw	high (STR_128| (0+32768))
  5802  0191  00BB               	movwf	?_CONV+1
  5803  0192  2F2D               	goto	l253
  5804  0193                     l4327:
  5805                           
  5806                           ;LCD.c: 454:             return "125";
  5807  0193  3022               	movlw	low (STR_129| (0+32768))
  5808  0194  00BA               	movwf	?_CONV
  5809  0195  308A               	movlw	high (STR_129| (0+32768))
  5810  0196  00BB               	movwf	?_CONV+1
  5811  0197  2F2D               	goto	l253
  5812  0198                     l4333:
  5813                           
  5814                           ;LCD.c: 457:             return "126";
  5815  0198  308A               	movlw	low (STR_130| (0+32768))
  5816  0199  00BA               	movwf	?_CONV
  5817  019A  308A               	movlw	high (STR_130| (0+32768))
  5818  019B  00BB               	movwf	?_CONV+1
  5819  019C  2F2D               	goto	l253
  5820  019D                     l4339:
  5821                           
  5822                           ;LCD.c: 460:             return "127";
  5823  019D  30EE               	movlw	low (STR_131| (0+32768))
  5824  019E  00BA               	movwf	?_CONV
  5825  019F  308A               	movlw	high (STR_131| (0+32768))
  5826  01A0  00BB               	movwf	?_CONV+1
  5827  01A1  2F2D               	goto	l253
  5828  01A2                     l4345:
  5829                           
  5830                           ;LCD.c: 463:             return "128";
  5831  01A2  3052               	movlw	low (STR_132| (0+32768))
  5832  01A3  00BA               	movwf	?_CONV
  5833  01A4  308B               	movlw	high (STR_132| (0+32768))
  5834  01A5  00BB               	movwf	?_CONV+1
  5835  01A6  2F2D               	goto	l253
  5836  01A7                     l4351:
  5837                           
  5838                           ;LCD.c: 466:             return "129";
  5839  01A7  30B6               	movlw	low (STR_133| (0+32768))
  5840  01A8  00BA               	movwf	?_CONV
  5841  01A9  308B               	movlw	high (STR_133| (0+32768))
  5842  01AA  00BB               	movwf	?_CONV+1
  5843  01AB  2F2D               	goto	l253
  5844  01AC                     l4357:
  5845                           
  5846                           ;LCD.c: 469:             return "130";
  5847  01AC  302E               	movlw	low (STR_134| (0+32768))
  5848  01AD  00BA               	movwf	?_CONV
  5849  01AE  3088               	movlw	high (STR_134| (0+32768))
  5850  01AF  00BB               	movwf	?_CONV+1
  5851  01B0  2F2D               	goto	l253
  5852  01B1                     l4363:
  5853                           
  5854                           ;LCD.c: 472:             return "131";
  5855  01B1  3096               	movlw	low (STR_135| (0+32768))
  5856  01B2  00BA               	movwf	?_CONV
  5857  01B3  3088               	movlw	high (STR_135| (0+32768))
  5858  01B4  00BB               	movwf	?_CONV+1
  5859  01B5  2F2D               	goto	l253
  5860  01B6                     l4369:
  5861                           
  5862                           ;LCD.c: 475:             return "132";
  5863  01B6  30FE               	movlw	low (STR_136| (0+32768))
  5864  01B7  00BA               	movwf	?_CONV
  5865  01B8  3088               	movlw	high (STR_136| (0+32768))
  5866  01B9  00BB               	movwf	?_CONV+1
  5867  01BA  2F2D               	goto	l253
  5868  01BB                     l4375:
  5869                           
  5870                           ;LCD.c: 478:             return "133";
  5871  01BB  3062               	movlw	low (STR_137| (0+32768))
  5872  01BC  00BA               	movwf	?_CONV
  5873  01BD  3089               	movlw	high (STR_137| (0+32768))
  5874  01BE  00BB               	movwf	?_CONV+1
  5875  01BF  2F2D               	goto	l253
  5876  01C0                     l4381:
  5877                           
  5878                           ;LCD.c: 481:             return "134";
  5879  01C0  30C6               	movlw	low (STR_138| (0+32768))
  5880  01C1  00BA               	movwf	?_CONV
  5881  01C2  3089               	movlw	high (STR_138| (0+32768))
  5882  01C3  00BB               	movwf	?_CONV+1
  5883  01C4  2F2D               	goto	l253
  5884  01C5                     l4387:
  5885                           
  5886                           ;LCD.c: 484:             return "135";
  5887  01C5  302E               	movlw	low (STR_139| (0+32768))
  5888  01C6  00BA               	movwf	?_CONV
  5889  01C7  308A               	movlw	high (STR_139| (0+32768))
  5890  01C8  00BB               	movwf	?_CONV+1
  5891  01C9  2F2D               	goto	l253
  5892  01CA                     l4393:
  5893                           
  5894                           ;LCD.c: 487:             return "136";
  5895  01CA  3096               	movlw	low (STR_140| (0+32768))
  5896  01CB  00BA               	movwf	?_CONV
  5897  01CC  308A               	movlw	high (STR_140| (0+32768))
  5898  01CD  00BB               	movwf	?_CONV+1
  5899  01CE  2F2D               	goto	l253
  5900  01CF                     l4399:
  5901                           
  5902                           ;LCD.c: 490:             return "137";
  5903  01CF  30FA               	movlw	low (STR_141| (0+32768))
  5904  01D0  00BA               	movwf	?_CONV
  5905  01D1  308A               	movlw	high (STR_141| (0+32768))
  5906  01D2  00BB               	movwf	?_CONV+1
  5907  01D3  2F2D               	goto	l253
  5908  01D4                     l4405:
  5909                           
  5910                           ;LCD.c: 493:             return "138";
  5911  01D4  305E               	movlw	low (STR_142| (0+32768))
  5912  01D5  00BA               	movwf	?_CONV
  5913  01D6  308B               	movlw	high (STR_142| (0+32768))
  5914  01D7  00BB               	movwf	?_CONV+1
  5915  01D8  2F2D               	goto	l253
  5916  01D9                     l4411:
  5917                           
  5918                           ;LCD.c: 496:             return "139";
  5919  01D9  30C2               	movlw	low (STR_143| (0+32768))
  5920  01DA  00BA               	movwf	?_CONV
  5921  01DB  308B               	movlw	high (STR_143| (0+32768))
  5922  01DC  00BB               	movwf	?_CONV+1
  5923  01DD  2F2D               	goto	l253
  5924  01DE                     l4417:
  5925                           
  5926                           ;LCD.c: 499:             return "140";
  5927  01DE  303A               	movlw	low (STR_144| (0+32768))
  5928  01DF  00BA               	movwf	?_CONV
  5929  01E0  3088               	movlw	high (STR_144| (0+32768))
  5930  01E1  00BB               	movwf	?_CONV+1
  5931  01E2  2F2D               	goto	l253
  5932  01E3                     l4423:
  5933                           
  5934                           ;LCD.c: 502:             return "141";
  5935  01E3  30A2               	movlw	low (STR_145| (0+32768))
  5936  01E4  00BA               	movwf	?_CONV
  5937  01E5  3088               	movlw	high (STR_145| (0+32768))
  5938  01E6  00BB               	movwf	?_CONV+1
  5939  01E7  2F2D               	goto	l253
  5940  01E8                     l4429:
  5941                           
  5942                           ;LCD.c: 505:             return "142";
  5943  01E8  300A               	movlw	low (STR_146| (0+32768))
  5944  01E9  00BA               	movwf	?_CONV
  5945  01EA  3089               	movlw	high (STR_146| (0+32768))
  5946  01EB  00BB               	movwf	?_CONV+1
  5947  01EC  2F2D               	goto	l253
  5948  01ED                     l4435:
  5949                           
  5950                           ;LCD.c: 508:             return "143";
  5951  01ED  306E               	movlw	low (STR_147| (0+32768))
  5952  01EE  00BA               	movwf	?_CONV
  5953  01EF  3089               	movlw	high (STR_147| (0+32768))
  5954  01F0  00BB               	movwf	?_CONV+1
  5955  01F1  2F2D               	goto	l253
  5956  01F2                     l4441:
  5957                           
  5958                           ;LCD.c: 511:             return "144";
  5959  01F2  30D2               	movlw	low (STR_148| (0+32768))
  5960  01F3  00BA               	movwf	?_CONV
  5961  01F4  3089               	movlw	high (STR_148| (0+32768))
  5962  01F5  00BB               	movwf	?_CONV+1
  5963  01F6  2F2D               	goto	l253
  5964  01F7                     l4447:
  5965                           
  5966                           ;LCD.c: 514:             return "145";
  5967  01F7  303A               	movlw	low (STR_149| (0+32768))
  5968  01F8  00BA               	movwf	?_CONV
  5969  01F9  308A               	movlw	high (STR_149| (0+32768))
  5970  01FA  00BB               	movwf	?_CONV+1
  5971  01FB  2F2D               	goto	l253
  5972  01FC                     l4453:
  5973                           
  5974                           ;LCD.c: 517:             return "146";
  5975  01FC  30A2               	movlw	low (STR_150| (0+32768))
  5976  01FD  00BA               	movwf	?_CONV
  5977  01FE  308A               	movlw	high (STR_150| (0+32768))
  5978  01FF  00BB               	movwf	?_CONV+1
  5979  0200  2F2D               	goto	l253
  5980  0201                     l4459:
  5981                           
  5982                           ;LCD.c: 520:             return "147";
  5983  0201  3006               	movlw	low (STR_151| (0+32768))
  5984  0202  00BA               	movwf	?_CONV
  5985  0203  308B               	movlw	high (STR_151| (0+32768))
  5986  0204  00BB               	movwf	?_CONV+1
  5987  0205  2F2D               	goto	l253
  5988  0206                     l4465:
  5989                           
  5990                           ;LCD.c: 523:             return "148";
  5991  0206  306A               	movlw	low (STR_152| (0+32768))
  5992  0207  00BA               	movwf	?_CONV
  5993  0208  308B               	movlw	high (STR_152| (0+32768))
  5994  0209  00BB               	movwf	?_CONV+1
  5995  020A  2F2D               	goto	l253
  5996  020B                     l4471:
  5997                           
  5998                           ;LCD.c: 526:             return "149";
  5999  020B  30CE               	movlw	low (STR_153| (0+32768))
  6000  020C  00BA               	movwf	?_CONV
  6001  020D  308B               	movlw	high (STR_153| (0+32768))
  6002  020E  00BB               	movwf	?_CONV+1
  6003  020F  2F2D               	goto	l253
  6004  0210                     l4477:
  6005                           
  6006                           ;LCD.c: 529:             return "150";
  6007  0210  3046               	movlw	low (STR_154| (0+32768))
  6008  0211  00BA               	movwf	?_CONV
  6009  0212  3088               	movlw	high (STR_154| (0+32768))
  6010  0213  00BB               	movwf	?_CONV+1
  6011  0214  2F2D               	goto	l253
  6012  0215                     l4483:
  6013                           
  6014                           ;LCD.c: 532:             return "151";
  6015  0215  30AE               	movlw	low (STR_155| (0+32768))
  6016  0216  00BA               	movwf	?_CONV
  6017  0217  3088               	movlw	high (STR_155| (0+32768))
  6018  0218  00BB               	movwf	?_CONV+1
  6019  0219  2F2D               	goto	l253
  6020  021A                     l4489:
  6021                           
  6022                           ;LCD.c: 535:             return "2";
  6023  021A  30D8               	movlw	low ((STR_6+2)| (0+32768))
  6024  021B  00BA               	movwf	?_CONV
  6025  021C  3088               	movlw	high ((STR_6+2)| (0+32768))
  6026  021D  00BB               	movwf	?_CONV+1
  6027  021E  2F2D               	goto	l253
  6028  021F                     l4495:
  6029                           
  6030                           ;LCD.c: 538:             return "3";
  6031  021F  303C               	movlw	low ((STR_7+2)| (0+32768))
  6032  0220  00BA               	movwf	?_CONV
  6033  0221  3089               	movlw	high ((STR_7+2)| (0+32768))
  6034  0222  00BB               	movwf	?_CONV+1
  6035  0223  2F2D               	goto	l253
  6036  0224                     l4501:
  6037                           
  6038                           ;LCD.c: 541:             return "154";
  6039  0224  30DE               	movlw	low (STR_158| (0+32768))
  6040  0225  00BA               	movwf	?_CONV
  6041  0226  3089               	movlw	high (STR_158| (0+32768))
  6042  0227  00BB               	movwf	?_CONV+1
  6043  0228  2F2D               	goto	l253
  6044  0229                     l4507:
  6045                           
  6046                           ;LCD.c: 544:             return "155";
  6047  0229  3046               	movlw	low (STR_159| (0+32768))
  6048  022A  00BA               	movwf	?_CONV
  6049  022B  308A               	movlw	high (STR_159| (0+32768))
  6050  022C  00BB               	movwf	?_CONV+1
  6051  022D  2F2D               	goto	l253
  6052  022E                     l4513:
  6053                           
  6054                           ;LCD.c: 547:             return "156";
  6055  022E  30AE               	movlw	low (STR_160| (0+32768))
  6056  022F  00BA               	movwf	?_CONV
  6057  0230  308A               	movlw	high (STR_160| (0+32768))
  6058  0231  00BB               	movwf	?_CONV+1
  6059  0232  2F2D               	goto	l253
  6060  0233                     l4519:
  6061                           
  6062                           ;LCD.c: 550:             return "157";
  6063  0233  3012               	movlw	low (STR_161| (0+32768))
  6064  0234  00BA               	movwf	?_CONV
  6065  0235  308B               	movlw	high (STR_161| (0+32768))
  6066  0236  00BB               	movwf	?_CONV+1
  6067  0237  2F2D               	goto	l253
  6068  0238                     l4525:
  6069                           
  6070                           ;LCD.c: 553:             return "158";
  6071  0238  3076               	movlw	low (STR_162| (0+32768))
  6072  0239  00BA               	movwf	?_CONV
  6073  023A  308B               	movlw	high (STR_162| (0+32768))
  6074  023B  00BB               	movwf	?_CONV+1
  6075  023C  2F2D               	goto	l253
  6076  023D                     l4531:
  6077                           
  6078                           ;LCD.c: 556:             return "159";
  6079  023D  30DA               	movlw	low (STR_163| (0+32768))
  6080  023E  00BA               	movwf	?_CONV
  6081  023F  308B               	movlw	high (STR_163| (0+32768))
  6082  0240  00BB               	movwf	?_CONV+1
  6083  0241  2F2D               	goto	l253
  6084  0242                     l4537:
  6085                           
  6086                           ;LCD.c: 559:             return "160";
  6087  0242  3052               	movlw	low (STR_164| (0+32768))
  6088  0243  00BA               	movwf	?_CONV
  6089  0244  3088               	movlw	high (STR_164| (0+32768))
  6090  0245  00BB               	movwf	?_CONV+1
  6091  0246  2F2D               	goto	l253
  6092  0247                     l4543:
  6093                           
  6094                           ;LCD.c: 562:             return "161";
  6095  0247  30BA               	movlw	low (STR_165| (0+32768))
  6096  0248  00BA               	movwf	?_CONV
  6097  0249  3088               	movlw	high (STR_165| (0+32768))
  6098  024A  00BB               	movwf	?_CONV+1
  6099  024B  2F2D               	goto	l253
  6100  024C                     l4549:
  6101                           
  6102                           ;LCD.c: 565:             return "162";
  6103  024C  301E               	movlw	low (STR_166| (0+32768))
  6104  024D  00BA               	movwf	?_CONV
  6105  024E  3089               	movlw	high (STR_166| (0+32768))
  6106  024F  00BB               	movwf	?_CONV+1
  6107  0250  2F2D               	goto	l253
  6108  0251                     l4555:
  6109                           
  6110                           ;LCD.c: 568:             return "163";
  6111  0251  3082               	movlw	low (STR_167| (0+32768))
  6112  0252  00BA               	movwf	?_CONV
  6113  0253  3089               	movlw	high (STR_167| (0+32768))
  6114  0254  00BB               	movwf	?_CONV+1
  6115  0255  2F2D               	goto	l253
  6116  0256                     l4561:
  6117                           
  6118                           ;LCD.c: 571:             return "164";
  6119  0256  30EA               	movlw	low (STR_168| (0+32768))
  6120  0257  00BA               	movwf	?_CONV
  6121  0258  3089               	movlw	high (STR_168| (0+32768))
  6122  0259  00BB               	movwf	?_CONV+1
  6123  025A  2F2D               	goto	l253
  6124  025B                     l4567:
  6125                           
  6126                           ;LCD.c: 574:             return "165";
  6127  025B  3052               	movlw	low (STR_169| (0+32768))
  6128  025C  00BA               	movwf	?_CONV
  6129  025D  308A               	movlw	high (STR_169| (0+32768))
  6130  025E  00BB               	movwf	?_CONV+1
  6131  025F  2F2D               	goto	l253
  6132  0260                     l4573:
  6133                           
  6134                           ;LCD.c: 577:             return "166";
  6135  0260  30B6               	movlw	low (STR_170| (0+32768))
  6136  0261  00BA               	movwf	?_CONV
  6137  0262  308A               	movlw	high (STR_170| (0+32768))
  6138  0263  00BB               	movwf	?_CONV+1
  6139  0264  2F2D               	goto	l253
  6140  0265                     l4579:
  6141                           
  6142                           ;LCD.c: 580:             return "167";
  6143  0265  301A               	movlw	low (STR_171| (0+32768))
  6144  0266  00BA               	movwf	?_CONV
  6145  0267  308B               	movlw	high (STR_171| (0+32768))
  6146  0268  00BB               	movwf	?_CONV+1
  6147  0269  2F2D               	goto	l253
  6148  026A                     l4585:
  6149                           
  6150                           ;LCD.c: 583:             return "168";
  6151  026A  307E               	movlw	low (STR_172| (0+32768))
  6152  026B  00BA               	movwf	?_CONV
  6153  026C  308B               	movlw	high (STR_172| (0+32768))
  6154  026D  00BB               	movwf	?_CONV+1
  6155  026E  2F2D               	goto	l253
  6156  026F                     l4591:
  6157                           
  6158                           ;LCD.c: 586:             return "169";
  6159  026F  30E2               	movlw	low (STR_173| (0+32768))
  6160  0270  00BA               	movwf	?_CONV
  6161  0271  308B               	movlw	high (STR_173| (0+32768))
  6162  0272  00BB               	movwf	?_CONV+1
  6163  0273  2F2D               	goto	l253
  6164  0274                     l4597:
  6165                           
  6166                           ;LCD.c: 589:             return "170";
  6167  0274  305A               	movlw	low (STR_174| (0+32768))
  6168  0275  00BA               	movwf	?_CONV
  6169  0276  3088               	movlw	high (STR_174| (0+32768))
  6170  0277  00BB               	movwf	?_CONV+1
  6171  0278  2F2D               	goto	l253
  6172  0279                     l4603:
  6173                           
  6174                           ;LCD.c: 592:             return "171";
  6175  0279  30C2               	movlw	low (STR_175| (0+32768))
  6176  027A  00BA               	movwf	?_CONV
  6177  027B  3088               	movlw	high (STR_175| (0+32768))
  6178  027C  00BB               	movwf	?_CONV+1
  6179  027D  2F2D               	goto	l253
  6180  027E                     l4609:
  6181                           
  6182                           ;LCD.c: 595:             return "172";
  6183  027E  3026               	movlw	low (STR_176| (0+32768))
  6184  027F  00BA               	movwf	?_CONV
  6185  0280  3089               	movlw	high (STR_176| (0+32768))
  6186  0281  00BB               	movwf	?_CONV+1
  6187  0282  2F2D               	goto	l253
  6188  0283                     l4615:
  6189                           
  6190                           ;LCD.c: 598:             return "173";
  6191  0283  308A               	movlw	low (STR_177| (0+32768))
  6192  0284  00BA               	movwf	?_CONV
  6193  0285  3089               	movlw	high (STR_177| (0+32768))
  6194  0286  00BB               	movwf	?_CONV+1
  6195  0287  2F2D               	goto	l253
  6196  0288                     l4621:
  6197                           
  6198                           ;LCD.c: 601:             return "174";
  6199  0288  30F2               	movlw	low (STR_178| (0+32768))
  6200  0289  00BA               	movwf	?_CONV
  6201  028A  3089               	movlw	high (STR_178| (0+32768))
  6202  028B  00BB               	movwf	?_CONV+1
  6203  028C  2F2D               	goto	l253
  6204  028D                     l4627:
  6205                           
  6206                           ;LCD.c: 604:             return "175";
  6207  028D  305A               	movlw	low (STR_179| (0+32768))
  6208  028E  00BA               	movwf	?_CONV
  6209  028F  308A               	movlw	high (STR_179| (0+32768))
  6210  0290  00BB               	movwf	?_CONV+1
  6211  0291  2F2D               	goto	l253
  6212  0292                     l4633:
  6213                           
  6214                           ;LCD.c: 607:             return "176";
  6215  0292  30BE               	movlw	low (STR_180| (0+32768))
  6216  0293  00BA               	movwf	?_CONV
  6217  0294  308A               	movlw	high (STR_180| (0+32768))
  6218  0295  00BB               	movwf	?_CONV+1
  6219  0296  2F2D               	goto	l253
  6220  0297                     l4639:
  6221                           
  6222                           ;LCD.c: 610:             return "177";
  6223  0297  3022               	movlw	low (STR_181| (0+32768))
  6224  0298  00BA               	movwf	?_CONV
  6225  0299  308B               	movlw	high (STR_181| (0+32768))
  6226  029A  00BB               	movwf	?_CONV+1
  6227  029B  2F2D               	goto	l253
  6228  029C                     l4645:
  6229                           
  6230                           ;LCD.c: 613:             return "178";
  6231  029C  3086               	movlw	low (STR_182| (0+32768))
  6232  029D  00BA               	movwf	?_CONV
  6233  029E  308B               	movlw	high (STR_182| (0+32768))
  6234  029F  00BB               	movwf	?_CONV+1
  6235  02A0  2F2D               	goto	l253
  6236  02A1                     l4651:
  6237                           
  6238                           ;LCD.c: 616:             return "179";
  6239  02A1  30EA               	movlw	low (STR_183| (0+32768))
  6240  02A2  00BA               	movwf	?_CONV
  6241  02A3  308B               	movlw	high (STR_183| (0+32768))
  6242  02A4  00BB               	movwf	?_CONV+1
  6243  02A5  2F2D               	goto	l253
  6244  02A6                     l4657:
  6245                           
  6246                           ;LCD.c: 619:             return "180";
  6247  02A6  3062               	movlw	low (STR_184| (0+32768))
  6248  02A7  00BA               	movwf	?_CONV
  6249  02A8  3088               	movlw	high (STR_184| (0+32768))
  6250  02A9  00BB               	movwf	?_CONV+1
  6251  02AA  2F2D               	goto	l253
  6252  02AB                     l4663:
  6253                           
  6254                           ;LCD.c: 622:             return "181";
  6255  02AB  30CA               	movlw	low (STR_185| (0+32768))
  6256  02AC  00BA               	movwf	?_CONV
  6257  02AD  3088               	movlw	high (STR_185| (0+32768))
  6258  02AE  00BB               	movwf	?_CONV+1
  6259  02AF  2F2D               	goto	l253
  6260  02B0                     l4669:
  6261                           
  6262                           ;LCD.c: 625:             return "182";
  6263  02B0  302E               	movlw	low (STR_186| (0+32768))
  6264  02B1  00BA               	movwf	?_CONV
  6265  02B2  3089               	movlw	high (STR_186| (0+32768))
  6266  02B3  00BB               	movwf	?_CONV+1
  6267  02B4  2F2D               	goto	l253
  6268  02B5                     l4675:
  6269                           
  6270                           ;LCD.c: 628:             return "183";
  6271  02B5  3092               	movlw	low (STR_187| (0+32768))
  6272  02B6  00BA               	movwf	?_CONV
  6273  02B7  3089               	movlw	high (STR_187| (0+32768))
  6274  02B8  00BB               	movwf	?_CONV+1
  6275  02B9  2F2D               	goto	l253
  6276  02BA                     l4681:
  6277                           
  6278                           ;LCD.c: 631:             return "184";
  6279  02BA  30FA               	movlw	low (STR_188| (0+32768))
  6280  02BB  00BA               	movwf	?_CONV
  6281  02BC  3089               	movlw	high (STR_188| (0+32768))
  6282  02BD  00BB               	movwf	?_CONV+1
  6283  02BE  2F2D               	goto	l253
  6284  02BF                     l4687:
  6285                           
  6286                           ;LCD.c: 634:             return "185";
  6287  02BF  3062               	movlw	low (STR_189| (0+32768))
  6288  02C0  00BA               	movwf	?_CONV
  6289  02C1  308A               	movlw	high (STR_189| (0+32768))
  6290  02C2  00BB               	movwf	?_CONV+1
  6291  02C3  2F2D               	goto	l253
  6292  02C4                     l4693:
  6293                           
  6294                           ;LCD.c: 637:             return "186";
  6295  02C4  30C6               	movlw	low (STR_190| (0+32768))
  6296  02C5  00BA               	movwf	?_CONV
  6297  02C6  308A               	movlw	high (STR_190| (0+32768))
  6298  02C7  00BB               	movwf	?_CONV+1
  6299  02C8  2F2D               	goto	l253
  6300  02C9                     l4699:
  6301                           
  6302                           ;LCD.c: 640:             return "187";
  6303  02C9  302A               	movlw	low (STR_191| (0+32768))
  6304  02CA  00BA               	movwf	?_CONV
  6305  02CB  308B               	movlw	high (STR_191| (0+32768))
  6306  02CC  00BB               	movwf	?_CONV+1
  6307  02CD  2F2D               	goto	l253
  6308  02CE                     l4705:
  6309                           
  6310                           ;LCD.c: 643:             return "188";
  6311  02CE  308E               	movlw	low (STR_192| (0+32768))
  6312  02CF  00BA               	movwf	?_CONV
  6313  02D0  308B               	movlw	high (STR_192| (0+32768))
  6314  02D1  00BB               	movwf	?_CONV+1
  6315  02D2  2F2D               	goto	l253
  6316  02D3                     l4711:
  6317                           
  6318                           ;LCD.c: 646:             return "189";
  6319  02D3  30F2               	movlw	low (STR_193| (0+32768))
  6320  02D4  00BA               	movwf	?_CONV
  6321  02D5  308B               	movlw	high (STR_193| (0+32768))
  6322  02D6  00BB               	movwf	?_CONV+1
  6323  02D7  2F2D               	goto	l253
  6324  02D8                     l4717:
  6325                           
  6326                           ;LCD.c: 649:             return "190";
  6327  02D8  306A               	movlw	low (STR_194| (0+32768))
  6328  02D9  00BA               	movwf	?_CONV
  6329  02DA  3088               	movlw	high (STR_194| (0+32768))
  6330  02DB  00BB               	movwf	?_CONV+1
  6331  02DC  2F2D               	goto	l253
  6332  02DD                     l4723:
  6333                           
  6334                           ;LCD.c: 652:             return "191";
  6335  02DD  30D2               	movlw	low (STR_195| (0+32768))
  6336  02DE  00BA               	movwf	?_CONV
  6337  02DF  3088               	movlw	high (STR_195| (0+32768))
  6338  02E0  00BB               	movwf	?_CONV+1
  6339  02E1  2F2D               	goto	l253
  6340  02E2                     l4729:
  6341                           
  6342                           ;LCD.c: 655:             return "192";
  6343  02E2  3036               	movlw	low (STR_196| (0+32768))
  6344  02E3  00BA               	movwf	?_CONV
  6345  02E4  3089               	movlw	high (STR_196| (0+32768))
  6346  02E5  00BB               	movwf	?_CONV+1
  6347  02E6  2F2D               	goto	l253
  6348  02E7                     l4735:
  6349                           
  6350                           ;LCD.c: 658:             return "193";
  6351  02E7  309A               	movlw	low (STR_197| (0+32768))
  6352  02E8  00BA               	movwf	?_CONV
  6353  02E9  3089               	movlw	high (STR_197| (0+32768))
  6354  02EA  00BB               	movwf	?_CONV+1
  6355  02EB  2F2D               	goto	l253
  6356  02EC                     l4741:
  6357                           
  6358                           ;LCD.c: 661:             return "194";
  6359  02EC  3002               	movlw	low (STR_198| (0+32768))
  6360  02ED  00BA               	movwf	?_CONV
  6361  02EE  308A               	movlw	high (STR_198| (0+32768))
  6362  02EF  00BB               	movwf	?_CONV+1
  6363  02F0  2F2D               	goto	l253
  6364  02F1                     l4747:
  6365                           
  6366                           ;LCD.c: 664:             return "195";
  6367  02F1  306A               	movlw	low (STR_199| (0+32768))
  6368  02F2  00BA               	movwf	?_CONV
  6369  02F3  308A               	movlw	high (STR_199| (0+32768))
  6370  02F4  00BB               	movwf	?_CONV+1
  6371  02F5  2F2D               	goto	l253
  6372  02F6                     l4753:
  6373                           
  6374                           ;LCD.c: 667:             return "196";
  6375  02F6  30CE               	movlw	low (STR_200| (0+32768))
  6376  02F7  00BA               	movwf	?_CONV
  6377  02F8  308A               	movlw	high (STR_200| (0+32768))
  6378  02F9  00BB               	movwf	?_CONV+1
  6379  02FA  2F2D               	goto	l253
  6380  02FB                     l4759:
  6381                           
  6382                           ;LCD.c: 670:             return "197";
  6383  02FB  3032               	movlw	low (STR_201| (0+32768))
  6384  02FC  00BA               	movwf	?_CONV
  6385  02FD  308B               	movlw	high (STR_201| (0+32768))
  6386  02FE  00BB               	movwf	?_CONV+1
  6387  02FF  2F2D               	goto	l253
  6388  0300                     l4765:
  6389                           
  6390                           ;LCD.c: 673:             return "198";
  6391  0300  3096               	movlw	low (STR_202| (0+32768))
  6392  0301  00BA               	movwf	?_CONV
  6393  0302  308B               	movlw	high (STR_202| (0+32768))
  6394  0303  00BB               	movwf	?_CONV+1
  6395  0304  2F2D               	goto	l253
  6396  0305                     l4771:
  6397                           
  6398                           ;LCD.c: 676:             return "199";
  6399  0305  30FA               	movlw	low (STR_203| (0+32768))
  6400  0306  00BA               	movwf	?_CONV
  6401  0307  308B               	movlw	high (STR_203| (0+32768))
  6402  0308  00BB               	movwf	?_CONV+1
  6403  0309  2F2D               	goto	l253
  6404  030A                     l4777:
  6405                           
  6406                           ;LCD.c: 679:             return "20";
  6407  030A  301F               	movlw	low ((STR_24+1)| (0+32768))
  6408  030B  00BA               	movwf	?_CONV
  6409  030C  3088               	movlw	high ((STR_24+1)| (0+32768))
  6410  030D  00BB               	movwf	?_CONV+1
  6411  030E  2F2D               	goto	l253
  6412  030F                     l4783:
  6413                           
  6414                           ;LCD.c: 682:             return "201";
  6415  030F  3076               	movlw	low (STR_205| (0+32768))
  6416  0310  00BA               	movwf	?_CONV
  6417  0311  3088               	movlw	high (STR_205| (0+32768))
  6418  0312  00BB               	movwf	?_CONV+1
  6419  0313  2F2D               	goto	l253
  6420  0314                     l4789:
  6421                           
  6422                           ;LCD.c: 685:             return "202";
  6423  0314  30DE               	movlw	low (STR_206| (0+32768))
  6424  0315  00BA               	movwf	?_CONV
  6425  0316  3088               	movlw	high (STR_206| (0+32768))
  6426  0317  00BB               	movwf	?_CONV+1
  6427  0318  2F2D               	goto	l253
  6428  0319                     l4795:
  6429                           
  6430                           ;LCD.c: 688:             return "203";
  6431  0319  3042               	movlw	low (STR_207| (0+32768))
  6432  031A  00BA               	movwf	?_CONV
  6433  031B  3089               	movlw	high (STR_207| (0+32768))
  6434  031C  00BB               	movwf	?_CONV+1
  6435  031D  2F2D               	goto	l253
  6436  031E                     l4801:
  6437                           
  6438                           ;LCD.c: 691:             return "204";
  6439  031E  30A6               	movlw	low (STR_208| (0+32768))
  6440  031F  00BA               	movwf	?_CONV
  6441  0320  3089               	movlw	high (STR_208| (0+32768))
  6442  0321  00BB               	movwf	?_CONV+1
  6443  0322  2F2D               	goto	l253
  6444  0323                     l4807:
  6445                           
  6446                           ;LCD.c: 694:             return "205";
  6447  0323  300E               	movlw	low (STR_209| (0+32768))
  6448  0324  00BA               	movwf	?_CONV
  6449  0325  308A               	movlw	high (STR_209| (0+32768))
  6450  0326  00BB               	movwf	?_CONV+1
  6451  0327  2F2D               	goto	l253
  6452  0328                     l4813:
  6453                           
  6454                           ;LCD.c: 697:             return "206";
  6455  0328  3076               	movlw	low (STR_210| (0+32768))
  6456  0329  00BA               	movwf	?_CONV
  6457  032A  308A               	movlw	high (STR_210| (0+32768))
  6458  032B  00BB               	movwf	?_CONV+1
  6459  032C  2F2D               	goto	l253
  6460  032D                     l4819:
  6461                           
  6462                           ;LCD.c: 700:             return "207";
  6463  032D  30DA               	movlw	low (STR_211| (0+32768))
  6464  032E  00BA               	movwf	?_CONV
  6465  032F  308A               	movlw	high (STR_211| (0+32768))
  6466  0330  00BB               	movwf	?_CONV+1
  6467  0331  2F2D               	goto	l253
  6468  0332                     l4825:
  6469                           
  6470                           ;LCD.c: 703:             return "208";
  6471  0332  303E               	movlw	low (STR_212| (0+32768))
  6472  0333  00BA               	movwf	?_CONV
  6473  0334  308B               	movlw	high (STR_212| (0+32768))
  6474  0335  00BB               	movwf	?_CONV+1
  6475  0336  2F2D               	goto	l253
  6476  0337                     l4831:
  6477                           
  6478                           ;LCD.c: 706:             return "209";
  6479  0337  30A2               	movlw	low (STR_213| (0+32768))
  6480  0338  00BA               	movwf	?_CONV
  6481  0339  308B               	movlw	high (STR_213| (0+32768))
  6482  033A  00BB               	movwf	?_CONV+1
  6483  033B  2F2D               	goto	l253
  6484  033C                     l4837:
  6485                           
  6486                           ;LCD.c: 709:             return "210";
  6487  033C  301A               	movlw	low (STR_214| (0+32768))
  6488  033D  00BA               	movwf	?_CONV
  6489  033E  3088               	movlw	high (STR_214| (0+32768))
  6490  033F  00BB               	movwf	?_CONV+1
  6491  0340  2F2D               	goto	l253
  6492  0341                     l4843:
  6493                           
  6494                           ;LCD.c: 712:             return "211";
  6495  0341  3082               	movlw	low (STR_215| (0+32768))
  6496  0342  00BA               	movwf	?_CONV
  6497  0343  3088               	movlw	high (STR_215| (0+32768))
  6498  0344  00BB               	movwf	?_CONV+1
  6499  0345  2F2D               	goto	l253
  6500  0346                     l4849:
  6501                           
  6502                           ;LCD.c: 715:             return "212";
  6503  0346  30EA               	movlw	low (STR_216| (0+32768))
  6504  0347  00BA               	movwf	?_CONV
  6505  0348  3088               	movlw	high (STR_216| (0+32768))
  6506  0349  00BB               	movwf	?_CONV+1
  6507  034A  2F2D               	goto	l253
  6508  034B                     l4855:
  6509                           
  6510                           ;LCD.c: 718:             return "213";
  6511  034B  304E               	movlw	low (STR_217| (0+32768))
  6512  034C  00BA               	movwf	?_CONV
  6513  034D  3089               	movlw	high (STR_217| (0+32768))
  6514  034E  00BB               	movwf	?_CONV+1
  6515  034F  2F2D               	goto	l253
  6516  0350                     l4861:
  6517                           
  6518                           ;LCD.c: 721:             return "214";
  6519  0350  30B2               	movlw	low (STR_218| (0+32768))
  6520  0351  00BA               	movwf	?_CONV
  6521  0352  3089               	movlw	high (STR_218| (0+32768))
  6522  0353  00BB               	movwf	?_CONV+1
  6523  0354  2F2D               	goto	l253
  6524  0355                     l4867:
  6525                           
  6526                           ;LCD.c: 724:             return "215";
  6527  0355  301A               	movlw	low (STR_219| (0+32768))
  6528  0356  00BA               	movwf	?_CONV
  6529  0357  308A               	movlw	high (STR_219| (0+32768))
  6530  0358  00BB               	movwf	?_CONV+1
  6531  0359  2F2D               	goto	l253
  6532  035A                     l4873:
  6533                           
  6534                           ;LCD.c: 727:             return "216";
  6535  035A  3082               	movlw	low (STR_220| (0+32768))
  6536  035B  00BA               	movwf	?_CONV
  6537  035C  308A               	movlw	high (STR_220| (0+32768))
  6538  035D  00BB               	movwf	?_CONV+1
  6539  035E  2F2D               	goto	l253
  6540  035F                     l4879:
  6541                           
  6542                           ;LCD.c: 730:             return "217";
  6543  035F  30E6               	movlw	low (STR_221| (0+32768))
  6544  0360  00BA               	movwf	?_CONV
  6545  0361  308A               	movlw	high (STR_221| (0+32768))
  6546  0362  00BB               	movwf	?_CONV+1
  6547  0363  2F2D               	goto	l253
  6548  0364                     l4885:
  6549                           
  6550                           ;LCD.c: 733:             return "218";
  6551  0364  304A               	movlw	low (STR_222| (0+32768))
  6552  0365  00BA               	movwf	?_CONV
  6553  0366  308B               	movlw	high (STR_222| (0+32768))
  6554  0367  00BB               	movwf	?_CONV+1
  6555  0368  2F2D               	goto	l253
  6556  0369                     l4891:
  6557                           
  6558                           ;LCD.c: 736:             return "219";
  6559  0369  30AE               	movlw	low (STR_223| (0+32768))
  6560  036A  00BA               	movwf	?_CONV
  6561  036B  308B               	movlw	high (STR_223| (0+32768))
  6562  036C  00BB               	movwf	?_CONV+1
  6563  036D  2F2D               	goto	l253
  6564  036E                     l4897:
  6565                           
  6566                           ;LCD.c: 739:             return "220";
  6567  036E  3026               	movlw	low (STR_224| (0+32768))
  6568  036F  00BA               	movwf	?_CONV
  6569  0370  3088               	movlw	high (STR_224| (0+32768))
  6570  0371  00BB               	movwf	?_CONV+1
  6571  0372  2F2D               	goto	l253
  6572  0373                     l4903:
  6573                           
  6574                           ;LCD.c: 742:             return "221";
  6575  0373  308E               	movlw	low (STR_225| (0+32768))
  6576  0374  00BA               	movwf	?_CONV
  6577  0375  3088               	movlw	high (STR_225| (0+32768))
  6578  0376  00BB               	movwf	?_CONV+1
  6579  0377  2F2D               	goto	l253
  6580  0378                     l4909:
  6581                           
  6582                           ;LCD.c: 745:             return "222";
  6583  0378  30F6               	movlw	low (STR_226| (0+32768))
  6584  0379  00BA               	movwf	?_CONV
  6585  037A  3088               	movlw	high (STR_226| (0+32768))
  6586  037B  00BB               	movwf	?_CONV+1
  6587  037C  2F2D               	goto	l253
  6588  037D                     l4915:
  6589                           
  6590                           ;LCD.c: 748:             return "223";
  6591  037D  305A               	movlw	low (STR_227| (0+32768))
  6592  037E  00BA               	movwf	?_CONV
  6593  037F  3089               	movlw	high (STR_227| (0+32768))
  6594  0380  00BB               	movwf	?_CONV+1
  6595  0381  2F2D               	goto	l253
  6596  0382                     l4921:
  6597                           
  6598                           ;LCD.c: 751:             return "224";
  6599  0382  30BE               	movlw	low (STR_228| (0+32768))
  6600  0383  00BA               	movwf	?_CONV
  6601  0384  3089               	movlw	high (STR_228| (0+32768))
  6602  0385  00BB               	movwf	?_CONV+1
  6603  0386  2F2D               	goto	l253
  6604  0387                     l4927:
  6605                           
  6606                           ;LCD.c: 754:             return "225";
  6607  0387  3026               	movlw	low (STR_229| (0+32768))
  6608  0388  00BA               	movwf	?_CONV
  6609  0389  308A               	movlw	high (STR_229| (0+32768))
  6610  038A  00BB               	movwf	?_CONV+1
  6611  038B  2F2D               	goto	l253
  6612  038C                     l4933:
  6613                           
  6614                           ;LCD.c: 757:             return "226";
  6615  038C  308E               	movlw	low (STR_230| (0+32768))
  6616  038D  00BA               	movwf	?_CONV
  6617  038E  308A               	movlw	high (STR_230| (0+32768))
  6618  038F  00BB               	movwf	?_CONV+1
  6619  0390  2F2D               	goto	l253
  6620  0391                     l4939:
  6621                           
  6622                           ;LCD.c: 760:             return "227";
  6623  0391  30F2               	movlw	low (STR_231| (0+32768))
  6624  0392  00BA               	movwf	?_CONV
  6625  0393  308A               	movlw	high (STR_231| (0+32768))
  6626  0394  00BB               	movwf	?_CONV+1
  6627  0395  2F2D               	goto	l253
  6628  0396                     l4945:
  6629                           
  6630                           ;LCD.c: 763:             return "228";
  6631  0396  3056               	movlw	low (STR_232| (0+32768))
  6632  0397  00BA               	movwf	?_CONV
  6633  0398  308B               	movlw	high (STR_232| (0+32768))
  6634  0399  00BB               	movwf	?_CONV+1
  6635  039A  2F2D               	goto	l253
  6636  039B                     l4951:
  6637                           
  6638                           ;LCD.c: 766:             return "229";
  6639  039B  30BA               	movlw	low (STR_233| (0+32768))
  6640  039C  00BA               	movwf	?_CONV
  6641  039D  308B               	movlw	high (STR_233| (0+32768))
  6642  039E  00BB               	movwf	?_CONV+1
  6643  039F  2F2D               	goto	l253
  6644  03A0                     l4957:
  6645                           
  6646                           ;LCD.c: 769:             return "230";
  6647  03A0  3032               	movlw	low (STR_234| (0+32768))
  6648  03A1  00BA               	movwf	?_CONV
  6649  03A2  3088               	movlw	high (STR_234| (0+32768))
  6650  03A3  00BB               	movwf	?_CONV+1
  6651  03A4  2F2D               	goto	l253
  6652  03A5                     l4963:
  6653                           
  6654                           ;LCD.c: 772:             return "231";
  6655  03A5  309A               	movlw	low (STR_235| (0+32768))
  6656  03A6  00BA               	movwf	?_CONV
  6657  03A7  3088               	movlw	high (STR_235| (0+32768))
  6658  03A8  00BB               	movwf	?_CONV+1
  6659  03A9  2F2D               	goto	l253
  6660  03AA                     l4969:
  6661                           
  6662                           ;LCD.c: 775:             return "232";
  6663  03AA  3002               	movlw	low (STR_236| (0+32768))
  6664  03AB  00BA               	movwf	?_CONV
  6665  03AC  3089               	movlw	high (STR_236| (0+32768))
  6666  03AD  00BB               	movwf	?_CONV+1
  6667  03AE  2F2D               	goto	l253
  6668  03AF                     l4975:
  6669                           
  6670                           ;LCD.c: 778:             return "233";
  6671  03AF  3066               	movlw	low (STR_237| (0+32768))
  6672  03B0  00BA               	movwf	?_CONV
  6673  03B1  3089               	movlw	high (STR_237| (0+32768))
  6674  03B2  00BB               	movwf	?_CONV+1
  6675  03B3  2F2D               	goto	l253
  6676  03B4                     l4981:
  6677                           
  6678                           ;LCD.c: 781:             return "234";
  6679  03B4  30CA               	movlw	low (STR_238| (0+32768))
  6680  03B5  00BA               	movwf	?_CONV
  6681  03B6  3089               	movlw	high (STR_238| (0+32768))
  6682  03B7  00BB               	movwf	?_CONV+1
  6683  03B8  2F2D               	goto	l253
  6684  03B9                     l4987:
  6685                           
  6686                           ;LCD.c: 784:             return "235";
  6687  03B9  3032               	movlw	low (STR_239| (0+32768))
  6688  03BA  00BA               	movwf	?_CONV
  6689  03BB  308A               	movlw	high (STR_239| (0+32768))
  6690  03BC  00BB               	movwf	?_CONV+1
  6691  03BD  2F2D               	goto	l253
  6692  03BE                     l4993:
  6693                           
  6694                           ;LCD.c: 787:             return "236";
  6695  03BE  309A               	movlw	low (STR_240| (0+32768))
  6696  03BF  00BA               	movwf	?_CONV
  6697  03C0  308A               	movlw	high (STR_240| (0+32768))
  6698  03C1  00BB               	movwf	?_CONV+1
  6699  03C2  2F2D               	goto	l253
  6700  03C3                     l4999:
  6701                           
  6702                           ;LCD.c: 790:             return "237";
  6703  03C3  30FE               	movlw	low (STR_241| (0+32768))
  6704  03C4  00BA               	movwf	?_CONV
  6705  03C5  308A               	movlw	high (STR_241| (0+32768))
  6706  03C6  00BB               	movwf	?_CONV+1
  6707  03C7  2F2D               	goto	l253
  6708  03C8                     l5005:
  6709                           
  6710                           ;LCD.c: 793:             return "238";
  6711  03C8  3062               	movlw	low (STR_242| (0+32768))
  6712  03C9  00BA               	movwf	?_CONV
  6713  03CA  308B               	movlw	high (STR_242| (0+32768))
  6714  03CB  00BB               	movwf	?_CONV+1
  6715  03CC  2F2D               	goto	l253
  6716  03CD                     l5011:
  6717                           
  6718                           ;LCD.c: 796:             return "239";
  6719  03CD  30C6               	movlw	low (STR_243| (0+32768))
  6720  03CE  00BA               	movwf	?_CONV
  6721  03CF  308B               	movlw	high (STR_243| (0+32768))
  6722  03D0  00BB               	movwf	?_CONV+1
  6723  03D1  2F2D               	goto	l253
  6724  03D2                     l5017:
  6725                           
  6726                           ;LCD.c: 799:             return "240";
  6727  03D2  303E               	movlw	low (STR_244| (0+32768))
  6728  03D3  00BA               	movwf	?_CONV
  6729  03D4  3088               	movlw	high (STR_244| (0+32768))
  6730  03D5  00BB               	movwf	?_CONV+1
  6731  03D6  2F2D               	goto	l253
  6732  03D7                     l5023:
  6733                           
  6734                           ;LCD.c: 802:             return "241";
  6735  03D7  30A6               	movlw	low (STR_245| (0+32768))
  6736  03D8  00BA               	movwf	?_CONV
  6737  03D9  3088               	movlw	high (STR_245| (0+32768))
  6738  03DA  00BB               	movwf	?_CONV+1
  6739  03DB  2F2D               	goto	l253
  6740  03DC                     l5029:
  6741                           
  6742                           ;LCD.c: 805:             return "242";
  6743  03DC  300E               	movlw	low (STR_246| (0+32768))
  6744  03DD  00BA               	movwf	?_CONV
  6745  03DE  3089               	movlw	high (STR_246| (0+32768))
  6746  03DF  00BB               	movwf	?_CONV+1
  6747  03E0  2F2D               	goto	l253
  6748  03E1                     l5035:
  6749                           
  6750                           ;LCD.c: 808:             return "243";
  6751  03E1  3072               	movlw	low (STR_247| (0+32768))
  6752  03E2  00BA               	movwf	?_CONV
  6753  03E3  3089               	movlw	high (STR_247| (0+32768))
  6754  03E4  00BB               	movwf	?_CONV+1
  6755  03E5  2F2D               	goto	l253
  6756  03E6                     l5041:
  6757                           
  6758                           ;LCD.c: 811:             return "244";
  6759  03E6  30D6               	movlw	low (STR_248| (0+32768))
  6760  03E7  00BA               	movwf	?_CONV
  6761  03E8  3089               	movlw	high (STR_248| (0+32768))
  6762  03E9  00BB               	movwf	?_CONV+1
  6763  03EA  2F2D               	goto	l253
  6764  03EB                     l5047:
  6765                           
  6766                           ;LCD.c: 814:             return "245";
  6767  03EB  303E               	movlw	low (STR_249| (0+32768))
  6768  03EC  00BA               	movwf	?_CONV
  6769  03ED  308A               	movlw	high (STR_249| (0+32768))
  6770  03EE  00BB               	movwf	?_CONV+1
  6771  03EF  2F2D               	goto	l253
  6772  03F0                     l5053:
  6773                           
  6774                           ;LCD.c: 817:             return "246";
  6775  03F0  30A6               	movlw	low (STR_250| (0+32768))
  6776  03F1  00BA               	movwf	?_CONV
  6777  03F2  308A               	movlw	high (STR_250| (0+32768))
  6778  03F3  00BB               	movwf	?_CONV+1
  6779  03F4  2F2D               	goto	l253
  6780  03F5                     l5059:
  6781                           
  6782                           ;LCD.c: 820:             return "247";
  6783  03F5  300A               	movlw	low (STR_251| (0+32768))
  6784  03F6  00BA               	movwf	?_CONV
  6785  03F7  308B               	movlw	high (STR_251| (0+32768))
  6786  03F8  00BB               	movwf	?_CONV+1
  6787  03F9  2F2D               	goto	l253
  6788  03FA                     l5065:
  6789                           
  6790                           ;LCD.c: 823:             return "248";
  6791  03FA  306E               	movlw	low (STR_252| (0+32768))
  6792  03FB  00BA               	movwf	?_CONV
  6793  03FC  308B               	movlw	high (STR_252| (0+32768))
  6794  03FD  00BB               	movwf	?_CONV+1
  6795  03FE  2F2D               	goto	l253
  6796  03FF                     l5071:
  6797                           
  6798                           ;LCD.c: 826:             return "249";
  6799  03FF  30D2               	movlw	low (STR_253| (0+32768))
  6800  0400  00BA               	movwf	?_CONV
  6801  0401  308B               	movlw	high (STR_253| (0+32768))
  6802  0402  00BB               	movwf	?_CONV+1
  6803  0403  2F2D               	goto	l253
  6804  0404                     l5077:
  6805                           
  6806                           ;LCD.c: 829:             return "250";
  6807  0404  304A               	movlw	low (STR_254| (0+32768))
  6808  0405  00BA               	movwf	?_CONV
  6809  0406  3088               	movlw	high (STR_254| (0+32768))
  6810  0407  00BB               	movwf	?_CONV+1
  6811  0408  2F2D               	goto	l253
  6812  0409                     l5083:
  6813                           
  6814                           ;LCD.c: 832:             return "251";
  6815  0409  30B2               	movlw	low (STR_255| (0+32768))
  6816  040A  00BA               	movwf	?_CONV
  6817  040B  3088               	movlw	high (STR_255| (0+32768))
  6818  040C  00BB               	movwf	?_CONV+1
  6819  040D  2F2D               	goto	l253
  6820  040E                     l5089:
  6821                           
  6822                           ;LCD.c: 835:             return "252";
  6823  040E  3016               	movlw	low (STR_256| (0+32768))
  6824  040F  00BA               	movwf	?_CONV
  6825  0410  3089               	movlw	high (STR_256| (0+32768))
  6826  0411  00BB               	movwf	?_CONV+1
  6827  0412  2F2D               	goto	l253
  6828  0413                     l5095:
  6829                           
  6830                           ;LCD.c: 838:             return "253";
  6831  0413  307A               	movlw	low (STR_257| (0+32768))
  6832  0414  00BA               	movwf	?_CONV
  6833  0415  3089               	movlw	high (STR_257| (0+32768))
  6834  0416  00BB               	movwf	?_CONV+1
  6835  0417  2F2D               	goto	l253
  6836  0418                     l5101:
  6837                           
  6838                           ;LCD.c: 841:             return "254";
  6839  0418  30E2               	movlw	low (STR_258| (0+32768))
  6840  0419  00BA               	movwf	?_CONV
  6841  041A  3089               	movlw	high (STR_258| (0+32768))
  6842  041B  00BB               	movwf	?_CONV+1
  6843  041C  2F2D               	goto	l253
  6844  041D                     l5107:
  6845                           
  6846                           ;LCD.c: 844:             return "255";
  6847  041D  304A               	movlw	low (STR_259| (0+32768))
  6848  041E  00BA               	movwf	?_CONV
  6849  041F  308A               	movlw	high (STR_259| (0+32768))
  6850  0420  00BB               	movwf	?_CONV+1
  6851  0421  2F2D               	goto	l253
  6852  0422                     l5115:
  6853  0422  083D               	movf	CONV@numero,w
  6854  0423  00BB               	movwf	??_CONV
  6855  0424  01BC               	clrf	??_CONV+1
  6856                           
  6857                           ; Switch on 2 bytes has been partitioned into a top level switch of size 1, and 1 sub-sw
      +                          itches
  6858                           ; Switch size 1, requested type "simple"
  6859                           ; Number of cases is 1, Range of values is 0 to 0
  6860                           ; switch strategies available:
  6861                           ; Name         Instructions Cycles
  6862                           ; simple_byte            4     3 (average)
  6863                           ; direct_byte           11     8 (fixed)
  6864                           ; jumptable            260     6 (fixed)
  6865                           ;	Chosen strategy is simple_byte
  6866  0425  083C               	movf	??_CONV+1,w
  6867  0426  3A00               	xorlw	0	; case 0
  6868  0427  1903               	skipnz
  6869  0428  2C2A               	goto	l5245
  6870  0429  2F2D               	goto	l253
  6871  042A                     l5245:
  6872                           
  6873                           ; Switch size 1, requested type "simple"
  6874                           ; Number of cases is 256, Range of values is 0 to 255
  6875                           ; switch strategies available:
  6876                           ; Name         Instructions Cycles
  6877                           ; simple_byte          766   384 (average)
  6878                           ; jumptable            260     6 (fixed)
  6879                           ;	Chosen strategy is simple_byte
  6880  042A  083B               	movf	??_CONV,w
  6881  042B  3A00               	xorlw	0	; case 0
  6882  042C  120A  158A  1903   	skipnz
  6883  042F  2EFF               	goto	l3577
  6884  0430  3A01               	xorlw	1	; case 1
  6885  0431  1903               	skipnz
  6886  0432  2F06               	goto	l3583
  6887  0433  3A03               	xorlw	3	; case 2
  6888  0434  1903               	skipnz
  6889  0435  2F0B               	goto	l3589
  6890  0436  3A01               	xorlw	1	; case 3
  6891  0437  1903               	skipnz
  6892  0438  2F10               	goto	l3595
  6893  0439  3A07               	xorlw	7	; case 4
  6894  043A  1903               	skipnz
  6895  043B  2F15               	goto	l3601
  6896  043C  3A01               	xorlw	1	; case 5
  6897  043D  1903               	skipnz
  6898  043E  2F1A               	goto	l3607
  6899  043F  3A03               	xorlw	3	; case 6
  6900  0440  1903               	skipnz
  6901  0441  2F1F               	goto	l3613
  6902  0442  3A01               	xorlw	1	; case 7
  6903  0443  1903               	skipnz
  6904  0444  2F24               	goto	l3619
  6905  0445  3A0F               	xorlw	15	; case 8
  6906  0446  1903               	skipnz
  6907  0447  2F29               	goto	l3625
  6908  0448  3A01               	xorlw	1	; case 9
  6909  0449  1903               	skipnz
  6910  044A  2F2E               	goto	l3631
  6911  044B  3A03               	xorlw	3	; case 10
  6912  044C  1903               	skipnz
  6913  044D  2F33               	goto	l3637
  6914  044E  3A01               	xorlw	1	; case 11
  6915  044F  1903               	skipnz
  6916  0450  2F38               	goto	l3643
  6917  0451  3A07               	xorlw	7	; case 12
  6918  0452  1903               	skipnz
  6919  0453  2F3D               	goto	l3649
  6920  0454  3A01               	xorlw	1	; case 13
  6921  0455  1903               	skipnz
  6922  0456  2F42               	goto	l3655
  6923  0457  3A03               	xorlw	3	; case 14
  6924  0458  1903               	skipnz
  6925  0459  2F47               	goto	l3661
  6926  045A  3A01               	xorlw	1	; case 15
  6927  045B  1903               	skipnz
  6928  045C  2F4C               	goto	l3667
  6929  045D  3A1F               	xorlw	31	; case 16
  6930  045E  1903               	skipnz
  6931  045F  2F51               	goto	l3673
  6932  0460  3A01               	xorlw	1	; case 17
  6933  0461  1903               	skipnz
  6934  0462  2F56               	goto	l3679
  6935  0463  3A03               	xorlw	3	; case 18
  6936  0464  1903               	skipnz
  6937  0465  2F5B               	goto	l3685
  6938  0466  3A01               	xorlw	1	; case 19
  6939  0467  1903               	skipnz
  6940  0468  2F60               	goto	l3691
  6941  0469  3A07               	xorlw	7	; case 20
  6942  046A  1903               	skipnz
  6943  046B  2F65               	goto	l3697
  6944  046C  3A01               	xorlw	1	; case 21
  6945  046D  1903               	skipnz
  6946  046E  2F6A               	goto	l3703
  6947  046F  3A03               	xorlw	3	; case 22
  6948  0470  1903               	skipnz
  6949  0471  2F6F               	goto	l3709
  6950  0472  3A01               	xorlw	1	; case 23
  6951  0473  1903               	skipnz
  6952  0474  2F74               	goto	l3715
  6953  0475  3A0F               	xorlw	15	; case 24
  6954  0476  1903               	skipnz
  6955  0477  2F79               	goto	l3721
  6956  0478  3A01               	xorlw	1	; case 25
  6957  0479  1903               	skipnz
  6958  047A  2F7E               	goto	l3727
  6959  047B  3A03               	xorlw	3	; case 26
  6960  047C  1903               	skipnz
  6961  047D  2F83               	goto	l3733
  6962  047E  3A01               	xorlw	1	; case 27
  6963  047F  1903               	skipnz
  6964  0480  2F88               	goto	l3739
  6965  0481  3A07               	xorlw	7	; case 28
  6966  0482  1903               	skipnz
  6967  0483  2F8D               	goto	l3745
  6968  0484  3A01               	xorlw	1	; case 29
  6969  0485  1903               	skipnz
  6970  0486  2F92               	goto	l3751
  6971  0487  3A03               	xorlw	3	; case 30
  6972  0488  1903               	skipnz
  6973  0489  2F97               	goto	l3757
  6974  048A  3A01               	xorlw	1	; case 31
  6975  048B  1903               	skipnz
  6976  048C  2F9C               	goto	l3763
  6977  048D  3A3F               	xorlw	63	; case 32
  6978  048E  1903               	skipnz
  6979  048F  2FA1               	goto	l3769
  6980  0490  3A01               	xorlw	1	; case 33
  6981  0491  1903               	skipnz
  6982  0492  2FA6               	goto	l3775
  6983  0493  3A03               	xorlw	3	; case 34
  6984  0494  1903               	skipnz
  6985  0495  2FAB               	goto	l3781
  6986  0496  3A01               	xorlw	1	; case 35
  6987  0497  1903               	skipnz
  6988  0498  2FB0               	goto	l3787
  6989  0499  3A07               	xorlw	7	; case 36
  6990  049A  1903               	skipnz
  6991  049B  2FB5               	goto	l3793
  6992  049C  3A01               	xorlw	1	; case 37
  6993  049D  1903               	skipnz
  6994  049E  2FBA               	goto	l3799
  6995  049F  3A03               	xorlw	3	; case 38
  6996  04A0  1903               	skipnz
  6997  04A1  2FBF               	goto	l3805
  6998  04A2  3A01               	xorlw	1	; case 39
  6999  04A3  1903               	skipnz
  7000  04A4  2FC4               	goto	l3811
  7001  04A5  3A0F               	xorlw	15	; case 40
  7002  04A6  1903               	skipnz
  7003  04A7  2FC9               	goto	l3817
  7004  04A8  3A01               	xorlw	1	; case 41
  7005  04A9  1903               	skipnz
  7006  04AA  2FCE               	goto	l3823
  7007  04AB  3A03               	xorlw	3	; case 42
  7008  04AC  1903               	skipnz
  7009  04AD  2FD3               	goto	l3829
  7010  04AE  3A01               	xorlw	1	; case 43
  7011  04AF  1903               	skipnz
  7012  04B0  2FD8               	goto	l3835
  7013  04B1  3A07               	xorlw	7	; case 44
  7014  04B2  1903               	skipnz
  7015  04B3  2FDD               	goto	l3841
  7016  04B4  3A01               	xorlw	1	; case 45
  7017  04B5  1903               	skipnz
  7018  04B6  2FE2               	goto	l3847
  7019  04B7  3A03               	xorlw	3	; case 46
  7020  04B8  1903               	skipnz
  7021  04B9  2FE7               	goto	l3853
  7022  04BA  3A01               	xorlw	1	; case 47
  7023  04BB  1903               	skipnz
  7024  04BC  2FEC               	goto	l3859
  7025  04BD  3A1F               	xorlw	31	; case 48
  7026  04BE  1903               	skipnz
  7027  04BF  2FF1               	goto	l3865
  7028  04C0  3A01               	xorlw	1	; case 49
  7029  04C1  1903               	skipnz
  7030  04C2  2FF6  120A  118A   	goto	l3871
  7031  04C5  3A03               	xorlw	3	; case 50
  7032  04C6  1903               	skipnz
  7033  04C7  2F2E               	goto	L2
  7034  04C8  3A01               	xorlw	1	; case 51
  7035  04C9  1903               	skipnz
  7036  04CA  2821               	goto	l3883
  7037  04CB  3A07               	xorlw	7	; case 52
  7038  04CC  1903               	skipnz
  7039  04CD  2826               	goto	l3889
  7040  04CE  3A01               	xorlw	1	; case 53
  7041  04CF  1903               	skipnz
  7042  04D0  282B               	goto	l3895
  7043  04D1  3A03               	xorlw	3	; case 54
  7044  04D2  1903               	skipnz
  7045  04D3  2830               	goto	l3901
  7046  04D4  3A01               	xorlw	1	; case 55
  7047  04D5  1903               	skipnz
  7048  04D6  2835               	goto	l3907
  7049  04D7  3A0F               	xorlw	15	; case 56
  7050  04D8  1903               	skipnz
  7051  04D9  283A               	goto	l3913
  7052  04DA  3A01               	xorlw	1	; case 57
  7053  04DB  1903               	skipnz
  7054  04DC  283F               	goto	l3919
  7055  04DD  3A03               	xorlw	3	; case 58
  7056  04DE  1903               	skipnz
  7057  04DF  2844               	goto	l3925
  7058  04E0  3A01               	xorlw	1	; case 59
  7059  04E1  1903               	skipnz
  7060  04E2  2849               	goto	l3931
  7061  04E3  3A07               	xorlw	7	; case 60
  7062  04E4  1903               	skipnz
  7063  04E5  284E               	goto	l3937
  7064  04E6  3A01               	xorlw	1	; case 61
  7065  04E7  1903               	skipnz
  7066  04E8  2853               	goto	l3943
  7067  04E9  3A03               	xorlw	3	; case 62
  7068  04EA  1903               	skipnz
  7069  04EB  2858               	goto	l3949
  7070  04EC  3A01               	xorlw	1	; case 63
  7071  04ED  1903               	skipnz
  7072  04EE  285D               	goto	l3955
  7073  04EF  3A7F               	xorlw	127	; case 64
  7074  04F0  1903               	skipnz
  7075  04F1  2862               	goto	l3961
  7076  04F2  3A01               	xorlw	1	; case 65
  7077  04F3  1903               	skipnz
  7078  04F4  2867               	goto	l3967
  7079  04F5  3A03               	xorlw	3	; case 66
  7080  04F6  1903               	skipnz
  7081  04F7  286C               	goto	l3973
  7082  04F8  3A01               	xorlw	1	; case 67
  7083  04F9  1903               	skipnz
  7084  04FA  2871               	goto	l3979
  7085  04FB  3A07               	xorlw	7	; case 68
  7086  04FC  1903               	skipnz
  7087  04FD  2876               	goto	l3985
  7088  04FE  3A01               	xorlw	1	; case 69
  7089  04FF  1903               	skipnz
  7090  0500  287B               	goto	l3991
  7091  0501  3A03               	xorlw	3	; case 70
  7092  0502  1903               	skipnz
  7093  0503  2880               	goto	l3997
  7094  0504  3A01               	xorlw	1	; case 71
  7095  0505  1903               	skipnz
  7096  0506  2885               	goto	l4003
  7097  0507  3A0F               	xorlw	15	; case 72
  7098  0508  1903               	skipnz
  7099  0509  288A               	goto	l4009
  7100  050A  3A01               	xorlw	1	; case 73
  7101  050B  1903               	skipnz
  7102  050C  288F               	goto	l4015
  7103  050D  3A03               	xorlw	3	; case 74
  7104  050E  1903               	skipnz
  7105  050F  2894               	goto	l4021
  7106  0510  3A01               	xorlw	1	; case 75
  7107  0511  1903               	skipnz
  7108  0512  2899               	goto	l4027
  7109  0513  3A07               	xorlw	7	; case 76
  7110  0514  1903               	skipnz
  7111  0515  289E               	goto	l4033
  7112  0516  3A01               	xorlw	1	; case 77
  7113  0517  1903               	skipnz
  7114  0518  28A3               	goto	l4039
  7115  0519  3A03               	xorlw	3	; case 78
  7116  051A  1903               	skipnz
  7117  051B  28A8               	goto	l4045
  7118  051C  3A01               	xorlw	1	; case 79
  7119  051D  1903               	skipnz
  7120  051E  28AD               	goto	l4051
  7121  051F  3A1F               	xorlw	31	; case 80
  7122  0520  1903               	skipnz
  7123  0521  28B2               	goto	l4057
  7124  0522  3A01               	xorlw	1	; case 81
  7125  0523  1903               	skipnz
  7126  0524  28B7               	goto	l4063
  7127  0525  3A03               	xorlw	3	; case 82
  7128  0526  1903               	skipnz
  7129  0527  28BC               	goto	l4069
  7130  0528  3A01               	xorlw	1	; case 83
  7131  0529  1903               	skipnz
  7132  052A  28C1               	goto	l4075
  7133  052B  3A07               	xorlw	7	; case 84
  7134  052C  1903               	skipnz
  7135  052D  28C6               	goto	l4081
  7136  052E  3A01               	xorlw	1	; case 85
  7137  052F  1903               	skipnz
  7138  0530  28CB               	goto	l4087
  7139  0531  3A03               	xorlw	3	; case 86
  7140  0532  1903               	skipnz
  7141  0533  28D0               	goto	l4093
  7142  0534  3A01               	xorlw	1	; case 87
  7143  0535  1903               	skipnz
  7144  0536  28D5               	goto	l4099
  7145  0537  3A0F               	xorlw	15	; case 88
  7146  0538  1903               	skipnz
  7147  0539  28DA               	goto	l4105
  7148  053A  3A01               	xorlw	1	; case 89
  7149  053B  1903               	skipnz
  7150  053C  28DF               	goto	l4111
  7151  053D  3A03               	xorlw	3	; case 90
  7152  053E  1903               	skipnz
  7153  053F  28E4               	goto	l4117
  7154  0540  3A01               	xorlw	1	; case 91
  7155  0541  1903               	skipnz
  7156  0542  28E9               	goto	l4123
  7157  0543  3A07               	xorlw	7	; case 92
  7158  0544  1903               	skipnz
  7159  0545  28EE               	goto	l4129
  7160  0546  3A01               	xorlw	1	; case 93
  7161  0547  1903               	skipnz
  7162  0548  28F3               	goto	l4135
  7163  0549  3A03               	xorlw	3	; case 94
  7164  054A  1903               	skipnz
  7165  054B  28F8               	goto	l4141
  7166  054C  3A01               	xorlw	1	; case 95
  7167  054D  1903               	skipnz
  7168  054E  28FD               	goto	l4147
  7169  054F  3A3F               	xorlw	63	; case 96
  7170  0550  1903               	skipnz
  7171  0551  2902               	goto	l4153
  7172  0552  3A01               	xorlw	1	; case 97
  7173  0553  1903               	skipnz
  7174  0554  2907               	goto	l4159
  7175  0555  3A03               	xorlw	3	; case 98
  7176  0556  1903               	skipnz
  7177  0557  290C               	goto	l4165
  7178  0558  3A01               	xorlw	1	; case 99
  7179  0559  1903               	skipnz
  7180  055A  2911               	goto	l4171
  7181  055B  3A07               	xorlw	7	; case 100
  7182  055C  1903               	skipnz
  7183  055D  2916               	goto	l4177
  7184  055E  3A01               	xorlw	1	; case 101
  7185  055F  1903               	skipnz
  7186  0560  291B               	goto	l4183
  7187  0561  3A03               	xorlw	3	; case 102
  7188  0562  1903               	skipnz
  7189  0563  2920               	goto	l4189
  7190  0564  3A01               	xorlw	1	; case 103
  7191  0565  1903               	skipnz
  7192  0566  2925               	goto	l4195
  7193  0567  3A0F               	xorlw	15	; case 104
  7194  0568  1903               	skipnz
  7195  0569  292A               	goto	l4201
  7196  056A  3A01               	xorlw	1	; case 105
  7197  056B  1903               	skipnz
  7198  056C  292F               	goto	l4207
  7199  056D  3A03               	xorlw	3	; case 106
  7200  056E  1903               	skipnz
  7201  056F  2934               	goto	l4213
  7202  0570  3A01               	xorlw	1	; case 107
  7203  0571  1903               	skipnz
  7204  0572  2939               	goto	l4219
  7205  0573  3A07               	xorlw	7	; case 108
  7206  0574  1903               	skipnz
  7207  0575  293E               	goto	l4225
  7208  0576  3A01               	xorlw	1	; case 109
  7209  0577  1903               	skipnz
  7210  0578  2943               	goto	l4231
  7211  0579  3A03               	xorlw	3	; case 110
  7212  057A  1903               	skipnz
  7213  057B  2948               	goto	l4237
  7214  057C  3A01               	xorlw	1	; case 111
  7215  057D  1903               	skipnz
  7216  057E  294D               	goto	l4243
  7217  057F  3A1F               	xorlw	31	; case 112
  7218  0580  1903               	skipnz
  7219  0581  2952               	goto	l4249
  7220  0582  3A01               	xorlw	1	; case 113
  7221  0583  1903               	skipnz
  7222  0584  2957               	goto	l4255
  7223  0585  3A03               	xorlw	3	; case 114
  7224  0586  1903               	skipnz
  7225  0587  295C               	goto	l4261
  7226  0588  3A01               	xorlw	1	; case 115
  7227  0589  1903               	skipnz
  7228  058A  2961               	goto	l4267
  7229  058B  3A07               	xorlw	7	; case 116
  7230  058C  1903               	skipnz
  7231  058D  2966               	goto	l4273
  7232  058E  3A01               	xorlw	1	; case 117
  7233  058F  1903               	skipnz
  7234  0590  296B               	goto	l4279
  7235  0591  3A03               	xorlw	3	; case 118
  7236  0592  1903               	skipnz
  7237  0593  2970               	goto	l4285
  7238  0594  3A01               	xorlw	1	; case 119
  7239  0595  1903               	skipnz
  7240  0596  2975               	goto	l4291
  7241  0597  3A0F               	xorlw	15	; case 120
  7242  0598  1903               	skipnz
  7243  0599  297A               	goto	l4297
  7244  059A  3A01               	xorlw	1	; case 121
  7245  059B  1903               	skipnz
  7246  059C  297F               	goto	l4303
  7247  059D  3A03               	xorlw	3	; case 122
  7248  059E  1903               	skipnz
  7249  059F  2984               	goto	l4309
  7250  05A0  3A01               	xorlw	1	; case 123
  7251  05A1  1903               	skipnz
  7252  05A2  2989               	goto	l4315
  7253  05A3  3A07               	xorlw	7	; case 124
  7254  05A4  1903               	skipnz
  7255  05A5  298E               	goto	l4321
  7256  05A6  3A01               	xorlw	1	; case 125
  7257  05A7  1903               	skipnz
  7258  05A8  2993               	goto	l4327
  7259  05A9  3A03               	xorlw	3	; case 126
  7260  05AA  1903               	skipnz
  7261  05AB  2998               	goto	l4333
  7262  05AC  3A01               	xorlw	1	; case 127
  7263  05AD  1903               	skipnz
  7264  05AE  299D               	goto	l4339
  7265  05AF  3AFF               	xorlw	255	; case 128
  7266  05B0  1903               	skipnz
  7267  05B1  29A2               	goto	l4345
  7268  05B2  3A01               	xorlw	1	; case 129
  7269  05B3  1903               	skipnz
  7270  05B4  29A7               	goto	l4351
  7271  05B5  3A03               	xorlw	3	; case 130
  7272  05B6  1903               	skipnz
  7273  05B7  29AC               	goto	l4357
  7274  05B8  3A01               	xorlw	1	; case 131
  7275  05B9  1903               	skipnz
  7276  05BA  29B1               	goto	l4363
  7277  05BB  3A07               	xorlw	7	; case 132
  7278  05BC  1903               	skipnz
  7279  05BD  29B6               	goto	l4369
  7280  05BE  3A01               	xorlw	1	; case 133
  7281  05BF  1903               	skipnz
  7282  05C0  29BB               	goto	l4375
  7283  05C1  3A03               	xorlw	3	; case 134
  7284  05C2  1903               	skipnz
  7285  05C3  29C0               	goto	l4381
  7286  05C4  3A01               	xorlw	1	; case 135
  7287  05C5  1903               	skipnz
  7288  05C6  29C5               	goto	l4387
  7289  05C7  3A0F               	xorlw	15	; case 136
  7290  05C8  1903               	skipnz
  7291  05C9  29CA               	goto	l4393
  7292  05CA  3A01               	xorlw	1	; case 137
  7293  05CB  1903               	skipnz
  7294  05CC  29CF               	goto	l4399
  7295  05CD  3A03               	xorlw	3	; case 138
  7296  05CE  1903               	skipnz
  7297  05CF  29D4               	goto	l4405
  7298  05D0  3A01               	xorlw	1	; case 139
  7299  05D1  1903               	skipnz
  7300  05D2  29D9               	goto	l4411
  7301  05D3  3A07               	xorlw	7	; case 140
  7302  05D4  1903               	skipnz
  7303  05D5  29DE               	goto	l4417
  7304  05D6  3A01               	xorlw	1	; case 141
  7305  05D7  1903               	skipnz
  7306  05D8  29E3               	goto	l4423
  7307  05D9  3A03               	xorlw	3	; case 142
  7308  05DA  1903               	skipnz
  7309  05DB  29E8               	goto	l4429
  7310  05DC  3A01               	xorlw	1	; case 143
  7311  05DD  1903               	skipnz
  7312  05DE  29ED               	goto	l4435
  7313  05DF  3A1F               	xorlw	31	; case 144
  7314  05E0  1903               	skipnz
  7315  05E1  29F2               	goto	l4441
  7316  05E2  3A01               	xorlw	1	; case 145
  7317  05E3  1903               	skipnz
  7318  05E4  29F7               	goto	l4447
  7319  05E5  3A03               	xorlw	3	; case 146
  7320  05E6  1903               	skipnz
  7321  05E7  29FC               	goto	l4453
  7322  05E8  3A01               	xorlw	1	; case 147
  7323  05E9  1903               	skipnz
  7324  05EA  2A01               	goto	l4459
  7325  05EB  3A07               	xorlw	7	; case 148
  7326  05EC  1903               	skipnz
  7327  05ED  2A06               	goto	l4465
  7328  05EE  3A01               	xorlw	1	; case 149
  7329  05EF  1903               	skipnz
  7330  05F0  2A0B               	goto	l4471
  7331  05F1  3A03               	xorlw	3	; case 150
  7332  05F2  1903               	skipnz
  7333  05F3  2A10               	goto	l4477
  7334  05F4  3A01               	xorlw	1	; case 151
  7335  05F5  1903               	skipnz
  7336  05F6  2A15               	goto	l4483
  7337  05F7  3A0F               	xorlw	15	; case 152
  7338  05F8  1903               	skipnz
  7339  05F9  2A1A               	goto	l4489
  7340  05FA  3A01               	xorlw	1	; case 153
  7341  05FB  1903               	skipnz
  7342  05FC  2A1F               	goto	l4495
  7343  05FD  3A03               	xorlw	3	; case 154
  7344  05FE  1903               	skipnz
  7345  05FF  2A24               	goto	l4501
  7346  0600  3A01               	xorlw	1	; case 155
  7347  0601  1903               	skipnz
  7348  0602  2A29               	goto	l4507
  7349  0603  3A07               	xorlw	7	; case 156
  7350  0604  1903               	skipnz
  7351  0605  2A2E               	goto	l4513
  7352  0606  3A01               	xorlw	1	; case 157
  7353  0607  1903               	skipnz
  7354  0608  2A33               	goto	l4519
  7355  0609  3A03               	xorlw	3	; case 158
  7356  060A  1903               	skipnz
  7357  060B  2A38               	goto	l4525
  7358  060C  3A01               	xorlw	1	; case 159
  7359  060D  1903               	skipnz
  7360  060E  2A3D               	goto	l4531
  7361  060F  3A3F               	xorlw	63	; case 160
  7362  0610  1903               	skipnz
  7363  0611  2A42               	goto	l4537
  7364  0612  3A01               	xorlw	1	; case 161
  7365  0613  1903               	skipnz
  7366  0614  2A47               	goto	l4543
  7367  0615  3A03               	xorlw	3	; case 162
  7368  0616  1903               	skipnz
  7369  0617  2A4C               	goto	l4549
  7370  0618  3A01               	xorlw	1	; case 163
  7371  0619  1903               	skipnz
  7372  061A  2A51               	goto	l4555
  7373  061B  3A07               	xorlw	7	; case 164
  7374  061C  1903               	skipnz
  7375  061D  2A56               	goto	l4561
  7376  061E  3A01               	xorlw	1	; case 165
  7377  061F  1903               	skipnz
  7378  0620  2A5B               	goto	l4567
  7379  0621  3A03               	xorlw	3	; case 166
  7380  0622  1903               	skipnz
  7381  0623  2A60               	goto	l4573
  7382  0624  3A01               	xorlw	1	; case 167
  7383  0625  1903               	skipnz
  7384  0626  2A65               	goto	l4579
  7385  0627  3A0F               	xorlw	15	; case 168
  7386  0628  1903               	skipnz
  7387  0629  2A6A               	goto	l4585
  7388  062A  3A01               	xorlw	1	; case 169
  7389  062B  1903               	skipnz
  7390  062C  2A6F               	goto	l4591
  7391  062D  3A03               	xorlw	3	; case 170
  7392  062E  1903               	skipnz
  7393  062F  2A74               	goto	l4597
  7394  0630  3A01               	xorlw	1	; case 171
  7395  0631  1903               	skipnz
  7396  0632  2A79               	goto	l4603
  7397  0633  3A07               	xorlw	7	; case 172
  7398  0634  1903               	skipnz
  7399  0635  2A7E               	goto	l4609
  7400  0636  3A01               	xorlw	1	; case 173
  7401  0637  1903               	skipnz
  7402  0638  2A83               	goto	l4615
  7403  0639  3A03               	xorlw	3	; case 174
  7404  063A  1903               	skipnz
  7405  063B  2A88               	goto	l4621
  7406  063C  3A01               	xorlw	1	; case 175
  7407  063D  1903               	skipnz
  7408  063E  2A8D               	goto	l4627
  7409  063F  3A1F               	xorlw	31	; case 176
  7410  0640  1903               	skipnz
  7411  0641  2A92               	goto	l4633
  7412  0642  3A01               	xorlw	1	; case 177
  7413  0643  1903               	skipnz
  7414  0644  2A97               	goto	l4639
  7415  0645  3A03               	xorlw	3	; case 178
  7416  0646  1903               	skipnz
  7417  0647  2A9C               	goto	l4645
  7418  0648  3A01               	xorlw	1	; case 179
  7419  0649  1903               	skipnz
  7420  064A  2AA1               	goto	l4651
  7421  064B  3A07               	xorlw	7	; case 180
  7422  064C  1903               	skipnz
  7423  064D  2AA6               	goto	l4657
  7424  064E  3A01               	xorlw	1	; case 181
  7425  064F  1903               	skipnz
  7426  0650  2AAB               	goto	l4663
  7427  0651  3A03               	xorlw	3	; case 182
  7428  0652  1903               	skipnz
  7429  0653  2AB0               	goto	l4669
  7430  0654  3A01               	xorlw	1	; case 183
  7431  0655  1903               	skipnz
  7432  0656  2AB5               	goto	l4675
  7433  0657  3A0F               	xorlw	15	; case 184
  7434  0658  1903               	skipnz
  7435  0659  2ABA               	goto	l4681
  7436  065A  3A01               	xorlw	1	; case 185
  7437  065B  1903               	skipnz
  7438  065C  2ABF               	goto	l4687
  7439  065D  3A03               	xorlw	3	; case 186
  7440  065E  1903               	skipnz
  7441  065F  2AC4               	goto	l4693
  7442  0660  3A01               	xorlw	1	; case 187
  7443  0661  1903               	skipnz
  7444  0662  2AC9               	goto	l4699
  7445  0663  3A07               	xorlw	7	; case 188
  7446  0664  1903               	skipnz
  7447  0665  2ACE               	goto	l4705
  7448  0666  3A01               	xorlw	1	; case 189
  7449  0667  1903               	skipnz
  7450  0668  2AD3               	goto	l4711
  7451  0669  3A03               	xorlw	3	; case 190
  7452  066A  1903               	skipnz
  7453  066B  2AD8               	goto	l4717
  7454  066C  3A01               	xorlw	1	; case 191
  7455  066D  1903               	skipnz
  7456  066E  2ADD               	goto	l4723
  7457  066F  3A7F               	xorlw	127	; case 192
  7458  0670  1903               	skipnz
  7459  0671  2AE2               	goto	l4729
  7460  0672  3A01               	xorlw	1	; case 193
  7461  0673  1903               	skipnz
  7462  0674  2AE7               	goto	l4735
  7463  0675  3A03               	xorlw	3	; case 194
  7464  0676  1903               	skipnz
  7465  0677  2AEC               	goto	l4741
  7466  0678  3A01               	xorlw	1	; case 195
  7467  0679  1903               	skipnz
  7468  067A  2AF1               	goto	l4747
  7469  067B  3A07               	xorlw	7	; case 196
  7470  067C  1903               	skipnz
  7471  067D  2AF6               	goto	l4753
  7472  067E  3A01               	xorlw	1	; case 197
  7473  067F  1903               	skipnz
  7474  0680  2AFB               	goto	l4759
  7475  0681  3A03               	xorlw	3	; case 198
  7476  0682  1903               	skipnz
  7477  0683  2B00               	goto	l4765
  7478  0684  3A01               	xorlw	1	; case 199
  7479  0685  1903               	skipnz
  7480  0686  2B05               	goto	l4771
  7481  0687  3A0F               	xorlw	15	; case 200
  7482  0688  1903               	skipnz
  7483  0689  2B0A               	goto	l4777
  7484  068A  3A01               	xorlw	1	; case 201
  7485  068B  1903               	skipnz
  7486  068C  2B0F               	goto	l4783
  7487  068D  3A03               	xorlw	3	; case 202
  7488  068E  1903               	skipnz
  7489  068F  2B14               	goto	l4789
  7490  0690  3A01               	xorlw	1	; case 203
  7491  0691  1903               	skipnz
  7492  0692  2B19               	goto	l4795
  7493  0693  3A07               	xorlw	7	; case 204
  7494  0694  1903               	skipnz
  7495  0695  2B1E               	goto	l4801
  7496  0696  3A01               	xorlw	1	; case 205
  7497  0697  1903               	skipnz
  7498  0698  2B23               	goto	l4807
  7499  0699  3A03               	xorlw	3	; case 206
  7500  069A  1903               	skipnz
  7501  069B  2B28               	goto	l4813
  7502  069C  3A01               	xorlw	1	; case 207
  7503  069D  1903               	skipnz
  7504  069E  2B2D               	goto	l4819
  7505  069F  3A1F               	xorlw	31	; case 208
  7506  06A0  1903               	skipnz
  7507  06A1  2B32               	goto	l4825
  7508  06A2  3A01               	xorlw	1	; case 209
  7509  06A3  1903               	skipnz
  7510  06A4  2B37               	goto	l4831
  7511  06A5  3A03               	xorlw	3	; case 210
  7512  06A6  1903               	skipnz
  7513  06A7  2B3C               	goto	l4837
  7514  06A8  3A01               	xorlw	1	; case 211
  7515  06A9  1903               	skipnz
  7516  06AA  2B41               	goto	l4843
  7517  06AB  3A07               	xorlw	7	; case 212
  7518  06AC  1903               	skipnz
  7519  06AD  2B46               	goto	l4849
  7520  06AE  3A01               	xorlw	1	; case 213
  7521  06AF  1903               	skipnz
  7522  06B0  2B4B               	goto	l4855
  7523  06B1  3A03               	xorlw	3	; case 214
  7524  06B2  1903               	skipnz
  7525  06B3  2B50               	goto	l4861
  7526  06B4  3A01               	xorlw	1	; case 215
  7527  06B5  1903               	skipnz
  7528  06B6  2B55               	goto	l4867
  7529  06B7  3A0F               	xorlw	15	; case 216
  7530  06B8  1903               	skipnz
  7531  06B9  2B5A               	goto	l4873
  7532  06BA  3A01               	xorlw	1	; case 217
  7533  06BB  1903               	skipnz
  7534  06BC  2B5F               	goto	l4879
  7535  06BD  3A03               	xorlw	3	; case 218
  7536  06BE  1903               	skipnz
  7537  06BF  2B64               	goto	l4885
  7538  06C0  3A01               	xorlw	1	; case 219
  7539  06C1  1903               	skipnz
  7540  06C2  2B69               	goto	l4891
  7541  06C3  3A07               	xorlw	7	; case 220
  7542  06C4  1903               	skipnz
  7543  06C5  2B6E               	goto	l4897
  7544  06C6  3A01               	xorlw	1	; case 221
  7545  06C7  1903               	skipnz
  7546  06C8  2B73               	goto	l4903
  7547  06C9  3A03               	xorlw	3	; case 222
  7548  06CA  1903               	skipnz
  7549  06CB  2B78               	goto	l4909
  7550  06CC  3A01               	xorlw	1	; case 223
  7551  06CD  1903               	skipnz
  7552  06CE  2B7D               	goto	l4915
  7553  06CF  3A3F               	xorlw	63	; case 224
  7554  06D0  1903               	skipnz
  7555  06D1  2B82               	goto	l4921
  7556  06D2  3A01               	xorlw	1	; case 225
  7557  06D3  1903               	skipnz
  7558  06D4  2B87               	goto	l4927
  7559  06D5  3A03               	xorlw	3	; case 226
  7560  06D6  1903               	skipnz
  7561  06D7  2B8C               	goto	l4933
  7562  06D8  3A01               	xorlw	1	; case 227
  7563  06D9  1903               	skipnz
  7564  06DA  2B91               	goto	l4939
  7565  06DB  3A07               	xorlw	7	; case 228
  7566  06DC  1903               	skipnz
  7567  06DD  2B96               	goto	l4945
  7568  06DE  3A01               	xorlw	1	; case 229
  7569  06DF  1903               	skipnz
  7570  06E0  2B9B               	goto	l4951
  7571  06E1  3A03               	xorlw	3	; case 230
  7572  06E2  1903               	skipnz
  7573  06E3  2BA0               	goto	l4957
  7574  06E4  3A01               	xorlw	1	; case 231
  7575  06E5  1903               	skipnz
  7576  06E6  2BA5               	goto	l4963
  7577  06E7  3A0F               	xorlw	15	; case 232
  7578  06E8  1903               	skipnz
  7579  06E9  2BAA               	goto	l4969
  7580  06EA  3A01               	xorlw	1	; case 233
  7581  06EB  1903               	skipnz
  7582  06EC  2BAF               	goto	l4975
  7583  06ED  3A03               	xorlw	3	; case 234
  7584  06EE  1903               	skipnz
  7585  06EF  2BB4               	goto	l4981
  7586  06F0  3A01               	xorlw	1	; case 235
  7587  06F1  1903               	skipnz
  7588  06F2  2BB9               	goto	l4987
  7589  06F3  3A07               	xorlw	7	; case 236
  7590  06F4  1903               	skipnz
  7591  06F5  2BBE               	goto	l4993
  7592  06F6  3A01               	xorlw	1	; case 237
  7593  06F7  1903               	skipnz
  7594  06F8  2BC3               	goto	l4999
  7595  06F9  3A03               	xorlw	3	; case 238
  7596  06FA  1903               	skipnz
  7597  06FB  2BC8               	goto	l5005
  7598  06FC  3A01               	xorlw	1	; case 239
  7599  06FD  1903               	skipnz
  7600  06FE  2BCD               	goto	l5011
  7601  06FF  3A1F               	xorlw	31	; case 240
  7602  0700  1903               	skipnz
  7603  0701  2BD2               	goto	l5017
  7604  0702  3A01               	xorlw	1	; case 241
  7605  0703  1903               	skipnz
  7606  0704  2BD7               	goto	l5023
  7607  0705  3A03               	xorlw	3	; case 242
  7608  0706  1903               	skipnz
  7609  0707  2BDC               	goto	l5029
  7610  0708  3A01               	xorlw	1	; case 243
  7611  0709  1903               	skipnz
  7612  070A  2BE1               	goto	l5035
  7613  070B  3A07               	xorlw	7	; case 244
  7614  070C  1903               	skipnz
  7615  070D  2BE6               	goto	l5041
  7616  070E  3A01               	xorlw	1	; case 245
  7617  070F  1903               	skipnz
  7618  0710  2BEB               	goto	l5047
  7619  0711  3A03               	xorlw	3	; case 246
  7620  0712  1903               	skipnz
  7621  0713  2BF0               	goto	l5053
  7622  0714  3A01               	xorlw	1	; case 247
  7623  0715  1903               	skipnz
  7624  0716  2BF5               	goto	l5059
  7625  0717  3A0F               	xorlw	15	; case 248
  7626  0718  1903               	skipnz
  7627  0719  2BFA               	goto	l5065
  7628  071A  3A01               	xorlw	1	; case 249
  7629  071B  1903               	skipnz
  7630  071C  2BFF               	goto	l5071
  7631  071D  3A03               	xorlw	3	; case 250
  7632  071E  1903               	skipnz
  7633  071F  2C04               	goto	l5077
  7634  0720  3A01               	xorlw	1	; case 251
  7635  0721  1903               	skipnz
  7636  0722  2C09               	goto	l5083
  7637  0723  3A07               	xorlw	7	; case 252
  7638  0724  1903               	skipnz
  7639  0725  2C0E               	goto	l5089
  7640  0726  3A01               	xorlw	1	; case 253
  7641  0727  1903               	skipnz
  7642  0728  2C13               	goto	l5095
  7643  0729  3A03               	xorlw	3	; case 254
  7644  072A  1903               	skipnz
  7645  072B  2C18               	goto	l5101
  7646  072C  2C1D               	goto	l5107
  7647  072D                     l253:
  7648  072D  0008               	return
  7649  072E                     L2:
  7650  072E                     __end_of_CONV:
  7651  072E  120A  158A  2FFB   	ljmp	l3877

Data Sizes:
    Strings     1026
    Constant    0
    Data        0
    BSS         22
    Persistent  0
    Stack       0

Auto Spaces:
    Space          Size  Autos    Used
    COMMON           14     13      14
    BANK0            80     19      40
    BANK1            80      0       0
    BANK3            96      0       0
    BANK2            96      0       0

Pointer List with Targets:

    Lcd_Write_String@a	PTR unsigned char  size(2) Largest target is 5
		 -> NULL(NULL[0]), STR_259(CODE[4]), STR_258(CODE[4]), STR_257(CODE[4]), 
		 -> STR_256(CODE[4]), STR_255(CODE[4]), STR_254(CODE[4]), STR_253(CODE[4]), 
		 -> STR_252(CODE[4]), STR_251(CODE[4]), STR_250(CODE[4]), STR_249(CODE[4]), 
		 -> STR_248(CODE[4]), STR_247(CODE[4]), STR_246(CODE[4]), STR_245(CODE[4]), 
		 -> STR_244(CODE[4]), STR_243(CODE[4]), STR_242(CODE[4]), STR_241(CODE[4]), 
		 -> STR_240(CODE[4]), STR_239(CODE[4]), STR_238(CODE[4]), STR_237(CODE[4]), 
		 -> STR_236(CODE[4]), STR_235(CODE[4]), STR_234(CODE[4]), STR_233(CODE[4]), 
		 -> STR_232(CODE[4]), STR_231(CODE[4]), STR_230(CODE[4]), STR_229(CODE[4]), 
		 -> STR_228(CODE[4]), STR_227(CODE[4]), STR_226(CODE[4]), STR_225(CODE[4]), 
		 -> STR_224(CODE[4]), STR_223(CODE[4]), STR_222(CODE[4]), STR_221(CODE[4]), 
		 -> STR_220(CODE[4]), STR_219(CODE[4]), STR_218(CODE[4]), STR_217(CODE[4]), 
		 -> STR_216(CODE[4]), STR_215(CODE[4]), STR_214(CODE[4]), STR_213(CODE[4]), 
		 -> STR_212(CODE[4]), STR_211(CODE[4]), STR_210(CODE[4]), STR_209(CODE[4]), 
		 -> STR_208(CODE[4]), STR_207(CODE[4]), STR_206(CODE[4]), STR_205(CODE[4]), 
		 -> STR_204(CODE[3]), STR_203(CODE[4]), STR_202(CODE[4]), STR_201(CODE[4]), 
		 -> STR_200(CODE[4]), STR_199(CODE[4]), STR_198(CODE[4]), STR_197(CODE[4]), 
		 -> STR_196(CODE[4]), STR_195(CODE[4]), STR_194(CODE[4]), STR_193(CODE[4]), 
		 -> STR_192(CODE[4]), STR_191(CODE[4]), STR_190(CODE[4]), STR_189(CODE[4]), 
		 -> STR_188(CODE[4]), STR_187(CODE[4]), STR_186(CODE[4]), STR_185(CODE[4]), 
		 -> STR_184(CODE[4]), STR_183(CODE[4]), STR_182(CODE[4]), STR_181(CODE[4]), 
		 -> STR_180(CODE[4]), STR_179(CODE[4]), STR_178(CODE[4]), STR_177(CODE[4]), 
		 -> STR_176(CODE[4]), STR_175(CODE[4]), STR_174(CODE[4]), STR_173(CODE[4]), 
		 -> STR_172(CODE[4]), STR_171(CODE[4]), STR_170(CODE[4]), STR_169(CODE[4]), 
		 -> STR_168(CODE[4]), STR_167(CODE[4]), STR_166(CODE[4]), STR_165(CODE[4]), 
		 -> STR_164(CODE[4]), STR_163(CODE[4]), STR_162(CODE[4]), STR_161(CODE[4]), 
		 -> STR_160(CODE[4]), STR_159(CODE[4]), STR_158(CODE[4]), STR_157(CODE[2]), 
		 -> STR_156(CODE[2]), STR_155(CODE[4]), STR_154(CODE[4]), STR_153(CODE[4]), 
		 -> STR_152(CODE[4]), STR_151(CODE[4]), STR_150(CODE[4]), STR_149(CODE[4]), 
		 -> STR_148(CODE[4]), STR_147(CODE[4]), STR_146(CODE[4]), STR_145(CODE[4]), 
		 -> STR_144(CODE[4]), STR_143(CODE[4]), STR_142(CODE[4]), STR_141(CODE[4]), 
		 -> STR_140(CODE[4]), STR_139(CODE[4]), STR_138(CODE[4]), STR_137(CODE[4]), 
		 -> STR_136(CODE[4]), STR_135(CODE[4]), STR_134(CODE[4]), STR_133(CODE[4]), 
		 -> STR_132(CODE[4]), STR_131(CODE[4]), STR_130(CODE[4]), STR_129(CODE[4]), 
		 -> STR_128(CODE[4]), STR_127(CODE[4]), STR_126(CODE[4]), STR_125(CODE[4]), 
		 -> STR_124(CODE[4]), STR_123(CODE[4]), STR_122(CODE[4]), STR_121(CODE[4]), 
		 -> STR_120(CODE[4]), STR_119(CODE[4]), STR_118(CODE[4]), STR_117(CODE[4]), 
		 -> STR_116(CODE[4]), STR_115(CODE[4]), STR_114(CODE[4]), STR_113(CODE[4]), 
		 -> STR_112(CODE[4]), STR_111(CODE[4]), STR_110(CODE[4]), STR_109(CODE[4]), 
		 -> STR_108(CODE[4]), STR_107(CODE[4]), STR_106(CODE[4]), STR_105(CODE[4]), 
		 -> STR_104(CODE[4]), STR_103(CODE[4]), STR_102(CODE[4]), STR_101(CODE[4]), 
		 -> STR_100(CODE[4]), STR_99(CODE[4]), STR_98(CODE[4]), STR_97(CODE[4]), 
		 -> STR_96(CODE[4]), STR_95(CODE[4]), STR_94(CODE[4]), STR_93(CODE[4]), 
		 -> STR_92(CODE[4]), STR_91(CODE[4]), STR_90(CODE[4]), STR_89(CODE[4]), 
		 -> STR_88(CODE[4]), STR_87(CODE[4]), STR_86(CODE[4]), STR_85(CODE[4]), 
		 -> STR_84(CODE[4]), STR_83(CODE[4]), STR_82(CODE[4]), STR_81(CODE[4]), 
		 -> STR_80(CODE[4]), STR_79(CODE[4]), STR_78(CODE[4]), STR_77(CODE[4]), 
		 -> STR_76(CODE[4]), STR_75(CODE[4]), STR_74(CODE[4]), STR_73(CODE[4]), 
		 -> STR_72(CODE[4]), STR_71(CODE[4]), STR_70(CODE[4]), STR_69(CODE[4]), 
		 -> STR_68(CODE[4]), STR_67(CODE[4]), STR_66(CODE[4]), STR_65(CODE[4]), 
		 -> STR_64(CODE[4]), STR_63(CODE[4]), STR_62(CODE[4]), STR_61(CODE[4]), 
		 -> STR_60(CODE[4]), STR_59(CODE[4]), STR_58(CODE[4]), STR_57(CODE[4]), 
		 -> STR_56(CODE[4]), STR_55(CODE[4]), STR_54(CODE[4]), STR_53(CODE[4]), 
		 -> STR_52(CODE[4]), STR_51(CODE[4]), STR_50(CODE[4]), STR_49(CODE[4]), 
		 -> STR_48(CODE[4]), STR_47(CODE[4]), STR_46(CODE[4]), STR_45(CODE[4]), 
		 -> STR_44(CODE[4]), STR_43(CODE[4]), STR_42(CODE[4]), STR_41(CODE[4]), 
		 -> STR_40(CODE[4]), STR_39(CODE[4]), STR_38(CODE[4]), STR_37(CODE[4]), 
		 -> STR_36(CODE[4]), STR_35(CODE[4]), STR_34(CODE[4]), STR_33(CODE[4]), 
		 -> STR_32(CODE[4]), STR_31(CODE[4]), STR_30(CODE[4]), STR_29(CODE[4]), 
		 -> STR_28(CODE[4]), STR_27(CODE[4]), STR_26(CODE[4]), STR_25(CODE[4]), 
		 -> STR_24(CODE[4]), STR_23(CODE[4]), STR_22(CODE[4]), STR_21(CODE[4]), 
		 -> STR_20(CODE[4]), STR_19(CODE[4]), STR_18(CODE[4]), STR_17(CODE[4]), 
		 -> STR_16(CODE[4]), STR_15(CODE[4]), STR_14(CODE[4]), STR_13(CODE[4]), 
		 -> STR_12(CODE[4]), STR_11(CODE[4]), STR_10(CODE[4]), STR_9(CODE[4]), 
		 -> STR_8(CODE[4]), STR_7(CODE[4]), STR_6(CODE[4]), STR_5(CODE[4]), 
		 -> STR_4(CODE[4]), STR_3(CODE[5]), STR_2(CODE[5]), STR_1(CODE[4]), 

    TEMP_r	PTR const unsigned char  size(2) Largest target is 4
		 -> NULL(NULL[0]), STR_259(CODE[4]), STR_258(CODE[4]), STR_257(CODE[4]), 
		 -> STR_256(CODE[4]), STR_255(CODE[4]), STR_254(CODE[4]), STR_253(CODE[4]), 
		 -> STR_252(CODE[4]), STR_251(CODE[4]), STR_250(CODE[4]), STR_249(CODE[4]), 
		 -> STR_248(CODE[4]), STR_247(CODE[4]), STR_246(CODE[4]), STR_245(CODE[4]), 
		 -> STR_244(CODE[4]), STR_243(CODE[4]), STR_242(CODE[4]), STR_241(CODE[4]), 
		 -> STR_240(CODE[4]), STR_239(CODE[4]), STR_238(CODE[4]), STR_237(CODE[4]), 
		 -> STR_236(CODE[4]), STR_235(CODE[4]), STR_234(CODE[4]), STR_233(CODE[4]), 
		 -> STR_232(CODE[4]), STR_231(CODE[4]), STR_230(CODE[4]), STR_229(CODE[4]), 
		 -> STR_228(CODE[4]), STR_227(CODE[4]), STR_226(CODE[4]), STR_225(CODE[4]), 
		 -> STR_224(CODE[4]), STR_223(CODE[4]), STR_222(CODE[4]), STR_221(CODE[4]), 
		 -> STR_220(CODE[4]), STR_219(CODE[4]), STR_218(CODE[4]), STR_217(CODE[4]), 
		 -> STR_216(CODE[4]), STR_215(CODE[4]), STR_214(CODE[4]), STR_213(CODE[4]), 
		 -> STR_212(CODE[4]), STR_211(CODE[4]), STR_210(CODE[4]), STR_209(CODE[4]), 
		 -> STR_208(CODE[4]), STR_207(CODE[4]), STR_206(CODE[4]), STR_205(CODE[4]), 
		 -> STR_204(CODE[3]), STR_203(CODE[4]), STR_202(CODE[4]), STR_201(CODE[4]), 
		 -> STR_200(CODE[4]), STR_199(CODE[4]), STR_198(CODE[4]), STR_197(CODE[4]), 
		 -> STR_196(CODE[4]), STR_195(CODE[4]), STR_194(CODE[4]), STR_193(CODE[4]), 
		 -> STR_192(CODE[4]), STR_191(CODE[4]), STR_190(CODE[4]), STR_189(CODE[4]), 
		 -> STR_188(CODE[4]), STR_187(CODE[4]), STR_186(CODE[4]), STR_185(CODE[4]), 
		 -> STR_184(CODE[4]), STR_183(CODE[4]), STR_182(CODE[4]), STR_181(CODE[4]), 
		 -> STR_180(CODE[4]), STR_179(CODE[4]), STR_178(CODE[4]), STR_177(CODE[4]), 
		 -> STR_176(CODE[4]), STR_175(CODE[4]), STR_174(CODE[4]), STR_173(CODE[4]), 
		 -> STR_172(CODE[4]), STR_171(CODE[4]), STR_170(CODE[4]), STR_169(CODE[4]), 
		 -> STR_168(CODE[4]), STR_167(CODE[4]), STR_166(CODE[4]), STR_165(CODE[4]), 
		 -> STR_164(CODE[4]), STR_163(CODE[4]), STR_162(CODE[4]), STR_161(CODE[4]), 
		 -> STR_160(CODE[4]), STR_159(CODE[4]), STR_158(CODE[4]), STR_157(CODE[2]), 
		 -> STR_156(CODE[2]), STR_155(CODE[4]), STR_154(CODE[4]), STR_153(CODE[4]), 
		 -> STR_152(CODE[4]), STR_151(CODE[4]), STR_150(CODE[4]), STR_149(CODE[4]), 
		 -> STR_148(CODE[4]), STR_147(CODE[4]), STR_146(CODE[4]), STR_145(CODE[4]), 
		 -> STR_144(CODE[4]), STR_143(CODE[4]), STR_142(CODE[4]), STR_141(CODE[4]), 
		 -> STR_140(CODE[4]), STR_139(CODE[4]), STR_138(CODE[4]), STR_137(CODE[4]), 
		 -> STR_136(CODE[4]), STR_135(CODE[4]), STR_134(CODE[4]), STR_133(CODE[4]), 
		 -> STR_132(CODE[4]), STR_131(CODE[4]), STR_130(CODE[4]), STR_129(CODE[4]), 
		 -> STR_128(CODE[4]), STR_127(CODE[4]), STR_126(CODE[4]), STR_125(CODE[4]), 
		 -> STR_124(CODE[4]), STR_123(CODE[4]), STR_122(CODE[4]), STR_121(CODE[4]), 
		 -> STR_120(CODE[4]), STR_119(CODE[4]), STR_118(CODE[4]), STR_117(CODE[4]), 
		 -> STR_116(CODE[4]), STR_115(CODE[4]), STR_114(CODE[4]), STR_113(CODE[4]), 
		 -> STR_112(CODE[4]), STR_111(CODE[4]), STR_110(CODE[4]), STR_109(CODE[4]), 
		 -> STR_108(CODE[4]), STR_107(CODE[4]), STR_106(CODE[4]), STR_105(CODE[4]), 
		 -> STR_104(CODE[4]), STR_103(CODE[4]), STR_102(CODE[4]), STR_101(CODE[4]), 
		 -> STR_100(CODE[4]), STR_99(CODE[4]), STR_98(CODE[4]), STR_97(CODE[4]), 
		 -> STR_96(CODE[4]), STR_95(CODE[4]), STR_94(CODE[4]), STR_93(CODE[4]), 
		 -> STR_92(CODE[4]), STR_91(CODE[4]), STR_90(CODE[4]), STR_89(CODE[4]), 
		 -> STR_88(CODE[4]), STR_87(CODE[4]), STR_86(CODE[4]), STR_85(CODE[4]), 
		 -> STR_84(CODE[4]), STR_83(CODE[4]), STR_82(CODE[4]), STR_81(CODE[4]), 
		 -> STR_80(CODE[4]), STR_79(CODE[4]), STR_78(CODE[4]), STR_77(CODE[4]), 
		 -> STR_76(CODE[4]), STR_75(CODE[4]), STR_74(CODE[4]), STR_73(CODE[4]), 
		 -> STR_72(CODE[4]), STR_71(CODE[4]), STR_70(CODE[4]), STR_69(CODE[4]), 
		 -> STR_68(CODE[4]), STR_67(CODE[4]), STR_66(CODE[4]), STR_65(CODE[4]), 
		 -> STR_64(CODE[4]), STR_63(CODE[4]), STR_62(CODE[4]), STR_61(CODE[4]), 
		 -> STR_60(CODE[4]), STR_59(CODE[4]), STR_58(CODE[4]), STR_57(CODE[4]), 
		 -> STR_56(CODE[4]), STR_55(CODE[4]), STR_54(CODE[4]), STR_53(CODE[4]), 
		 -> STR_52(CODE[4]), STR_51(CODE[4]), STR_50(CODE[4]), STR_49(CODE[4]), 
		 -> STR_48(CODE[4]), STR_47(CODE[4]), STR_46(CODE[4]), STR_45(CODE[4]), 
		 -> STR_44(CODE[4]), STR_43(CODE[4]), STR_42(CODE[4]), STR_41(CODE[4]), 
		 -> STR_40(CODE[4]), STR_39(CODE[4]), STR_38(CODE[4]), STR_37(CODE[4]), 
		 -> STR_36(CODE[4]), STR_35(CODE[4]), STR_34(CODE[4]), STR_33(CODE[4]), 
		 -> STR_32(CODE[4]), STR_31(CODE[4]), STR_30(CODE[4]), STR_29(CODE[4]), 
		 -> STR_28(CODE[4]), STR_27(CODE[4]), STR_26(CODE[4]), STR_25(CODE[4]), 
		 -> STR_24(CODE[4]), STR_23(CODE[4]), STR_22(CODE[4]), STR_21(CODE[4]), 
		 -> STR_20(CODE[4]), STR_19(CODE[4]), STR_18(CODE[4]), STR_17(CODE[4]), 
		 -> STR_16(CODE[4]), STR_15(CODE[4]), STR_14(CODE[4]), STR_13(CODE[4]), 
		 -> STR_12(CODE[4]), STR_11(CODE[4]), STR_10(CODE[4]), STR_9(CODE[4]), 
		 -> STR_8(CODE[4]), STR_7(CODE[4]), STR_6(CODE[4]), STR_5(CODE[4]), 
		 -> STR_4(CODE[4]), 

    CONT_r	PTR const unsigned char  size(2) Largest target is 4
		 -> NULL(NULL[0]), STR_259(CODE[4]), STR_258(CODE[4]), STR_257(CODE[4]), 
		 -> STR_256(CODE[4]), STR_255(CODE[4]), STR_254(CODE[4]), STR_253(CODE[4]), 
		 -> STR_252(CODE[4]), STR_251(CODE[4]), STR_250(CODE[4]), STR_249(CODE[4]), 
		 -> STR_248(CODE[4]), STR_247(CODE[4]), STR_246(CODE[4]), STR_245(CODE[4]), 
		 -> STR_244(CODE[4]), STR_243(CODE[4]), STR_242(CODE[4]), STR_241(CODE[4]), 
		 -> STR_240(CODE[4]), STR_239(CODE[4]), STR_238(CODE[4]), STR_237(CODE[4]), 
		 -> STR_236(CODE[4]), STR_235(CODE[4]), STR_234(CODE[4]), STR_233(CODE[4]), 
		 -> STR_232(CODE[4]), STR_231(CODE[4]), STR_230(CODE[4]), STR_229(CODE[4]), 
		 -> STR_228(CODE[4]), STR_227(CODE[4]), STR_226(CODE[4]), STR_225(CODE[4]), 
		 -> STR_224(CODE[4]), STR_223(CODE[4]), STR_222(CODE[4]), STR_221(CODE[4]), 
		 -> STR_220(CODE[4]), STR_219(CODE[4]), STR_218(CODE[4]), STR_217(CODE[4]), 
		 -> STR_216(CODE[4]), STR_215(CODE[4]), STR_214(CODE[4]), STR_213(CODE[4]), 
		 -> STR_212(CODE[4]), STR_211(CODE[4]), STR_210(CODE[4]), STR_209(CODE[4]), 
		 -> STR_208(CODE[4]), STR_207(CODE[4]), STR_206(CODE[4]), STR_205(CODE[4]), 
		 -> STR_204(CODE[3]), STR_203(CODE[4]), STR_202(CODE[4]), STR_201(CODE[4]), 
		 -> STR_200(CODE[4]), STR_199(CODE[4]), STR_198(CODE[4]), STR_197(CODE[4]), 
		 -> STR_196(CODE[4]), STR_195(CODE[4]), STR_194(CODE[4]), STR_193(CODE[4]), 
		 -> STR_192(CODE[4]), STR_191(CODE[4]), STR_190(CODE[4]), STR_189(CODE[4]), 
		 -> STR_188(CODE[4]), STR_187(CODE[4]), STR_186(CODE[4]), STR_185(CODE[4]), 
		 -> STR_184(CODE[4]), STR_183(CODE[4]), STR_182(CODE[4]), STR_181(CODE[4]), 
		 -> STR_180(CODE[4]), STR_179(CODE[4]), STR_178(CODE[4]), STR_177(CODE[4]), 
		 -> STR_176(CODE[4]), STR_175(CODE[4]), STR_174(CODE[4]), STR_173(CODE[4]), 
		 -> STR_172(CODE[4]), STR_171(CODE[4]), STR_170(CODE[4]), STR_169(CODE[4]), 
		 -> STR_168(CODE[4]), STR_167(CODE[4]), STR_166(CODE[4]), STR_165(CODE[4]), 
		 -> STR_164(CODE[4]), STR_163(CODE[4]), STR_162(CODE[4]), STR_161(CODE[4]), 
		 -> STR_160(CODE[4]), STR_159(CODE[4]), STR_158(CODE[4]), STR_157(CODE[2]), 
		 -> STR_156(CODE[2]), STR_155(CODE[4]), STR_154(CODE[4]), STR_153(CODE[4]), 
		 -> STR_152(CODE[4]), STR_151(CODE[4]), STR_150(CODE[4]), STR_149(CODE[4]), 
		 -> STR_148(CODE[4]), STR_147(CODE[4]), STR_146(CODE[4]), STR_145(CODE[4]), 
		 -> STR_144(CODE[4]), STR_143(CODE[4]), STR_142(CODE[4]), STR_141(CODE[4]), 
		 -> STR_140(CODE[4]), STR_139(CODE[4]), STR_138(CODE[4]), STR_137(CODE[4]), 
		 -> STR_136(CODE[4]), STR_135(CODE[4]), STR_134(CODE[4]), STR_133(CODE[4]), 
		 -> STR_132(CODE[4]), STR_131(CODE[4]), STR_130(CODE[4]), STR_129(CODE[4]), 
		 -> STR_128(CODE[4]), STR_127(CODE[4]), STR_126(CODE[4]), STR_125(CODE[4]), 
		 -> STR_124(CODE[4]), STR_123(CODE[4]), STR_122(CODE[4]), STR_121(CODE[4]), 
		 -> STR_120(CODE[4]), STR_119(CODE[4]), STR_118(CODE[4]), STR_117(CODE[4]), 
		 -> STR_116(CODE[4]), STR_115(CODE[4]), STR_114(CODE[4]), STR_113(CODE[4]), 
		 -> STR_112(CODE[4]), STR_111(CODE[4]), STR_110(CODE[4]), STR_109(CODE[4]), 
		 -> STR_108(CODE[4]), STR_107(CODE[4]), STR_106(CODE[4]), STR_105(CODE[4]), 
		 -> STR_104(CODE[4]), STR_103(CODE[4]), STR_102(CODE[4]), STR_101(CODE[4]), 
		 -> STR_100(CODE[4]), STR_99(CODE[4]), STR_98(CODE[4]), STR_97(CODE[4]), 
		 -> STR_96(CODE[4]), STR_95(CODE[4]), STR_94(CODE[4]), STR_93(CODE[4]), 
		 -> STR_92(CODE[4]), STR_91(CODE[4]), STR_90(CODE[4]), STR_89(CODE[4]), 
		 -> STR_88(CODE[4]), STR_87(CODE[4]), STR_86(CODE[4]), STR_85(CODE[4]), 
		 -> STR_84(CODE[4]), STR_83(CODE[4]), STR_82(CODE[4]), STR_81(CODE[4]), 
		 -> STR_80(CODE[4]), STR_79(CODE[4]), STR_78(CODE[4]), STR_77(CODE[4]), 
		 -> STR_76(CODE[4]), STR_75(CODE[4]), STR_74(CODE[4]), STR_73(CODE[4]), 
		 -> STR_72(CODE[4]), STR_71(CODE[4]), STR_70(CODE[4]), STR_69(CODE[4]), 
		 -> STR_68(CODE[4]), STR_67(CODE[4]), STR_66(CODE[4]), STR_65(CODE[4]), 
		 -> STR_64(CODE[4]), STR_63(CODE[4]), STR_62(CODE[4]), STR_61(CODE[4]), 
		 -> STR_60(CODE[4]), STR_59(CODE[4]), STR_58(CODE[4]), STR_57(CODE[4]), 
		 -> STR_56(CODE[4]), STR_55(CODE[4]), STR_54(CODE[4]), STR_53(CODE[4]), 
		 -> STR_52(CODE[4]), STR_51(CODE[4]), STR_50(CODE[4]), STR_49(CODE[4]), 
		 -> STR_48(CODE[4]), STR_47(CODE[4]), STR_46(CODE[4]), STR_45(CODE[4]), 
		 -> STR_44(CODE[4]), STR_43(CODE[4]), STR_42(CODE[4]), STR_41(CODE[4]), 
		 -> STR_40(CODE[4]), STR_39(CODE[4]), STR_38(CODE[4]), STR_37(CODE[4]), 
		 -> STR_36(CODE[4]), STR_35(CODE[4]), STR_34(CODE[4]), STR_33(CODE[4]), 
		 -> STR_32(CODE[4]), STR_31(CODE[4]), STR_30(CODE[4]), STR_29(CODE[4]), 
		 -> STR_28(CODE[4]), STR_27(CODE[4]), STR_26(CODE[4]), STR_25(CODE[4]), 
		 -> STR_24(CODE[4]), STR_23(CODE[4]), STR_22(CODE[4]), STR_21(CODE[4]), 
		 -> STR_20(CODE[4]), STR_19(CODE[4]), STR_18(CODE[4]), STR_17(CODE[4]), 
		 -> STR_16(CODE[4]), STR_15(CODE[4]), STR_14(CODE[4]), STR_13(CODE[4]), 
		 -> STR_12(CODE[4]), STR_11(CODE[4]), STR_10(CODE[4]), STR_9(CODE[4]), 
		 -> STR_8(CODE[4]), STR_7(CODE[4]), STR_6(CODE[4]), STR_5(CODE[4]), 
		 -> STR_4(CODE[4]), 

    sp__CONV	PTR const unsigned char  size(2) Largest target is 4
		 -> STR_259(CODE[4]), STR_258(CODE[4]), STR_257(CODE[4]), STR_256(CODE[4]), 
		 -> STR_255(CODE[4]), STR_254(CODE[4]), STR_253(CODE[4]), STR_252(CODE[4]), 
		 -> STR_251(CODE[4]), STR_250(CODE[4]), STR_249(CODE[4]), STR_248(CODE[4]), 
		 -> STR_247(CODE[4]), STR_246(CODE[4]), STR_245(CODE[4]), STR_244(CODE[4]), 
		 -> STR_243(CODE[4]), STR_242(CODE[4]), STR_241(CODE[4]), STR_240(CODE[4]), 
		 -> STR_239(CODE[4]), STR_238(CODE[4]), STR_237(CODE[4]), STR_236(CODE[4]), 
		 -> STR_235(CODE[4]), STR_234(CODE[4]), STR_233(CODE[4]), STR_232(CODE[4]), 
		 -> STR_231(CODE[4]), STR_230(CODE[4]), STR_229(CODE[4]), STR_228(CODE[4]), 
		 -> STR_227(CODE[4]), STR_226(CODE[4]), STR_225(CODE[4]), STR_224(CODE[4]), 
		 -> STR_223(CODE[4]), STR_222(CODE[4]), STR_221(CODE[4]), STR_220(CODE[4]), 
		 -> STR_219(CODE[4]), STR_218(CODE[4]), STR_217(CODE[4]), STR_216(CODE[4]), 
		 -> STR_215(CODE[4]), STR_214(CODE[4]), STR_213(CODE[4]), STR_212(CODE[4]), 
		 -> STR_211(CODE[4]), STR_210(CODE[4]), STR_209(CODE[4]), STR_208(CODE[4]), 
		 -> STR_207(CODE[4]), STR_206(CODE[4]), STR_205(CODE[4]), STR_204(CODE[3]), 
		 -> STR_203(CODE[4]), STR_202(CODE[4]), STR_201(CODE[4]), STR_200(CODE[4]), 
		 -> STR_199(CODE[4]), STR_198(CODE[4]), STR_197(CODE[4]), STR_196(CODE[4]), 
		 -> STR_195(CODE[4]), STR_194(CODE[4]), STR_193(CODE[4]), STR_192(CODE[4]), 
		 -> STR_191(CODE[4]), STR_190(CODE[4]), STR_189(CODE[4]), STR_188(CODE[4]), 
		 -> STR_187(CODE[4]), STR_186(CODE[4]), STR_185(CODE[4]), STR_184(CODE[4]), 
		 -> STR_183(CODE[4]), STR_182(CODE[4]), STR_181(CODE[4]), STR_180(CODE[4]), 
		 -> STR_179(CODE[4]), STR_178(CODE[4]), STR_177(CODE[4]), STR_176(CODE[4]), 
		 -> STR_175(CODE[4]), STR_174(CODE[4]), STR_173(CODE[4]), STR_172(CODE[4]), 
		 -> STR_171(CODE[4]), STR_170(CODE[4]), STR_169(CODE[4]), STR_168(CODE[4]), 
		 -> STR_167(CODE[4]), STR_166(CODE[4]), STR_165(CODE[4]), STR_164(CODE[4]), 
		 -> STR_163(CODE[4]), STR_162(CODE[4]), STR_161(CODE[4]), STR_160(CODE[4]), 
		 -> STR_159(CODE[4]), STR_158(CODE[4]), STR_157(CODE[2]), STR_156(CODE[2]), 
		 -> STR_155(CODE[4]), STR_154(CODE[4]), STR_153(CODE[4]), STR_152(CODE[4]), 
		 -> STR_151(CODE[4]), STR_150(CODE[4]), STR_149(CODE[4]), STR_148(CODE[4]), 
		 -> STR_147(CODE[4]), STR_146(CODE[4]), STR_145(CODE[4]), STR_144(CODE[4]), 
		 -> STR_143(CODE[4]), STR_142(CODE[4]), STR_141(CODE[4]), STR_140(CODE[4]), 
		 -> STR_139(CODE[4]), STR_138(CODE[4]), STR_137(CODE[4]), STR_136(CODE[4]), 
		 -> STR_135(CODE[4]), STR_134(CODE[4]), STR_133(CODE[4]), STR_132(CODE[4]), 
		 -> STR_131(CODE[4]), STR_130(CODE[4]), STR_129(CODE[4]), STR_128(CODE[4]), 
		 -> STR_127(CODE[4]), STR_126(CODE[4]), STR_125(CODE[4]), STR_124(CODE[4]), 
		 -> STR_123(CODE[4]), STR_122(CODE[4]), STR_121(CODE[4]), STR_120(CODE[4]), 
		 -> STR_119(CODE[4]), STR_118(CODE[4]), STR_117(CODE[4]), STR_116(CODE[4]), 
		 -> STR_115(CODE[4]), STR_114(CODE[4]), STR_113(CODE[4]), STR_112(CODE[4]), 
		 -> STR_111(CODE[4]), STR_110(CODE[4]), STR_109(CODE[4]), STR_108(CODE[4]), 
		 -> STR_107(CODE[4]), STR_106(CODE[4]), STR_105(CODE[4]), STR_104(CODE[4]), 
		 -> STR_103(CODE[4]), STR_102(CODE[4]), STR_101(CODE[4]), STR_100(CODE[4]), 
		 -> STR_99(CODE[4]), STR_98(CODE[4]), STR_97(CODE[4]), STR_96(CODE[4]), 
		 -> STR_95(CODE[4]), STR_94(CODE[4]), STR_93(CODE[4]), STR_92(CODE[4]), 
		 -> STR_91(CODE[4]), STR_90(CODE[4]), STR_89(CODE[4]), STR_88(CODE[4]), 
		 -> STR_87(CODE[4]), STR_86(CODE[4]), STR_85(CODE[4]), STR_84(CODE[4]), 
		 -> STR_83(CODE[4]), STR_82(CODE[4]), STR_81(CODE[4]), STR_80(CODE[4]), 
		 -> STR_79(CODE[4]), STR_78(CODE[4]), STR_77(CODE[4]), STR_76(CODE[4]), 
		 -> STR_75(CODE[4]), STR_74(CODE[4]), STR_73(CODE[4]), STR_72(CODE[4]), 
		 -> STR_71(CODE[4]), STR_70(CODE[4]), STR_69(CODE[4]), STR_68(CODE[4]), 
		 -> STR_67(CODE[4]), STR_66(CODE[4]), STR_65(CODE[4]), STR_64(CODE[4]), 
		 -> STR_63(CODE[4]), STR_62(CODE[4]), STR_61(CODE[4]), STR_60(CODE[4]), 
		 -> STR_59(CODE[4]), STR_58(CODE[4]), STR_57(CODE[4]), STR_56(CODE[4]), 
		 -> STR_55(CODE[4]), STR_54(CODE[4]), STR_53(CODE[4]), STR_52(CODE[4]), 
		 -> STR_51(CODE[4]), STR_50(CODE[4]), STR_49(CODE[4]), STR_48(CODE[4]), 
		 -> STR_47(CODE[4]), STR_46(CODE[4]), STR_45(CODE[4]), STR_44(CODE[4]), 
		 -> STR_43(CODE[4]), STR_42(CODE[4]), STR_41(CODE[4]), STR_40(CODE[4]), 
		 -> STR_39(CODE[4]), STR_38(CODE[4]), STR_37(CODE[4]), STR_36(CODE[4]), 
		 -> STR_35(CODE[4]), STR_34(CODE[4]), STR_33(CODE[4]), STR_32(CODE[4]), 
		 -> STR_31(CODE[4]), STR_30(CODE[4]), STR_29(CODE[4]), STR_28(CODE[4]), 
		 -> STR_27(CODE[4]), STR_26(CODE[4]), STR_25(CODE[4]), STR_24(CODE[4]), 
		 -> STR_23(CODE[4]), STR_22(CODE[4]), STR_21(CODE[4]), STR_20(CODE[4]), 
		 -> STR_19(CODE[4]), STR_18(CODE[4]), STR_17(CODE[4]), STR_16(CODE[4]), 
		 -> STR_15(CODE[4]), STR_14(CODE[4]), STR_13(CODE[4]), STR_12(CODE[4]), 
		 -> STR_11(CODE[4]), STR_10(CODE[4]), STR_9(CODE[4]), STR_8(CODE[4]), 
		 -> STR_7(CODE[4]), STR_6(CODE[4]), STR_5(CODE[4]), STR_4(CODE[4]), 

    POT_r	PTR const unsigned char  size(2) Largest target is 4
		 -> NULL(NULL[0]), STR_259(CODE[4]), STR_258(CODE[4]), STR_257(CODE[4]), 
		 -> STR_256(CODE[4]), STR_255(CODE[4]), STR_254(CODE[4]), STR_253(CODE[4]), 
		 -> STR_252(CODE[4]), STR_251(CODE[4]), STR_250(CODE[4]), STR_249(CODE[4]), 
		 -> STR_248(CODE[4]), STR_247(CODE[4]), STR_246(CODE[4]), STR_245(CODE[4]), 
		 -> STR_244(CODE[4]), STR_243(CODE[4]), STR_242(CODE[4]), STR_241(CODE[4]), 
		 -> STR_240(CODE[4]), STR_239(CODE[4]), STR_238(CODE[4]), STR_237(CODE[4]), 
		 -> STR_236(CODE[4]), STR_235(CODE[4]), STR_234(CODE[4]), STR_233(CODE[4]), 
		 -> STR_232(CODE[4]), STR_231(CODE[4]), STR_230(CODE[4]), STR_229(CODE[4]), 
		 -> STR_228(CODE[4]), STR_227(CODE[4]), STR_226(CODE[4]), STR_225(CODE[4]), 
		 -> STR_224(CODE[4]), STR_223(CODE[4]), STR_222(CODE[4]), STR_221(CODE[4]), 
		 -> STR_220(CODE[4]), STR_219(CODE[4]), STR_218(CODE[4]), STR_217(CODE[4]), 
		 -> STR_216(CODE[4]), STR_215(CODE[4]), STR_214(CODE[4]), STR_213(CODE[4]), 
		 -> STR_212(CODE[4]), STR_211(CODE[4]), STR_210(CODE[4]), STR_209(CODE[4]), 
		 -> STR_208(CODE[4]), STR_207(CODE[4]), STR_206(CODE[4]), STR_205(CODE[4]), 
		 -> STR_204(CODE[3]), STR_203(CODE[4]), STR_202(CODE[4]), STR_201(CODE[4]), 
		 -> STR_200(CODE[4]), STR_199(CODE[4]), STR_198(CODE[4]), STR_197(CODE[4]), 
		 -> STR_196(CODE[4]), STR_195(CODE[4]), STR_194(CODE[4]), STR_193(CODE[4]), 
		 -> STR_192(CODE[4]), STR_191(CODE[4]), STR_190(CODE[4]), STR_189(CODE[4]), 
		 -> STR_188(CODE[4]), STR_187(CODE[4]), STR_186(CODE[4]), STR_185(CODE[4]), 
		 -> STR_184(CODE[4]), STR_183(CODE[4]), STR_182(CODE[4]), STR_181(CODE[4]), 
		 -> STR_180(CODE[4]), STR_179(CODE[4]), STR_178(CODE[4]), STR_177(CODE[4]), 
		 -> STR_176(CODE[4]), STR_175(CODE[4]), STR_174(CODE[4]), STR_173(CODE[4]), 
		 -> STR_172(CODE[4]), STR_171(CODE[4]), STR_170(CODE[4]), STR_169(CODE[4]), 
		 -> STR_168(CODE[4]), STR_167(CODE[4]), STR_166(CODE[4]), STR_165(CODE[4]), 
		 -> STR_164(CODE[4]), STR_163(CODE[4]), STR_162(CODE[4]), STR_161(CODE[4]), 
		 -> STR_160(CODE[4]), STR_159(CODE[4]), STR_158(CODE[4]), STR_157(CODE[2]), 
		 -> STR_156(CODE[2]), STR_155(CODE[4]), STR_154(CODE[4]), STR_153(CODE[4]), 
		 -> STR_152(CODE[4]), STR_151(CODE[4]), STR_150(CODE[4]), STR_149(CODE[4]), 
		 -> STR_148(CODE[4]), STR_147(CODE[4]), STR_146(CODE[4]), STR_145(CODE[4]), 
		 -> STR_144(CODE[4]), STR_143(CODE[4]), STR_142(CODE[4]), STR_141(CODE[4]), 
		 -> STR_140(CODE[4]), STR_139(CODE[4]), STR_138(CODE[4]), STR_137(CODE[4]), 
		 -> STR_136(CODE[4]), STR_135(CODE[4]), STR_134(CODE[4]), STR_133(CODE[4]), 
		 -> STR_132(CODE[4]), STR_131(CODE[4]), STR_130(CODE[4]), STR_129(CODE[4]), 
		 -> STR_128(CODE[4]), STR_127(CODE[4]), STR_126(CODE[4]), STR_125(CODE[4]), 
		 -> STR_124(CODE[4]), STR_123(CODE[4]), STR_122(CODE[4]), STR_121(CODE[4]), 
		 -> STR_120(CODE[4]), STR_119(CODE[4]), STR_118(CODE[4]), STR_117(CODE[4]), 
		 -> STR_116(CODE[4]), STR_115(CODE[4]), STR_114(CODE[4]), STR_113(CODE[4]), 
		 -> STR_112(CODE[4]), STR_111(CODE[4]), STR_110(CODE[4]), STR_109(CODE[4]), 
		 -> STR_108(CODE[4]), STR_107(CODE[4]), STR_106(CODE[4]), STR_105(CODE[4]), 
		 -> STR_104(CODE[4]), STR_103(CODE[4]), STR_102(CODE[4]), STR_101(CODE[4]), 
		 -> STR_100(CODE[4]), STR_99(CODE[4]), STR_98(CODE[4]), STR_97(CODE[4]), 
		 -> STR_96(CODE[4]), STR_95(CODE[4]), STR_94(CODE[4]), STR_93(CODE[4]), 
		 -> STR_92(CODE[4]), STR_91(CODE[4]), STR_90(CODE[4]), STR_89(CODE[4]), 
		 -> STR_88(CODE[4]), STR_87(CODE[4]), STR_86(CODE[4]), STR_85(CODE[4]), 
		 -> STR_84(CODE[4]), STR_83(CODE[4]), STR_82(CODE[4]), STR_81(CODE[4]), 
		 -> STR_80(CODE[4]), STR_79(CODE[4]), STR_78(CODE[4]), STR_77(CODE[4]), 
		 -> STR_76(CODE[4]), STR_75(CODE[4]), STR_74(CODE[4]), STR_73(CODE[4]), 
		 -> STR_72(CODE[4]), STR_71(CODE[4]), STR_70(CODE[4]), STR_69(CODE[4]), 
		 -> STR_68(CODE[4]), STR_67(CODE[4]), STR_66(CODE[4]), STR_65(CODE[4]), 
		 -> STR_64(CODE[4]), STR_63(CODE[4]), STR_62(CODE[4]), STR_61(CODE[4]), 
		 -> STR_60(CODE[4]), STR_59(CODE[4]), STR_58(CODE[4]), STR_57(CODE[4]), 
		 -> STR_56(CODE[4]), STR_55(CODE[4]), STR_54(CODE[4]), STR_53(CODE[4]), 
		 -> STR_52(CODE[4]), STR_51(CODE[4]), STR_50(CODE[4]), STR_49(CODE[4]), 
		 -> STR_48(CODE[4]), STR_47(CODE[4]), STR_46(CODE[4]), STR_45(CODE[4]), 
		 -> STR_44(CODE[4]), STR_43(CODE[4]), STR_42(CODE[4]), STR_41(CODE[4]), 
		 -> STR_40(CODE[4]), STR_39(CODE[4]), STR_38(CODE[4]), STR_37(CODE[4]), 
		 -> STR_36(CODE[4]), STR_35(CODE[4]), STR_34(CODE[4]), STR_33(CODE[4]), 
		 -> STR_32(CODE[4]), STR_31(CODE[4]), STR_30(CODE[4]), STR_29(CODE[4]), 
		 -> STR_28(CODE[4]), STR_27(CODE[4]), STR_26(CODE[4]), STR_25(CODE[4]), 
		 -> STR_24(CODE[4]), STR_23(CODE[4]), STR_22(CODE[4]), STR_21(CODE[4]), 
		 -> STR_20(CODE[4]), STR_19(CODE[4]), STR_18(CODE[4]), STR_17(CODE[4]), 
		 -> STR_16(CODE[4]), STR_15(CODE[4]), STR_14(CODE[4]), STR_13(CODE[4]), 
		 -> STR_12(CODE[4]), STR_11(CODE[4]), STR_10(CODE[4]), STR_9(CODE[4]), 
		 -> STR_8(CODE[4]), STR_7(CODE[4]), STR_6(CODE[4]), STR_5(CODE[4]), 
		 -> STR_4(CODE[4]), 


Critical Paths under _main in COMMON

    None.

Critical Paths under _isr in COMMON

    _TX->_CONT_TO_CHARS
    _TX->_POT_TO_CHARS
    _TX->_TEMP_TO_CHARS
    _TEMP_TO_CHARS->___awdiv
    _POT_TO_CHARS->___awdiv
    _CONT_TO_CHARS->___awdiv

Critical Paths under _main in BANK0

    _main->_LCD
    _main->_SETUP
    _SETUP->_Lcd_Write_String
    _Lcd_Init->_Lcd_Cmd
    _LEER_S3->_READ_SPI
    _LEER_S2->_READ_SPI
    _LEER_S1->_READ_SPI
    _LCD->_Lcd_Write_String
    _Lcd_Write_String->_Lcd_Write_Char
    _Lcd_Write_Char->_Lcd_Port
    _Lcd_Set_Cursor->_Lcd_Cmd
    _Lcd_Cmd->_Lcd_Port

Critical Paths under _isr in BANK0

    _isr->_TX

Critical Paths under _main in BANK1

    None.

Critical Paths under _isr in BANK1

    None.

Critical Paths under _main in BANK3

    None.

Critical Paths under _isr in BANK3

    None.

Critical Paths under _main in BANK2

    None.

Critical Paths under _isr in BANK2

    None.

Call Graph Tables:

 ---------------------------------------------------------------------------------
 (Depth) Function   	        Calls       Base Space   Used Autos Params    Refs
 ---------------------------------------------------------------------------------
 (0) _main                                                 3     3      0    2583
                                             16 BANK0      3     3      0
                               _CONV
                                _LCD
                            _LEER_S1
                            _LEER_S2
                            _LEER_S3
                              _SETUP
 ---------------------------------------------------------------------------------
 (1) _SETUP                                                1     1      0    1268
                                             15 BANK0      1     1      0
                       _CONFIG_USART
                           _Lcd_Init
                     _Lcd_Set_Cursor
                   _Lcd_Write_String
 ---------------------------------------------------------------------------------
 (2) _Lcd_Init                                             0     0      0      44
                            _Lcd_Cmd
 ---------------------------------------------------------------------------------
 (2) _CONFIG_USART                                         0     0      0       0
 ---------------------------------------------------------------------------------
 (1) _LEER_S3                                              2     2      0      23
                                              7 BANK0      2     2      0
                           _READ_SPI
 ---------------------------------------------------------------------------------
 (1) _LEER_S2                                              2     2      0      23
                                              7 BANK0      2     2      0
                           _READ_SPI
 ---------------------------------------------------------------------------------
 (1) _LEER_S1                                              2     2      0      23
                                              7 BANK0      2     2      0
                           _READ_SPI
 ---------------------------------------------------------------------------------
 (2) _READ_SPI                                             2     2      0      23
                                              5 BANK0      2     2      0
 ---------------------------------------------------------------------------------
 (1) _LCD                                                  1     1      0    1224
                                             15 BANK0      1     1      0
                     _Lcd_Set_Cursor
                   _Lcd_Write_String
 ---------------------------------------------------------------------------------
 (2) _Lcd_Write_String                                     7     5      2     590
                                              8 BANK0      7     5      2
                     _Lcd_Write_Char
 ---------------------------------------------------------------------------------
 (3) _Lcd_Write_Char                                       2     2      0      44
                                              6 BANK0      2     2      0
                           _Lcd_Port
 ---------------------------------------------------------------------------------
 (2) _Lcd_Set_Cursor                                       4     3      1     634
                                              9 BANK0      4     3      1
                            _Lcd_Cmd
 ---------------------------------------------------------------------------------
 (3) _Lcd_Cmd                                              3     3      0      44
                                              6 BANK0      3     3      0
                           _Lcd_Port
 ---------------------------------------------------------------------------------
 (4) _Lcd_Port                                             1     1      0      22
                                              5 BANK0      1     1      0
 ---------------------------------------------------------------------------------
 (1) _CONV                                                 4     3      1      22
                                              5 BANK0      4     3      1
 ---------------------------------------------------------------------------------
 Estimated maximum stack depth 4
 ---------------------------------------------------------------------------------
 (Depth) Function   	        Calls       Base Space   Used Autos Params    Refs
 ---------------------------------------------------------------------------------
 (5) _isr                                                  3     3      0    7530
                                              2 BANK0      3     3      0
                                 _TX
 ---------------------------------------------------------------------------------
 (6) _TX                                                   2     2      0    7530
                                              0 BANK0      2     2      0
                      _CONT_TO_CHARS
                       _POT_TO_CHARS
                      _TEMP_TO_CHARS
 ---------------------------------------------------------------------------------
 (7) _TEMP_TO_CHARS                                        4     4      0    2510
                                              9 COMMON     4     4      0
                            ___awdiv
                            ___awmod
 ---------------------------------------------------------------------------------
 (7) _POT_TO_CHARS                                         4     4      0    2510
                                              9 COMMON     4     4      0
                            ___awdiv
                            ___awmod
 ---------------------------------------------------------------------------------
 (7) _CONT_TO_CHARS                                        4     4      0    2510
                                              9 COMMON     4     4      0
                            ___awdiv
                            ___awmod
 ---------------------------------------------------------------------------------
 (8) ___awmod                                              7     3      4    1208
                                              0 COMMON     7     3      4
 ---------------------------------------------------------------------------------
 (8) ___awdiv                                              9     5      4    1212
                                              0 COMMON     9     5      4
 ---------------------------------------------------------------------------------
 Estimated maximum stack depth 8
 ---------------------------------------------------------------------------------

 Call Graph Graphs:

 _main (ROOT)
   _CONV
   _LCD
     _Lcd_Set_Cursor
       _Lcd_Cmd
         _Lcd_Port
     _Lcd_Write_String
       _Lcd_Write_Char
         _Lcd_Port
   _LEER_S1
     _READ_SPI
   _LEER_S2
     _READ_SPI
   _LEER_S3
     _READ_SPI
   _SETUP
     _CONFIG_USART
     _Lcd_Init
       _Lcd_Cmd
         _Lcd_Port
     _Lcd_Set_Cursor
       _Lcd_Cmd
         _Lcd_Port
     _Lcd_Write_String
       _Lcd_Write_Char
         _Lcd_Port

 _isr (ROOT)
   _TX
     _CONT_TO_CHARS
       ___awdiv
       ___awmod
     _POT_TO_CHARS
       ___awdiv
       ___awmod
     _TEMP_TO_CHARS
       ___awdiv
       ___awmod

 Address spaces:
Name               Size   Autos  Total    Cost      Usage
BITCOMMON            E      0       0       0        0.0%
EEDATA             100      0       0       0        0.0%
NULL                 0      0       0       0        0.0%
CODE                 0      0       0       0        0.0%
COMMON               E      D       E       1      100.0%
BITSFR0              0      0       0       1        0.0%
SFR0                 0      0       0       1        0.0%
BITSFR1              0      0       0       2        0.0%
SFR1                 0      0       0       2        0.0%
STACK                0      0       0       2        0.0%
ABS                  0      0      36       3        0.0%
BITBANK0            50      0       0       4        0.0%
BITSFR3              0      0       0       4        0.0%
SFR3                 0      0       0       4        0.0%
BANK0               50     13      28       5       50.0%
BITSFR2              0      0       0       5        0.0%
SFR2                 0      0       0       5        0.0%
BITBANK1            50      0       0       6        0.0%
BANK1               50      0       0       7        0.0%
BITBANK3            60      0       0       8        0.0%
BANK3               60      0       0       9        0.0%
BITBANK2            60      0       0      10        0.0%
BANK2               60      0       0      11        0.0%
DATA                 0      0      36      12        0.0%


Microchip Technology PIC Macro Assembler V2.31 build 20201012212115 
Symbol Table                                                                                   Thu Feb 18 22:34:34 2021

                        pc 0002                _SSPSTATbits 0094                         l30 16D9  
                       l27 16D0                         _TX 0731               ___awdiv@sign 0076  
                       fsr 0004                        ?_TX 0070                        l221 173B  
                      l230 07E5                        l233 07FE                        l218 16C1  
                      l242 17FF                        l171 0EF8                        l236 1720  
                      l180 1775                        l253 072D                        l174 17B9  
                      l183 0C23                        l177 1758                        l524 16EF  
                      _LCD 1776                        u500 17C9                        u510 17ED  
                      u520 17FF                        u521 17FE                        u470 16D6  
                      u607 1719                        u471 16D5                        u480 07C8  
                      u617 1734                        u481 07C7                        u490 07DA  
                      u491 07D9                        u547 0E0D                        u557 0E2F  
                      u567 0E51                        u577 0C1B                        u587 176D  
                      u597 1750                        _isr 16F0                        fsr0 0004  
                      indf 0000               ___awmod@sign 0076                       ??_TX 0035  
          __end_of_LEER_S1 1759            __end_of_LEER_S2 1776            __end_of_LEER_S3 0C24  
                     ?_LCD 0070                       l4003 0085                       l4021 0094  
                     l3221 1724                       l4111 00DF                       l4015 008F  
                     l3223 172A                       l3231 170B                       l4201 012A  
                     l4105 00DA                       l4033 009E                       l4009 008A  
                     l3225 172D                       l3241 171F                       l3233 170C  
                     l5011 03CD                       l4123 00E9                       l4051 00AD  
                     l4027 0099                       l3219 16BF                       l3227 172E  
                     l3235 1712                       l3331 16DA                       l5101 0418  
                     l5005 03C8                       l4213 0134                       l4141 00F8  
                     l4117 00E4                       l4045 00A8                       l3229 1738  
                     l3237 1715                       l3325 16CD                       l3341 16ED  
                     l3333 16E4                       l3501 0E75                       l5023 03D7  
                     l4303 017F                       l4231 0143                       l4207 012F  
                     l4135 00F3                       l4063 00B7                       l4039 00A3  
                     l3351 07CD                       l3239 171C                       l3327 16D6  
                     l3343 16EE                       l3335 16E8                       l3511 0E7F  
                     l3503 0E77                       l5041 03E6                       l5017 03D2  
                     l4321 018E                       l4225 013E                       l4153 0102  
                     l4129 00EE                       l4081 00C6                       l4057 00B2  
                     l3601 0F15                       l3353 07D4                       l3361 17BF  
                     l3337 16E9                       l3345 07E6                       l3521 0E89  
                     l3513 0E80                       l3505 0E7A                       l5107 041D  
                     l5035 03E1                       l4411 01D9                       l4315 0189  
                     l4243 014D                       l4219 0139                       l4171 0111  
                     l4147 00FD                       l4075 00C1                       l5115 0422  
                     l3355 07DA                       l3347 07C3                       l3363 17DB  
                     l5123 1759                       l5131 0C07                       l3339 16EA  
                     l3531 0E97                       l3523 0E8A                       l3515 0E81  
                     l3507 0E7B                       l5053 03F0                       l5029 03DC  
                     l4501 0224                       l4405 01D4                       l4333 0198  
                     l4309 0184                       l4261 015C                       l4237 0148  
                     l4165 010C                       l4093 00D0                       l4069 00BC  
                     l3613 0F1F                       l3357 07DF                       l3349 07C8  
                     l3365 17E3                       l5141 1782                       l5125 175C  
                     l5133 0C0A                       l3541 0EA1                       l3533 0E98  
                     l3525 0E90                       l3517 0E84                       l3509 0E7E  
                     l5071 03FF                       l5047 03EB                       l4423 01E3  
                     l4351 01A7                       l4327 0193                       l4255 0157  
                     l4183 011B                       l4159 0107                       l4087 00CB  
                     l3703 0F6A                       l3631 0F2E                       l3607 0F1A  
                     l3359 17BA                       l5143 178D                       l5127 1767  
                     l5135 0C15                       l3551 0EAB                       l3543 0EA5  
                     l3535 0E99                       l3527 0E91                       l3519 0E85  
                     l5065 03FA                       l4513 022E                       l4441 01F2  
                     l4417 01DE                       l4345 01A2                       l4273 0166  
                     l4249 0152                       l4177 0116                       l3721 0F79  
                     l3625 0F29                       l5145 17A4                       l5129 1772  
                     l5137 0C20                       l3561 0ED6                       l3553 0EB0  
                     l3545 0EA6                       l3537 0E9C                       l3529 0E94  
                     l5161 0E05                       l5083 0409                       l5059 03F5  
                     l4603 0279                       l4531 023D                       l4507 0229  
                     l4435 01ED                       l4363 01B1                       l4339 019D  
                     l4291 0175                       l4267 0161                       l4195 0125  
                     l4099 00D5                       l3811 0FC4                       l3715 0F74  
                     l3643 0F38                       l3619 0F24                       l5147 17AE  
                     l5139 1776                       l3571 174A                       l3563 0EE1  
                     l3555 0EB5                       l3547 0EA7                       l3539 0E9D  
                     l5171 0E44                       l5163 0E14                       l5245 042A  
                     l5077 0404                       l4621 0288                       l4525 0238  
                     l4453 01FC                       l4429 01E8                       l4381 01C0  
                     l4357 01AC                       l4285 0170                       l4189 0120  
                     l3901 0030                       l3805 0FBF                       l3733 0F83  
                     l3709 0F6F                       l3661 0F47                       l3637 0F33  
                     l3573 1755                       l3565 0EED                       l3557 0EBF  
                     l3549 0EA8                       l5173 0E49                       l5165 0E22  
                     l5157 0DFB                       l5095 0413                       l4711 02D3  
                     l4615 0283                       l4543 0247                       l4519 0233  
                     l4471 020B                       l4447 01F7                       l4375 01BB  
                     l4279 016B                       l3823 0FCE                       l3751 0F92  
                     l3727 0F7E                       l3655 0F42                       l3583 0F06  
                     l3575 0EFC                       l3567 173C                       l3559 0ECA  
                     l5175 0E58                       l5167 0E27                       l5159 0E00  
                     l5089 040E                       l4801 031E                       l4705 02CE  
                     l4633 0292                       l4609 027E                       l4561 0256  
                     l4537 0242                       l4465 0206                       l4393 01CA  
                     l4369 01B6                       l4297 017A                       l3913 003A  
                     l3841 0FDD                       l3817 0FC9                       l3745 0F8D  
                     l3673 0F51                       l3649 0F3D                       l3577 0EFF  
                     l3569 173F                       l5177 0E66                       l5169 0E36  
                     l4723 02DD                       l4651 02A1                       l4627 028D  
                     l4555 0251                       l4483 0215                       l4459 0201  
                     l4387 01C5                       l3931 0049                       l3907 0035  
                     l3835 0FD8                       l3763 0F9C                       l3739 0F88  
                     l3691 0F60                       l3667 0F4C                       l3595 0F10  
                     l3499 0E6F                       l4813 0328                       l4741 02EC  
                     l4717 02D8                       l4645 029C                       l4573 0260  
                     l4549 024C                       l4477 0210                       l3925 0044  
                     l3853 0FE7                       l3829 0FD3                       l3781 0FAB  
                     l3757 0F97                       l3685 0F5B                       l3589 0F0B  
                     l4903 0373                       l4831 0337                       l4807 0323  
                     l4735 02E7                       l4663 02AB                       l4639 0297  
                     l4591 026F                       l4567 025B                       l4495 021F  
                     l4399 01CF                       l3943 0053                       l3919 003F  
                     l3871 0FF6                       l3847 0FE2                       l3775 0FA6  
                     l3679 0F56                       l4921 0382                       l4825 0332  
                     l4753 02F6                       l4729 02E2                       l4681 02BA  
                     l4657 02A6                       l4585 026A                       l4489 021A  
                     l3961 0062                       l3937 004E                       l3865 0FF1  
                     l3793 0FB5                       l3769 0FA1                       l3697 0F65  
                     l4915 037D                       l4843 0341                       l4819 032D  
                     l4771 0305                       l4747 02F1                       l4675 02B5  
                     l4579 0265                       l3955 005D                       l3883 0021  
                     l3859 0FEC                       l3787 0FB0                       l4933 038C  
                     l4909 0378                       l4861 0350                       l4837 033C  
                     l4765 0300                       l4693 02C4                       l4669 02B0  
                     l4597 0274                       l3973 006C                       l3949 0058  
                     l3877 0FFB                       l4951 039B                       l4927 0387  
                     l4855 034B                       l4783 030F                       l4759 02FB  
                     l4687 02BF                       l3991 007B                       l3967 0067  
                     l3895 002B                       l3799 0FBA                       l4945 0396  
                     l4873 035A                       l4849 0346                       l4777 030A  
                     l3985 0076                       l3889 0026                       l4963 03A5  
                     l4939 0391                       l4891 0369                       l4867 0355  
                     l4795 0319                       l4699 02C9                       l3979 0071  
                     ?_isr 0070                       l4981 03B4                       l4957 03A0  
                     l4885 0364                       l4789 0314                       l3997 0080  
                     l4975 03AF                       l4879 035F                       l4993 03BE  
                     l4969 03AA                       l4897 036E                       l4987 03B9  
                     l4999 03C3                       STR_1 0BFE                       STR_2 0805  
                     STR_3 0800                       STR_4 080A                       STR_5 086E  
                     STR_6 08D6                       STR_7 093A                       STR_8 099E  
                     STR_9 0A06                       _CONT 0030                       _CONV 0EF9  
          ??_CONT_TO_CHARS 0079                       _data 0034          ?_Lcd_Write_String 003D  
                     _main 0DFB                       _temp 0033                       btemp 007E  
                     start 0010         ??_Lcd_Write_String 003F            __end_of_Lcd_Cmd 173C  
                    ??_LCD 0044                      ??_isr 0037                      ?_CONV 003A  
     __end_of_CONFIG_USART 16F0           __end_of_READ_SPI 16DA                      ?_main 0070  
          __end_of___awdiv 0DFB                      STR_10 0A6E                      STR_11 0AD2  
                    STR_12 0B36                      STR_20 0A7A                      STR_13 0B9A  
                    STR_21 0ADE                      STR_22 0B42                      STR_30 0A86  
                    STR_14 0812                      STR_23 0BA6                      STR_31 0AEA  
                    STR_15 087A                      STR_32 0B4E                      STR_40 0A92  
                    STR_16 08E2                      STR_24 081E                      STR_33 0BB2  
                    STR_41 0AF6                      STR_17 0946                      STR_25 0886  
                    STR_42 0B5A                      STR_50 0A9E                      STR_18 09AA  
                    STR_26 08EE                      STR_34 082A                      STR_43 0BBE  
                    STR_51 0B02                      STR_19 0A12                      STR_27 0952  
                    STR_35 0892                      STR_52 0B66                      STR_60 0AAA  
                    STR_28 09B6                      STR_36 08FA                      STR_44 0836  
          __end_of___awmod 0C7D                      STR_53 0BCA                      STR_61 0B0E  
                    STR_29 0A1E                      STR_37 095E                      STR_45 089E  
                    STR_62 0B72                      STR_70 0AB2                      STR_38 09C2  
                    STR_46 0906                      STR_54 0842                      STR_63 0BD6  
                    STR_71 0B16                      STR_39 0A2A                      STR_47 096A  
                    STR_55 08AA                      STR_72 0B7A                      STR_80 0ABA  
                    STR_48 09CE                      STR_56 0912                      STR_64 084E  
                    STR_73 0BDE                      STR_81 0B1E                      STR_49 0A36  
                    STR_57 0976                      STR_65 08B6                      STR_82 0B82  
                    STR_90 0AC2                      STR_58 09DA                      STR_66 091A  
                    STR_74 0856                      STR_83 0BE6                      STR_91 0B26  
                    STR_59 0A42                      STR_67 097E                      STR_75 08BE  
                    STR_92 0B8A                      STR_68 09E6                      STR_76 0922  
                    STR_84 085E                      STR_93 0BEE                      STR_69 0A4E  
                    STR_77 0986                      STR_85 08C6                      STR_78 09EE  
                    STR_86 092A                      STR_94 0866                      STR_79 0A56  
                    STR_87 098E                      STR_95 08CE                      STR_88 09F6  
                    STR_96 0932                      STR_89 0A5E                      STR_97 0996  
                    STR_98 09FE                      STR_99 0A66                      _ANSEL 0188  
          ___awdiv@divisor 0070                      i1l160 16FF                      i1l192 0D93  
                    i1l186 0D36                      i1l189 0CD9                      i1l197 07BF  
                    i1l784 0DFA                      i1l797 0C7C            ___awdiv@counter 0075  
                    u30_20 0DB5                      u30_21 0DB4                      u31_25 0DB9  
                    u32_20 0DC7                      u40_20 0C3F                      u32_21 0DC6  
                    u40_21 0C3E                      u33_25 0DC8                      u41_25 0C43  
                    u34_20 0DD8                      u42_20 0C51                      u34_21 0DD7  
                    u42_21 0C50                      _SETUP 0E6F                      _SPBRG 0099  
                    u34_25 0DD4                      u43_20 0C5B                      u43_21 0C5A  
                    _PORTA 0005                      _PORTB 0006                      _PORTC 0007  
                    _PORTD 0008                      u35_25 0DE0                      u43_25 0C57  
                    _PORTE 0009                      u36_20 0DEC                      u28_20 0D99  
                    u36_21 0DEB                      u28_21 0D98                      u44_25 0C62  
                    u37_20 0DF1                      u29_20 0DA4                      u45_20 0C6E  
                    u53_20 16F5                      u37_21 0DF0                      u29_21 0DA3  
                    u45_21 0C6D                      u53_21 16F4                      u46_20 0C73  
                    u38_20 0C29                      u46_21 0C72                      u38_21 0C28  
                    u39_20 0C34                      u39_21 0C33    __size_of_Lcd_Set_Cursor 0026  
                    _TRISA 0085                      _TRISB 0086                      _TRISC 0087  
                    _TRISD 0088                      _TRISE 0089                      _POT_r 0024  
                    _TXREG 0019                      pclath 000A                      status 0003  
                    wtemp0 007E           __end_of_Lcd_Init 07FF               __end_of_CONV 072E  
         __end_of_Lcd_Port 16C2            __initialization 0013               __end_of_main 0E6F  
                   ??_CONV 003B      __end_of_TEMP_TO_CHARS 0D94                     ??_main 0045  
                ??_LEER_S1 003C                  ??_LEER_S2 003C                  ??_LEER_S3 003C  
                   ?_SETUP 0070                     STR_100 0ACA                     STR_101 0B2E  
                   STR_102 0B92                     STR_110 0A72                     STR_103 0BF6  
                   STR_111 0AD6                     STR_112 0B3A                     STR_200 0ACE  
                   STR_120 0A7E                     STR_104 080E                     STR_113 0B9E  
                   STR_201 0B32                     STR_121 0AE2                     STR_105 0872  
                   STR_202 0B96                     STR_122 0B46                     STR_130 0A8A  
                   STR_210 0A76                     STR_106 08DA                     STR_114 0816  
                   STR_203 0BFA                     STR_123 0BAA                     STR_131 0AEE  
                   STR_211 0ADA                     STR_107 093E                     STR_115 087E  
                   STR_204 081F                     STR_132 0B52                     STR_212 0B3E  
                   STR_140 0A96                     STR_220 0A82                     STR_108 09A2  
                   STR_116 08E6                     STR_124 0822                     STR_133 0BB6  
                   STR_213 0BA2                     STR_141 0AFA                     STR_221 0AE6  
                   STR_109 0A0A                     STR_117 094A                     STR_125 088A  
                   STR_205 0876                     STR_142 0B5E                     STR_222 0B4A  
                   STR_150 0AA2                     STR_230 0A8E                     STR_118 09AE  
                   STR_126 08F2                     STR_206 08DE                     STR_134 082E  
                   STR_214 081A                     STR_143 0BC2                     STR_223 0BAE  
                   STR_151 0B06                     STR_231 0AF2                     STR_119 0A16  
                   STR_127 0956                     STR_207 0942                     STR_135 0896  
                   STR_215 0882                     STR_152 0B6A                     STR_232 0B56  
                   STR_160 0AAE                     STR_240 0A9A                     STR_128 09BA  
                   STR_208 09A6                     STR_136 08FE                     STR_216 08EA  
                   STR_144 083A                     STR_224 0826                     STR_153 0BCE  
                   STR_233 0BBA                     STR_161 0B12                     STR_241 0AFE  
                   STR_129 0A22                     STR_209 0A0E                     STR_137 0962  
                   STR_217 094E                     STR_145 08A2                     STR_225 088E  
                   STR_162 0B76                     STR_242 0B62                     STR_170 0AB6  
                   STR_250 0AA6                     STR_138 09C6                     STR_218 09B2  
                   STR_146 090A                     STR_226 08F6                     STR_154 0846  
                   STR_234 0832                     STR_163 0BDA                     STR_243 0BC6  
                   STR_171 0B1A                     STR_251 0B0A                     STR_139 0A2E  
                   STR_219 0A1A                     STR_147 096E                     STR_227 095A  
                   STR_155 08AE                     STR_235 089A                     STR_156 08D8  
                   STR_172 0B7E                     STR_252 0B6E                     STR_180 0ABE  
                   STR_148 09D2                     STR_228 09BE                     STR_236 0902  
                   STR_164 0852                     STR_244 083E                     STR_157 093C  
                   STR_173 0BE2                     STR_253 0BD2                     STR_181 0B22  
                   STR_149 0A3A                     STR_229 0A26                     STR_237 0966  
                   STR_165 08BA                     STR_245 08A6                     STR_182 0B86  
                   STR_190 0AC6                     STR_158 09DE                     STR_238 09CA  
                   STR_166 091E                     STR_246 090E                     STR_174 085A  
                   STR_254 084A                     STR_183 0BEA                     STR_191 0B2A  
                   STR_159 0A46                     STR_239 0A32                     STR_167 0982  
                   STR_247 0972                     STR_175 08C2                     STR_255 08B2  
                   STR_192 0B8E                     STR_168 09EA                     STR_248 09D6  
                   STR_176 0926                     STR_256 0916                     STR_184 0862  
                   STR_193 0BF2                     STR_169 0A52                     STR_249 0A3E  
                   STR_177 098A                     STR_257 097A                     STR_185 08CA  
                   STR_178 09F2                     STR_258 09E2                     STR_186 092E  
                   STR_194 086A                     STR_179 0A5A                     STR_259 0A4A  
                   STR_187 0992                     STR_195 08D2                     STR_188 09FA  
                   STR_196 0936                     STR_189 0A62                     STR_197 099A  
                   STR_198 0A02                     STR_199 0A6A           ___awdiv@dividend 0072  
                   _ANSELH 0189                     _CONT_r 0022                     i1l3301 0C3F  
                   i1l3311 0C5B                     i1l3303 0C42                     i1l3321 0C78  
                   i1l3313 0C61                     i1l3305 0C49                     i1l3401 0737  
                   i1l3251 0DA0                     i1l3243 0D94                     i1l3315 0C68  
                   i1l3307 0C4D                     i1l3403 073D                     i1l3261 0DB5  
                   i1l3253 0DA4                     i1l3245 0D95                     i1l3309 0C51  
                   i1l3317 0C6E                     i1l3421 074E                     i1l3271 0DD8  
                   i1l3263 0DB8                     i1l3255 0DA9                     i1l3247 0D99  
                   i1l3319 0C73                     i1l3431 0759                     i1l3423 0752  
                   i1l3415 0747                     i1l3281 0DF1                     i1l3273 0DDE  
                   i1l3265 0DBF                     i1l3257 0DAD                     i1l3249 0D9E  
                   i1l3433 075F                     i1l3409 0740                     i1l3283 0DF6  
                   i1l3275 0DDF                     i1l3267 0DC3                     i1l3259 0DAF  
                   i1l3291 0C29                     i1l3371 0CF6                     i1l3277 0DE6  
                   i1l3269 0DC7                     i1l3293 0C2E                     i1l3381 0C99  
                   i1l3373 0D0A                     i1l3461 0775                     i1l3445 0769  
                   i1l3429 0754                     i1l3279 0DEC                     i1l3295 0C30  
                   i1l3287 0C24                     i1l3383 0CAD                     i1l3375 0D20  
                   i1l3367 0CDA                     i1l3391 0D53                     i1l3463 077B  
                   i1l3439 0762                     i1l5151 16F5                     i1l3297 0C34  
                   i1l3289 0C25                     i1l3385 0CC3                     i1l3377 0C7D  
                   i1l3369 0CE0                     i1l3393 0D67                     i1l3481 078C  
                   i1l5153 16F6                     i1l3299 0C39                     i1l3379 0C83  
                   i1l3395 0D7D                     i1l3387 0D37                     i1l3483 078D  
                   i1l3475 0785                     i1l3459 0770                     i1l3491 078F  
                   i1l5155 16FE                     i1l3389 0D3D                     i1l3469 077E  
                   i1l3397 0731                     i1l5149 16F0                     i1l5247 0799  
                   i1l3399 0732                  ??_Lcd_Cmd 003B                     _SPBRGH 009A  
                   _TEMP_r 0020    __size_of_Lcd_Write_Char 0019                     _SSPCON 0014  
                   _SSPBUF 0013                 _Temp_cents 002D                 _Temp_units 002C  
                ??___awdiv 0074                  ??___awmod 0074           ___awdiv@quotient 0077  
          ___awmod@divisor 0070            ___awmod@counter 0075                     saved_w 007E  
          Lcd_Set_Cursor@a 0040            Lcd_Set_Cursor@b 003E    __end_of__initialization 001D  
                ?_READ_SPI 0070              __end_of_SETUP 0EF9      __size_of_CONFIG_USART 0016  
           __pcstackCOMMON 0070                 __end_of_TX 07C0             _Lcd_Set_Cursor 07C0  
                  ??_SETUP 0044                  ?_Lcd_Init 0070                  ?_Lcd_Port 0070  
             READ_SPI@data 003B         TEMP_TO_CHARS@valor 007C                 __pbssBANK0 0020  
             _CONFIG_USART 16DA                 ??_READ_SPI 003A                 __pmaintext 0DFB  
               __pintentry 0004  __size_of_Lcd_Write_String 0046     __end_of_Lcd_Set_Cursor 07E6  
                  _LEER_S1 173C                    _LEER_S2 1759                    _LEER_S3 0C07  
               ??_Lcd_Init 003E                 ??_Lcd_Port 003A                    _SSPSTAT 0094  
               _cont_cents 0026                 __stringtab 1000                  _BANDERA_T 007D  
               _cont_units 0028             _Lcd_Write_Char 1708                    _Lcd_Cmd 1721  
    __end_of_CONT_TO_CHARS 0CDA                    ___awdiv 0D94                    ___awmod 0C24  
          ?_Lcd_Set_Cursor 003E                    __ptext1 0E6F                    __ptext2 07E6  
                  __ptext3 16DA                    __ptext4 0C07                    __ptext5 1759  
                  __ptext6 173C                    __ptext7 16CA                    __ptext8 1776  
                  __ptext9 17BA               __size_of_LCD 0044               __size_of_isr 0018  
         ___awmod@dividend 0072                    clrloop0 16C3     __end_of_Lcd_Write_Char 1721  
     end_of_initialization 001D          POT_TO_CHARS@valor 007C                  _RCSTAbits 0018  
            ?_POT_TO_CHARS 0070                    psplit$0 180022                  Lcd_Port@a 003A  
             __pstringtext 0800                  _PORTCbits 0007                  _PORTEbits 0009  
                _TRISCbits 0087                 CONV@numero 003D            ?_Lcd_Write_Char 0070  
        Lcd_Write_String@a 003D          Lcd_Write_String@i 0042     __size_of_TEMP_TO_CHARS 005D  
                _TXSTAbits 0098          __size_of_READ_SPI 0010             ??_POT_TO_CHARS 0079  
         _Lcd_Write_String 17BA                _BAUDCTLbits 0187         CONT_TO_CHARS@valor 007C  
      start_initialization 0013                __end_of_LCD 17BA                __end_of_isr 1708  
        __size_of_Lcd_Init 0019          __size_of_Lcd_Port 0006              _POTENCIOMETRO 0032  
                _Temp_decs 002E                  _Pot_cents 002B                  _Pot_units 002A  
          Lcd_Write_Char@a 003C              _TEMP_TO_CHARS 0D37                   ?_LEER_S1 0070  
                 ?_LEER_S2 0070                   ?_LEER_S3 0070                __pbssCOMMON 007D  
                ___latbits 0002              __pcstackBANK0 0035                   ?_Lcd_Cmd 0070  
         ??_Lcd_Set_Cursor 003F                   ?___awdiv 0070                   ?___awmod 0070  
           ?_TEMP_TO_CHARS 0070                  __pstrings 1000                  _cont_decs 0027  
           __size_of_SETUP 008A       __end_of_POT_TO_CHARS 0D37                 pnum$text14 0018  
              __size_of_TX 008F          interrupt_function 0004                  clear_ram0 16C2  
                 _READ_SPI 16CA                   _PIE1bits 008C                   Lcd_Cmd@a 003D  
                 _PIR1bits 000C                __stringbase 1012     __size_of_CONT_TO_CHARS 005D  
         ??_Lcd_Write_Char 003B           __size_of_LEER_S1 001D           __size_of_LEER_S2 001D  
         __size_of_LEER_S3 001D                   _Lcd_Init 07E6                   _Lcd_Port 16BC  
 __end_of_Lcd_Write_String 1800           __size_of_Lcd_Cmd 001B                   _Pot_decs 0029  
          ??_TEMP_TO_CHARS 0079           __size_of___awdiv 0067           __size_of___awmod 0059  
       __end_of__stringtab 1012                   __ptext10 1708                   __ptext11 07C0  
                 __ptext20 0C24                   __ptext12 1721                   __ptext21 0D94  
                 __ptext13 16BC                   __ptext14 0EF9                   __ptext15 16F0  
                 __ptext16 0731                   __ptext17 0D37                   __ptext18 0CDA  
                 __ptext19 0C7D                   _contador 0031              __size_of_CONV F835  
            ?_CONFIG_USART 0070              __size_of_main 0074              _CONT_TO_CHARS 0C7D  
              _TEMPERATURA 002F         pnum$text14_split_1 0022      __size_of_POT_TO_CHARS 005D  
               _INTCONbits 000B                   intlevel1 0000             ??_CONFIG_USART 003A  
           ?_CONT_TO_CHARS 0070                  stringcode 100A               _POT_TO_CHARS 0CDA  
       Lcd_Set_Cursor@temp 0041                   stringtab 1000                 _SSPCONbits 0014  
